	.file	"cprtypes.cpp"
	.text
	.align 2
	.def	_ZZNK3cpr22CaseInsensitiveCompareclERKNSt7__cxx1112basic_stringIcSt11char_traitsIcESaIcEEES8_ENKUlhhE_clEhh;	.scl	3;	.type	32;	.endef
	.seh_proc	_ZZNK3cpr22CaseInsensitiveCompareclERKNSt7__cxx1112basic_stringIcSt11char_traitsIcESaIcEEES8_ENKUlhhE_clEhh
_ZZNK3cpr22CaseInsensitiveCompareclERKNSt7__cxx1112basic_stringIcSt11char_traitsIcESaIcEEES8_ENKUlhhE_clEhh:
.LFB8831:
	pushq	%rbp
	.seh_pushreg	%rbp
	pushq	%rbx
	.seh_pushreg	%rbx
	subq	$40, %rsp
	.seh_stackalloc	40
	leaq	32(%rsp), %rbp
	.seh_setframe	%rbp, 32
	.seh_endprologue
	movq	%rcx, 32(%rbp)
	movl	%edx, %eax
	movl	%r8d, %edx
	movb	%al, 40(%rbp)
	movl	%edx, %eax
	movb	%al, 48(%rbp)
	movzbl	40(%rbp), %eax
	movl	%eax, %ecx
	movq	__imp_tolower(%rip), %rax
	call	*%rax
	movl	%eax, %ebx
	movzbl	48(%rbp), %eax
	movl	%eax, %ecx
	movq	__imp_tolower(%rip), %rax
	call	*%rax
	cmpl	%eax, %ebx
	setl	%al
	addq	$40, %rsp
	popq	%rbx
	popq	%rbp
	ret
	.seh_endproc
	.align 2
	.globl	_ZNK3cpr22CaseInsensitiveCompareclERKNSt7__cxx1112basic_stringIcSt11char_traitsIcESaIcEEES8_
	.def	_ZNK3cpr22CaseInsensitiveCompareclERKNSt7__cxx1112basic_stringIcSt11char_traitsIcESaIcEEES8_;	.scl	2;	.type	32;	.endef
	.seh_proc	_ZNK3cpr22CaseInsensitiveCompareclERKNSt7__cxx1112basic_stringIcSt11char_traitsIcESaIcEEES8_
_ZNK3cpr22CaseInsensitiveCompareclERKNSt7__cxx1112basic_stringIcSt11char_traitsIcESaIcEEES8_:
.LFB8830:
	pushq	%rbp
	.seh_pushreg	%rbp
	pushq	%rdi
	.seh_pushreg	%rdi
	pushq	%rsi
	.seh_pushreg	%rsi
	pushq	%rbx
	.seh_pushreg	%rbx
	subq	$40, %rsp
	.seh_stackalloc	40
	leaq	32(%rsp), %rbp
	.seh_setframe	%rbp, 32
	.seh_endprologue
	movq	%rcx, 48(%rbp)
	movq	%rdx, 56(%rbp)
	movq	%r8, 64(%rbp)
	movq	64(%rbp), %rax
	movq	%rax, %rcx
	call	_ZNKSt7__cxx1112basic_stringIcSt11char_traitsIcESaIcEE3endEv
	movq	%rax, %rdi
	movq	64(%rbp), %rax
	movq	%rax, %rcx
	call	_ZNKSt7__cxx1112basic_stringIcSt11char_traitsIcESaIcEE5beginEv
	movq	%rax, %rsi
	movq	56(%rbp), %rax
	movq	%rax, %rcx
	call	_ZNKSt7__cxx1112basic_stringIcSt11char_traitsIcESaIcEE3endEv
	movq	%rax, %rbx
	movq	56(%rbp), %rax
	movq	%rax, %rcx
	call	_ZNKSt7__cxx1112basic_stringIcSt11char_traitsIcESaIcEE5beginEv
	movq	%rdi, %r9
	movq	%rsi, %r8
	movq	%rbx, %rdx
	movq	%rax, %rcx
	call	_ZSt23lexicographical_compareIN9__gnu_cxx17__normal_iteratorIPKcNSt7__cxx1112basic_stringIcSt11char_traitsIcESaIcEEEEESA_ZNK3cpr22CaseInsensitiveCompareclERKS9_SE_EUlhhE_EbT_SG_T0_SH_T1_
	addq	$40, %rsp
	popq	%rbx
	popq	%rsi
	popq	%rdi
	popq	%rbp
	ret
	.seh_handler	__gxx_personality_seh0, @unwind, @except
	.seh_handlerdata
.LLSDA8830:
	.byte	0xff
	.byte	0xff
	.byte	0x1
	.uleb128 .LLSDACSE8830-.LLSDACSB8830
.LLSDACSB8830:
.LLSDACSE8830:
	.text
	.seh_endproc
	.def	_ZSt23lexicographical_compareIN9__gnu_cxx17__normal_iteratorIPKcNSt7__cxx1112basic_stringIcSt11char_traitsIcESaIcEEEEESA_ZNK3cpr22CaseInsensitiveCompareclERKS9_SE_EUlhhE_EbT_SG_T0_SH_T1_;	.scl	3;	.type	32;	.endef
	.seh_proc	_ZSt23lexicographical_compareIN9__gnu_cxx17__normal_iteratorIPKcNSt7__cxx1112basic_stringIcSt11char_traitsIcESaIcEEEEESA_ZNK3cpr22CaseInsensitiveCompareclERKS9_SE_EUlhhE_EbT_SG_T0_SH_T1_
_ZSt23lexicographical_compareIN9__gnu_cxx17__normal_iteratorIPKcNSt7__cxx1112basic_stringIcSt11char_traitsIcESaIcEEEEESA_ZNK3cpr22CaseInsensitiveCompareclERKS9_SE_EUlhhE_EbT_SG_T0_SH_T1_:
.LFB9125:
	pushq	%rbp
	.seh_pushreg	%rbp
	movq	%rsp, %rbp
	.seh_setframe	%rbp, 0
	subq	$48, %rsp
	.seh_stackalloc	48
	.seh_endprologue
	movq	%rcx, 16(%rbp)
	movq	%rdx, 24(%rbp)
	movq	%r8, 32(%rbp)
	movq	%r9, 40(%rbp)
	movl	%eax, %ecx
	call	_ZN9__gnu_cxx5__ops16__iter_comp_iterIZNK3cpr22CaseInsensitiveCompareclERKNSt7__cxx1112basic_stringIcSt11char_traitsIcESaIcEEESB_EUlhhE_EENS0_15_Iter_comp_iterIT_EESE_
	movq	40(%rbp), %r8
	movq	32(%rbp), %rcx
	movq	24(%rbp), %rdx
	movq	16(%rbp), %rax
	movq	%r8, %r9
	movq	%rcx, %r8
	movq	%rax, %rcx
	call	_ZSt30__lexicographical_compare_implIN9__gnu_cxx17__normal_iteratorIPKcNSt7__cxx1112basic_stringIcSt11char_traitsIcESaIcEEEEESA_NS0_5__ops15_Iter_comp_iterIZNK3cpr22CaseInsensitiveCompareclERKS9_SG_EUlhhE_EEEbT_SJ_T0_SK_T1_
	addq	$48, %rsp
	popq	%rbp
	ret
	.seh_endproc
	.section	.text$_ZN9__gnu_cxx17__normal_iteratorIPKcNSt7__cxx1112basic_stringIcSt11char_traitsIcESaIcEEEEC1ERKS2_,"x"
	.linkonce discard
	.align 2
	.globl	_ZN9__gnu_cxx17__normal_iteratorIPKcNSt7__cxx1112basic_stringIcSt11char_traitsIcESaIcEEEEC1ERKS2_
	.def	_ZN9__gnu_cxx17__normal_iteratorIPKcNSt7__cxx1112basic_stringIcSt11char_traitsIcESaIcEEEEC1ERKS2_;	.scl	2;	.type	32;	.endef
	.seh_proc	_ZN9__gnu_cxx17__normal_iteratorIPKcNSt7__cxx1112basic_stringIcSt11char_traitsIcESaIcEEEEC1ERKS2_
_ZN9__gnu_cxx17__normal_iteratorIPKcNSt7__cxx1112basic_stringIcSt11char_traitsIcESaIcEEEEC1ERKS2_:
.LFB9261:
	pushq	%rbp
	.seh_pushreg	%rbp
	movq	%rsp, %rbp
	.seh_setframe	%rbp, 0
	.seh_endprologue
	movq	%rcx, 16(%rbp)
	movq	%rdx, 24(%rbp)
	movq	24(%rbp), %rax
	movq	(%rax), %rdx
	movq	16(%rbp), %rax
	movq	%rdx, (%rax)
	nop
	popq	%rbp
	ret
	.seh_endproc
	.text
	.def	_ZN9__gnu_cxx5__ops16__iter_comp_iterIZNK3cpr22CaseInsensitiveCompareclERKNSt7__cxx1112basic_stringIcSt11char_traitsIcESaIcEEESB_EUlhhE_EENS0_15_Iter_comp_iterIT_EESE_;	.scl	3;	.type	32;	.endef
	.seh_proc	_ZN9__gnu_cxx5__ops16__iter_comp_iterIZNK3cpr22CaseInsensitiveCompareclERKNSt7__cxx1112basic_stringIcSt11char_traitsIcESaIcEEESB_EUlhhE_EENS0_15_Iter_comp_iterIT_EESE_
_ZN9__gnu_cxx5__ops16__iter_comp_iterIZNK3cpr22CaseInsensitiveCompareclERKNSt7__cxx1112basic_stringIcSt11char_traitsIcESaIcEEESB_EUlhhE_EENS0_15_Iter_comp_iterIT_EESE_:
.LFB9262:
	pushq	%rbp
	.seh_pushreg	%rbp
	pushq	%rbx
	.seh_pushreg	%rbx
	subq	$56, %rsp
	.seh_stackalloc	56
	leaq	48(%rsp), %rbp
	.seh_setframe	%rbp, 48
	.seh_endprologue
	leaq	32(%rbp), %rcx
	call	_ZSt4moveIRZNK3cpr22CaseInsensitiveCompareclERKNSt7__cxx1112basic_stringIcSt11char_traitsIcESaIcEEES9_EUlhhE_EONSt16remove_referenceIT_E4typeEOSD_
	leaq	-1(%rbp), %rax
	movl	%ebx, %edx
	movq	%rax, %rcx
	call	_ZN9__gnu_cxx5__ops15_Iter_comp_iterIZNK3cpr22CaseInsensitiveCompareclERKNSt7__cxx1112basic_stringIcSt11char_traitsIcESaIcEEESB_EUlhhE_EC1ESC_
	nop
	addq	$56, %rsp
	popq	%rbx
	popq	%rbp
	ret
	.seh_endproc
	.def	_ZSt30__lexicographical_compare_implIN9__gnu_cxx17__normal_iteratorIPKcNSt7__cxx1112basic_stringIcSt11char_traitsIcESaIcEEEEESA_NS0_5__ops15_Iter_comp_iterIZNK3cpr22CaseInsensitiveCompareclERKS9_SG_EUlhhE_EEEbT_SJ_T0_SK_T1_;	.scl	3;	.type	32;	.endef
	.seh_proc	_ZSt30__lexicographical_compare_implIN9__gnu_cxx17__normal_iteratorIPKcNSt7__cxx1112basic_stringIcSt11char_traitsIcESaIcEEEEESA_NS0_5__ops15_Iter_comp_iterIZNK3cpr22CaseInsensitiveCompareclERKS9_SG_EUlhhE_EEEbT_SJ_T0_SK_T1_
_ZSt30__lexicographical_compare_implIN9__gnu_cxx17__normal_iteratorIPKcNSt7__cxx1112basic_stringIcSt11char_traitsIcESaIcEEEEESA_NS0_5__ops15_Iter_comp_iterIZNK3cpr22CaseInsensitiveCompareclERKS9_SG_EUlhhE_EEEbT_SJ_T0_SK_T1_:
.LFB9263:
	pushq	%rbp
	.seh_pushreg	%rbp
	movq	%rsp, %rbp
	.seh_setframe	%rbp, 0
	subq	$48, %rsp
	.seh_stackalloc	48
	.seh_endprologue
	movq	%rcx, 16(%rbp)
	movq	%rdx, 24(%rbp)
	movq	%r8, 32(%rbp)
	movq	%r9, 40(%rbp)
	movq	40(%rbp), %r8
	movq	32(%rbp), %rcx
	movq	24(%rbp), %rdx
	movq	16(%rbp), %rax
	movq	%r8, %r9
	movq	%rcx, %r8
	movq	%rax, %rcx
	call	_ZNSt8__lc_raiISt26random_access_iterator_tagS0_E10__newlast1IN9__gnu_cxx17__normal_iteratorIPKcNSt7__cxx1112basic_stringIcSt11char_traitsIcESaIcEEEEESD_EET_SE_SE_T0_SF_
	movq	%rax, 24(%rbp)
	jmp	.L11
.L17:
	movq	32(%rbp), %rcx
	movq	16(%rbp), %rdx
	leaq	-1(%rbp), %rax
	movq	%rcx, %r8
	movq	%rax, %rcx
	call	_ZN9__gnu_cxx5__ops15_Iter_comp_iterIZNK3cpr22CaseInsensitiveCompareclERKNSt7__cxx1112basic_stringIcSt11char_traitsIcESaIcEEESB_EUlhhE_EclINS_17__normal_iteratorIPKcS9_EESI_EEbT_T0_
	testb	%al, %al
	je	.L12
	movl	$1, %eax
	jmp	.L13
.L12:
	movq	16(%rbp), %rcx
	movq	32(%rbp), %rdx
	leaq	-1(%rbp), %rax
	movq	%rcx, %r8
	movq	%rax, %rcx
	call	_ZN9__gnu_cxx5__ops15_Iter_comp_iterIZNK3cpr22CaseInsensitiveCompareclERKNSt7__cxx1112basic_stringIcSt11char_traitsIcESaIcEEESB_EUlhhE_EclINS_17__normal_iteratorIPKcS9_EESI_EEbT_T0_
	testb	%al, %al
	je	.L14
	movl	$0, %eax
	jmp	.L13
.L14:
	leaq	16(%rbp), %rcx
	call	_ZN9__gnu_cxx17__normal_iteratorIPKcNSt7__cxx1112basic_stringIcSt11char_traitsIcESaIcEEEEppEv
	leaq	32(%rbp), %rax
	movq	%rax, %rcx
	call	_ZN9__gnu_cxx17__normal_iteratorIPKcNSt7__cxx1112basic_stringIcSt11char_traitsIcESaIcEEEEppEv
.L11:
	leaq	24(%rbp), %rax
	movq	%rax, %rdx
	leaq	16(%rbp), %rcx
	call	_ZN9__gnu_cxxneIPKcNSt7__cxx1112basic_stringIcSt11char_traitsIcESaIcEEEEEbRKNS_17__normal_iteratorIT_T0_EESE_
	testb	%al, %al
	je	.L15
	movq	40(%rbp), %rdx
	movq	32(%rbp), %rax
	movq	%rax, %rcx
	call	_ZNSt8__lc_raiISt26random_access_iterator_tagS0_E6__cnd2IN9__gnu_cxx17__normal_iteratorIPKcNSt7__cxx1112basic_stringIcSt11char_traitsIcESaIcEEEEEEEbT_SE_
	testb	%al, %al
	je	.L15
	movl	$1, %eax
	jmp	.L16
.L15:
	movl	$0, %eax
.L16:
	testb	%al, %al
	jne	.L17
	leaq	24(%rbp), %rax
	movq	%rax, %rdx
	leaq	16(%rbp), %rcx
	call	_ZN9__gnu_cxxeqIPKcNSt7__cxx1112basic_stringIcSt11char_traitsIcESaIcEEEEEbRKNS_17__normal_iteratorIT_T0_EESE_
	testb	%al, %al
	je	.L18
	leaq	40(%rbp), %rdx
	leaq	32(%rbp), %rax
	movq	%rax, %rcx
	call	_ZN9__gnu_cxxneIPKcNSt7__cxx1112basic_stringIcSt11char_traitsIcESaIcEEEEEbRKNS_17__normal_iteratorIT_T0_EESE_
	testb	%al, %al
	je	.L18
	movl	$1, %eax
	jmp	.L20
.L18:
	movl	$0, %eax
.L20:
	nop
.L13:
	addq	$48, %rsp
	popq	%rbp
	ret
	.seh_endproc
	.def	_ZSt4moveIRZNK3cpr22CaseInsensitiveCompareclERKNSt7__cxx1112basic_stringIcSt11char_traitsIcESaIcEEES9_EUlhhE_EONSt16remove_referenceIT_E4typeEOSD_;	.scl	3;	.type	32;	.endef
	.seh_proc	_ZSt4moveIRZNK3cpr22CaseInsensitiveCompareclERKNSt7__cxx1112basic_stringIcSt11char_traitsIcESaIcEEES9_EUlhhE_EONSt16remove_referenceIT_E4typeEOSD_
_ZSt4moveIRZNK3cpr22CaseInsensitiveCompareclERKNSt7__cxx1112basic_stringIcSt11char_traitsIcESaIcEEES9_EUlhhE_EONSt16remove_referenceIT_E4typeEOSD_:
.LFB9345:
	pushq	%rbp
	.seh_pushreg	%rbp
	movq	%rsp, %rbp
	.seh_setframe	%rbp, 0
	.seh_endprologue
	movq	%rcx, 16(%rbp)
	movq	16(%rbp), %rax
	popq	%rbp
	ret
	.seh_endproc
	.align 2
	.def	_ZN9__gnu_cxx5__ops15_Iter_comp_iterIZNK3cpr22CaseInsensitiveCompareclERKNSt7__cxx1112basic_stringIcSt11char_traitsIcESaIcEEESB_EUlhhE_EC2ESC_;	.scl	3;	.type	32;	.endef
	.seh_proc	_ZN9__gnu_cxx5__ops15_Iter_comp_iterIZNK3cpr22CaseInsensitiveCompareclERKNSt7__cxx1112basic_stringIcSt11char_traitsIcESaIcEEESB_EUlhhE_EC2ESC_
_ZN9__gnu_cxx5__ops15_Iter_comp_iterIZNK3cpr22CaseInsensitiveCompareclERKNSt7__cxx1112basic_stringIcSt11char_traitsIcESaIcEEESB_EUlhhE_EC2ESC_:
.LFB9347:
	pushq	%rbp
	.seh_pushreg	%rbp
	movq	%rsp, %rbp
	.seh_setframe	%rbp, 0
	subq	$32, %rsp
	.seh_stackalloc	32
	.seh_endprologue
	movq	%rcx, 16(%rbp)
	leaq	24(%rbp), %rax
	movq	%rax, %rcx
	call	_ZSt4moveIRZNK3cpr22CaseInsensitiveCompareclERKNSt7__cxx1112basic_stringIcSt11char_traitsIcESaIcEEES9_EUlhhE_EONSt16remove_referenceIT_E4typeEOSD_
	nop
	addq	$32, %rsp
	popq	%rbp
	ret
	.seh_endproc
	.def	_ZN9__gnu_cxx5__ops15_Iter_comp_iterIZNK3cpr22CaseInsensitiveCompareclERKNSt7__cxx1112basic_stringIcSt11char_traitsIcESaIcEEESB_EUlhhE_EC1ESC_;	.scl	3;	.type	32;	.endef
	.set	_ZN9__gnu_cxx5__ops15_Iter_comp_iterIZNK3cpr22CaseInsensitiveCompareclERKNSt7__cxx1112basic_stringIcSt11char_traitsIcESaIcEEESB_EUlhhE_EC1ESC_,_ZN9__gnu_cxx5__ops15_Iter_comp_iterIZNK3cpr22CaseInsensitiveCompareclERKNSt7__cxx1112basic_stringIcSt11char_traitsIcESaIcEEESB_EUlhhE_EC2ESC_
	.section	.text$_ZNSt8__lc_raiISt26random_access_iterator_tagS0_E10__newlast1IN9__gnu_cxx17__normal_iteratorIPKcNSt7__cxx1112basic_stringIcSt11char_traitsIcESaIcEEEEESD_EET_SE_SE_T0_SF_,"x"
	.linkonce discard
	.globl	_ZNSt8__lc_raiISt26random_access_iterator_tagS0_E10__newlast1IN9__gnu_cxx17__normal_iteratorIPKcNSt7__cxx1112basic_stringIcSt11char_traitsIcESaIcEEEEESD_EET_SE_SE_T0_SF_
	.def	_ZNSt8__lc_raiISt26random_access_iterator_tagS0_E10__newlast1IN9__gnu_cxx17__normal_iteratorIPKcNSt7__cxx1112basic_stringIcSt11char_traitsIcESaIcEEEEESD_EET_SE_SE_T0_SF_;	.scl	2;	.type	32;	.endef
	.seh_proc	_ZNSt8__lc_raiISt26random_access_iterator_tagS0_E10__newlast1IN9__gnu_cxx17__normal_iteratorIPKcNSt7__cxx1112basic_stringIcSt11char_traitsIcESaIcEEEEESD_EET_SE_SE_T0_SF_
_ZNSt8__lc_raiISt26random_access_iterator_tagS0_E10__newlast1IN9__gnu_cxx17__normal_iteratorIPKcNSt7__cxx1112basic_stringIcSt11char_traitsIcESaIcEEEEESD_EET_SE_SE_T0_SF_:
.LFB9349:
	pushq	%rbp
	.seh_pushreg	%rbp
	movq	%rsp, %rbp
	.seh_setframe	%rbp, 0
	subq	$48, %rsp
	.seh_stackalloc	48
	.seh_endprologue
	movq	%rcx, 16(%rbp)
	movq	%rdx, 24(%rbp)
	movq	%r8, 32(%rbp)
	movq	%r9, 40(%rbp)
	leaq	24(%rbp), %rax
	leaq	16(%rbp), %rdx
	movq	%rax, %rcx
	call	_ZN9__gnu_cxxmiIPKcNSt7__cxx1112basic_stringIcSt11char_traitsIcESaIcEEEEENS_17__normal_iteratorIT_T0_E15difference_typeERKSC_SF_
	movq	%rax, -8(%rbp)
	leaq	32(%rbp), %rdx
	leaq	40(%rbp), %rax
	movq	%rax, %rcx
	call	_ZN9__gnu_cxxmiIPKcNSt7__cxx1112basic_stringIcSt11char_traitsIcESaIcEEEEENS_17__normal_iteratorIT_T0_E15difference_typeERKSC_SF_
	movq	%rax, -16(%rbp)
	movq	-16(%rbp), %rax
	cmpq	-8(%rbp), %rax
	jge	.L25
	movq	-16(%rbp), %rax
	movq	%rax, %rdx
	leaq	16(%rbp), %rcx
	call	_ZNK9__gnu_cxx17__normal_iteratorIPKcNSt7__cxx1112basic_stringIcSt11char_traitsIcESaIcEEEEplEx
	jmp	.L27
.L25:
	movq	24(%rbp), %rax
.L27:
	addq	$48, %rsp
	popq	%rbp
	ret
	.seh_endproc
	.section	.text$_ZN9__gnu_cxxneIPKcNSt7__cxx1112basic_stringIcSt11char_traitsIcESaIcEEEEEbRKNS_17__normal_iteratorIT_T0_EESE_,"x"
	.linkonce discard
	.globl	_ZN9__gnu_cxxneIPKcNSt7__cxx1112basic_stringIcSt11char_traitsIcESaIcEEEEEbRKNS_17__normal_iteratorIT_T0_EESE_
	.def	_ZN9__gnu_cxxneIPKcNSt7__cxx1112basic_stringIcSt11char_traitsIcESaIcEEEEEbRKNS_17__normal_iteratorIT_T0_EESE_;	.scl	2;	.type	32;	.endef
	.seh_proc	_ZN9__gnu_cxxneIPKcNSt7__cxx1112basic_stringIcSt11char_traitsIcESaIcEEEEEbRKNS_17__normal_iteratorIT_T0_EESE_
_ZN9__gnu_cxxneIPKcNSt7__cxx1112basic_stringIcSt11char_traitsIcESaIcEEEEEbRKNS_17__normal_iteratorIT_T0_EESE_:
.LFB9350:
	pushq	%rbp
	.seh_pushreg	%rbp
	pushq	%rbx
	.seh_pushreg	%rbx
	subq	$40, %rsp
	.seh_stackalloc	40
	leaq	32(%rsp), %rbp
	.seh_setframe	%rbp, 32
	.seh_endprologue
	movq	%rcx, 32(%rbp)
	movq	%rdx, 40(%rbp)
	movq	32(%rbp), %rax
	movq	%rax, %rcx
	call	_ZNK9__gnu_cxx17__normal_iteratorIPKcNSt7__cxx1112basic_stringIcSt11char_traitsIcESaIcEEEE4baseEv
	movq	(%rax), %rbx
	movq	40(%rbp), %rax
	movq	%rax, %rcx
	call	_ZNK9__gnu_cxx17__normal_iteratorIPKcNSt7__cxx1112basic_stringIcSt11char_traitsIcESaIcEEEE4baseEv
	movq	(%rax), %rax
	cmpq	%rax, %rbx
	setne	%al
	addq	$40, %rsp
	popq	%rbx
	popq	%rbp
	ret
	.seh_endproc
	.section	.text$_ZNSt8__lc_raiISt26random_access_iterator_tagS0_E6__cnd2IN9__gnu_cxx17__normal_iteratorIPKcNSt7__cxx1112basic_stringIcSt11char_traitsIcESaIcEEEEEEEbT_SE_,"x"
	.linkonce discard
	.globl	_ZNSt8__lc_raiISt26random_access_iterator_tagS0_E6__cnd2IN9__gnu_cxx17__normal_iteratorIPKcNSt7__cxx1112basic_stringIcSt11char_traitsIcESaIcEEEEEEEbT_SE_
	.def	_ZNSt8__lc_raiISt26random_access_iterator_tagS0_E6__cnd2IN9__gnu_cxx17__normal_iteratorIPKcNSt7__cxx1112basic_stringIcSt11char_traitsIcESaIcEEEEEEEbT_SE_;	.scl	2;	.type	32;	.endef
	.seh_proc	_ZNSt8__lc_raiISt26random_access_iterator_tagS0_E6__cnd2IN9__gnu_cxx17__normal_iteratorIPKcNSt7__cxx1112basic_stringIcSt11char_traitsIcESaIcEEEEEEEbT_SE_
_ZNSt8__lc_raiISt26random_access_iterator_tagS0_E6__cnd2IN9__gnu_cxx17__normal_iteratorIPKcNSt7__cxx1112basic_stringIcSt11char_traitsIcESaIcEEEEEEEbT_SE_:
.LFB9351:
	pushq	%rbp
	.seh_pushreg	%rbp
	movq	%rsp, %rbp
	.seh_setframe	%rbp, 0
	.seh_endprologue
	movq	%rcx, 16(%rbp)
	movq	%rdx, 24(%rbp)
	movl	$1, %eax
	popq	%rbp
	ret
	.seh_endproc
	.section	.text$_ZN9__gnu_cxx17__normal_iteratorIPKcNSt7__cxx1112basic_stringIcSt11char_traitsIcESaIcEEEEppEv,"x"
	.linkonce discard
	.align 2
	.globl	_ZN9__gnu_cxx17__normal_iteratorIPKcNSt7__cxx1112basic_stringIcSt11char_traitsIcESaIcEEEEppEv
	.def	_ZN9__gnu_cxx17__normal_iteratorIPKcNSt7__cxx1112basic_stringIcSt11char_traitsIcESaIcEEEEppEv;	.scl	2;	.type	32;	.endef
	.seh_proc	_ZN9__gnu_cxx17__normal_iteratorIPKcNSt7__cxx1112basic_stringIcSt11char_traitsIcESaIcEEEEppEv
_ZN9__gnu_cxx17__normal_iteratorIPKcNSt7__cxx1112basic_stringIcSt11char_traitsIcESaIcEEEEppEv:
.LFB9352:
	pushq	%rbp
	.seh_pushreg	%rbp
	movq	%rsp, %rbp
	.seh_setframe	%rbp, 0
	.seh_endprologue
	movq	%rcx, 16(%rbp)
	movq	16(%rbp), %rax
	movq	(%rax), %rax
	leaq	1(%rax), %rdx
	movq	16(%rbp), %rax
	movq	%rdx, (%rax)
	movq	16(%rbp), %rax
	popq	%rbp
	ret
	.seh_endproc
	.text
	.align 2
	.def	_ZN9__gnu_cxx5__ops15_Iter_comp_iterIZNK3cpr22CaseInsensitiveCompareclERKNSt7__cxx1112basic_stringIcSt11char_traitsIcESaIcEEESB_EUlhhE_EclINS_17__normal_iteratorIPKcS9_EESI_EEbT_T0_;	.scl	3;	.type	32;	.endef
	.seh_proc	_ZN9__gnu_cxx5__ops15_Iter_comp_iterIZNK3cpr22CaseInsensitiveCompareclERKNSt7__cxx1112basic_stringIcSt11char_traitsIcESaIcEEESB_EUlhhE_EclINS_17__normal_iteratorIPKcS9_EESI_EEbT_T0_
_ZN9__gnu_cxx5__ops15_Iter_comp_iterIZNK3cpr22CaseInsensitiveCompareclERKNSt7__cxx1112basic_stringIcSt11char_traitsIcESaIcEEESB_EUlhhE_EclINS_17__normal_iteratorIPKcS9_EESI_EEbT_T0_:
.LFB9353:
	pushq	%rbp
	.seh_pushreg	%rbp
	pushq	%rsi
	.seh_pushreg	%rsi
	pushq	%rbx
	.seh_pushreg	%rbx
	subq	$32, %rsp
	.seh_stackalloc	32
	leaq	32(%rsp), %rbp
	.seh_setframe	%rbp, 32
	.seh_endprologue
	movq	%rcx, 32(%rbp)
	movq	%rdx, 40(%rbp)
	movq	%r8, 48(%rbp)
	movq	32(%rbp), %rbx
	leaq	48(%rbp), %rax
	movq	%rax, %rcx
	call	_ZNK9__gnu_cxx17__normal_iteratorIPKcNSt7__cxx1112basic_stringIcSt11char_traitsIcESaIcEEEEdeEv
	movzbl	(%rax), %eax
	movzbl	%al, %esi
	leaq	40(%rbp), %rax
	movq	%rax, %rcx
	call	_ZNK9__gnu_cxx17__normal_iteratorIPKcNSt7__cxx1112basic_stringIcSt11char_traitsIcESaIcEEEEdeEv
	movzbl	(%rax), %eax
	movzbl	%al, %eax
	movl	%esi, %r8d
	movl	%eax, %edx
	movq	%rbx, %rcx
	call	_ZZNK3cpr22CaseInsensitiveCompareclERKNSt7__cxx1112basic_stringIcSt11char_traitsIcESaIcEEES8_ENKUlhhE_clEhh
	addq	$32, %rsp
	popq	%rbx
	popq	%rsi
	popq	%rbp
	ret
	.seh_endproc
	.section	.text$_ZN9__gnu_cxxeqIPKcNSt7__cxx1112basic_stringIcSt11char_traitsIcESaIcEEEEEbRKNS_17__normal_iteratorIT_T0_EESE_,"x"
	.linkonce discard
	.globl	_ZN9__gnu_cxxeqIPKcNSt7__cxx1112basic_stringIcSt11char_traitsIcESaIcEEEEEbRKNS_17__normal_iteratorIT_T0_EESE_
	.def	_ZN9__gnu_cxxeqIPKcNSt7__cxx1112basic_stringIcSt11char_traitsIcESaIcEEEEEbRKNS_17__normal_iteratorIT_T0_EESE_;	.scl	2;	.type	32;	.endef
	.seh_proc	_ZN9__gnu_cxxeqIPKcNSt7__cxx1112basic_stringIcSt11char_traitsIcESaIcEEEEEbRKNS_17__normal_iteratorIT_T0_EESE_
_ZN9__gnu_cxxeqIPKcNSt7__cxx1112basic_stringIcSt11char_traitsIcESaIcEEEEEbRKNS_17__normal_iteratorIT_T0_EESE_:
.LFB9354:
	pushq	%rbp
	.seh_pushreg	%rbp
	pushq	%rbx
	.seh_pushreg	%rbx
	subq	$40, %rsp
	.seh_stackalloc	40
	leaq	32(%rsp), %rbp
	.seh_setframe	%rbp, 32
	.seh_endprologue
	movq	%rcx, 32(%rbp)
	movq	%rdx, 40(%rbp)
	movq	32(%rbp), %rax
	movq	%rax, %rcx
	call	_ZNK9__gnu_cxx17__normal_iteratorIPKcNSt7__cxx1112basic_stringIcSt11char_traitsIcESaIcEEEE4baseEv
	movq	(%rax), %rbx
	movq	40(%rbp), %rax
	movq	%rax, %rcx
	call	_ZNK9__gnu_cxx17__normal_iteratorIPKcNSt7__cxx1112basic_stringIcSt11char_traitsIcESaIcEEEE4baseEv
	movq	(%rax), %rax
	cmpq	%rax, %rbx
	sete	%al
	addq	$40, %rsp
	popq	%rbx
	popq	%rbp
	ret
	.seh_endproc
	.section	.text$_ZN9__gnu_cxxmiIPKcNSt7__cxx1112basic_stringIcSt11char_traitsIcESaIcEEEEENS_17__normal_iteratorIT_T0_E15difference_typeERKSC_SF_,"x"
	.linkonce discard
	.globl	_ZN9__gnu_cxxmiIPKcNSt7__cxx1112basic_stringIcSt11char_traitsIcESaIcEEEEENS_17__normal_iteratorIT_T0_E15difference_typeERKSC_SF_
	.def	_ZN9__gnu_cxxmiIPKcNSt7__cxx1112basic_stringIcSt11char_traitsIcESaIcEEEEENS_17__normal_iteratorIT_T0_E15difference_typeERKSC_SF_;	.scl	2;	.type	32;	.endef
	.seh_proc	_ZN9__gnu_cxxmiIPKcNSt7__cxx1112basic_stringIcSt11char_traitsIcESaIcEEEEENS_17__normal_iteratorIT_T0_E15difference_typeERKSC_SF_
_ZN9__gnu_cxxmiIPKcNSt7__cxx1112basic_stringIcSt11char_traitsIcESaIcEEEEENS_17__normal_iteratorIT_T0_E15difference_typeERKSC_SF_:
.LFB9407:
	pushq	%rbp
	.seh_pushreg	%rbp
	pushq	%rbx
	.seh_pushreg	%rbx
	subq	$40, %rsp
	.seh_stackalloc	40
	leaq	32(%rsp), %rbp
	.seh_setframe	%rbp, 32
	.seh_endprologue
	movq	%rcx, 32(%rbp)
	movq	%rdx, 40(%rbp)
	movq	32(%rbp), %rax
	movq	%rax, %rcx
	call	_ZNK9__gnu_cxx17__normal_iteratorIPKcNSt7__cxx1112basic_stringIcSt11char_traitsIcESaIcEEEE4baseEv
	movq	(%rax), %rbx
	movq	40(%rbp), %rax
	movq	%rax, %rcx
	call	_ZNK9__gnu_cxx17__normal_iteratorIPKcNSt7__cxx1112basic_stringIcSt11char_traitsIcESaIcEEEE4baseEv
	movq	(%rax), %rax
	subq	%rax, %rbx
	movq	%rbx, %rdx
	movq	%rdx, %rax
	addq	$40, %rsp
	popq	%rbx
	popq	%rbp
	ret
	.seh_endproc
	.section	.text$_ZNK9__gnu_cxx17__normal_iteratorIPKcNSt7__cxx1112basic_stringIcSt11char_traitsIcESaIcEEEEplEx,"x"
	.linkonce discard
	.align 2
	.globl	_ZNK9__gnu_cxx17__normal_iteratorIPKcNSt7__cxx1112basic_stringIcSt11char_traitsIcESaIcEEEEplEx
	.def	_ZNK9__gnu_cxx17__normal_iteratorIPKcNSt7__cxx1112basic_stringIcSt11char_traitsIcESaIcEEEEplEx;	.scl	2;	.type	32;	.endef
	.seh_proc	_ZNK9__gnu_cxx17__normal_iteratorIPKcNSt7__cxx1112basic_stringIcSt11char_traitsIcESaIcEEEEplEx
_ZNK9__gnu_cxx17__normal_iteratorIPKcNSt7__cxx1112basic_stringIcSt11char_traitsIcESaIcEEEEplEx:
.LFB9408:
	pushq	%rbp
	.seh_pushreg	%rbp
	movq	%rsp, %rbp
	.seh_setframe	%rbp, 0
	subq	$48, %rsp
	.seh_stackalloc	48
	.seh_endprologue
	movq	%rcx, 16(%rbp)
	movq	%rdx, 24(%rbp)
	movq	16(%rbp), %rax
	movq	(%rax), %rdx
	movq	24(%rbp), %rax
	addq	%rdx, %rax
	movq	%rax, -8(%rbp)
	leaq	-8(%rbp), %rdx
	leaq	-16(%rbp), %rax
	movq	%rax, %rcx
	call	_ZN9__gnu_cxx17__normal_iteratorIPKcNSt7__cxx1112basic_stringIcSt11char_traitsIcESaIcEEEEC1ERKS2_
	movq	-16(%rbp), %rax
	addq	$48, %rsp
	popq	%rbp
	ret
	.seh_endproc
	.section	.text$_ZNK9__gnu_cxx17__normal_iteratorIPKcNSt7__cxx1112basic_stringIcSt11char_traitsIcESaIcEEEE4baseEv,"x"
	.linkonce discard
	.align 2
	.globl	_ZNK9__gnu_cxx17__normal_iteratorIPKcNSt7__cxx1112basic_stringIcSt11char_traitsIcESaIcEEEE4baseEv
	.def	_ZNK9__gnu_cxx17__normal_iteratorIPKcNSt7__cxx1112basic_stringIcSt11char_traitsIcESaIcEEEE4baseEv;	.scl	2;	.type	32;	.endef
	.seh_proc	_ZNK9__gnu_cxx17__normal_iteratorIPKcNSt7__cxx1112basic_stringIcSt11char_traitsIcESaIcEEEE4baseEv
_ZNK9__gnu_cxx17__normal_iteratorIPKcNSt7__cxx1112basic_stringIcSt11char_traitsIcESaIcEEEE4baseEv:
.LFB9409:
	pushq	%rbp
	.seh_pushreg	%rbp
	movq	%rsp, %rbp
	.seh_setframe	%rbp, 0
	.seh_endprologue
	movq	%rcx, 16(%rbp)
	movq	16(%rbp), %rax
	popq	%rbp
	ret
	.seh_endproc
	.section	.text$_ZNK9__gnu_cxx17__normal_iteratorIPKcNSt7__cxx1112basic_stringIcSt11char_traitsIcESaIcEEEEdeEv,"x"
	.linkonce discard
	.align 2
	.globl	_ZNK9__gnu_cxx17__normal_iteratorIPKcNSt7__cxx1112basic_stringIcSt11char_traitsIcESaIcEEEEdeEv
	.def	_ZNK9__gnu_cxx17__normal_iteratorIPKcNSt7__cxx1112basic_stringIcSt11char_traitsIcESaIcEEEEdeEv;	.scl	2;	.type	32;	.endef
	.seh_proc	_ZNK9__gnu_cxx17__normal_iteratorIPKcNSt7__cxx1112basic_stringIcSt11char_traitsIcESaIcEEEEdeEv
_ZNK9__gnu_cxx17__normal_iteratorIPKcNSt7__cxx1112basic_stringIcSt11char_traitsIcESaIcEEEEdeEv:
.LFB9410:
	pushq	%rbp
	.seh_pushreg	%rbp
	movq	%rsp, %rbp
	.seh_setframe	%rbp, 0
	.seh_endprologue
	movq	%rcx, 16(%rbp)
	movq	16(%rbp), %rax
	movq	(%rax), %rax
	popq	%rbp
	ret
	.seh_endproc
	.section .rdata,"dr"
_ZNSt8__detail30__integer_to_chars_is_unsignedIjEE:
	.byte	1
_ZNSt8__detail30__integer_to_chars_is_unsignedImEE:
	.byte	1
_ZNSt8__detail30__integer_to_chars_is_unsignedIyEE:
	.byte	1
	.def	__gxx_personality_seh0;	.scl	2;	.type	32;	.endef
	.ident	"GCC: (MinGW-W64 x86_64-ucrt-posix-seh, built by Brecht Sanders, r1) 14.2.0"
	.def	_ZNKSt7__cxx1112basic_stringIcSt11char_traitsIcESaIcEE3endEv;	.scl	2;	.type	32;	.endef
	.def	_ZNKSt7__cxx1112basic_stringIcSt11char_traitsIcESaIcEE5beginEv;	.scl	2;	.type	32;	.endef
