	.file	"curl_container.cpp"
	.text
	.section	.text$_ZnwyPv,"x"
	.linkonce discard
	.globl	_ZnwyPv
	.def	_ZnwyPv;	.scl	2;	.type	32;	.endef
	.seh_proc	_ZnwyPv
_ZnwyPv:
.LFB19:
	pushq	%rbp
	.seh_pushreg	%rbp
	movq	%rsp, %rbp
	.seh_setframe	%rbp, 0
	.seh_endprologue
	movq	%rcx, 16(%rbp)
	movq	%rdx, 24(%rbp)
	movq	24(%rbp), %rax
	popq	%rbp
	ret
	.seh_endproc
	.section	.text$_ZdlPvS_,"x"
	.linkonce discard
	.globl	_ZdlPvS_
	.def	_ZdlPvS_;	.scl	2;	.type	32;	.endef
	.seh_proc	_ZdlPvS_
_ZdlPvS_:
.LFB21:
	pushq	%rbp
	.seh_pushreg	%rbp
	movq	%rsp, %rbp
	.seh_setframe	%rbp, 0
	.seh_endprologue
	movq	%rcx, 16(%rbp)
	movq	%rdx, 24(%rbp)
	nop
	popq	%rbp
	ret
	.seh_endproc
	.section	.text$_ZNSt11char_traitsIcE6lengthEPKc,"x"
	.linkonce discard
	.globl	_ZNSt11char_traitsIcE6lengthEPKc
	.def	_ZNSt11char_traitsIcE6lengthEPKc;	.scl	2;	.type	32;	.endef
	.seh_proc	_ZNSt11char_traitsIcE6lengthEPKc
_ZNSt11char_traitsIcE6lengthEPKc:
.LFB1710:
	pushq	%rbp
	.seh_pushreg	%rbp
	movq	%rsp, %rbp
	.seh_setframe	%rbp, 0
	subq	$32, %rsp
	.seh_stackalloc	32
	.seh_endprologue
	movq	%rcx, 16(%rbp)
	movl	$0, %eax
	testb	%al, %al
	je	.L6
	movq	16(%rbp), %rax
	movq	%rax, %rcx
	call	_ZN9__gnu_cxx11char_traitsIcE6lengthEPKc
	jmp	.L7
.L6:
	movq	16(%rbp), %rax
	movq	%rax, %rcx
	call	strlen
	nop
.L7:
	addq	$32, %rsp
	popq	%rbp
	ret
	.seh_endproc
	.section .rdata,"dr"
.LC0:
	.ascii "&\0"
.LC1:
	.ascii "=\0"
	.text
	.align 2
	.globl	_ZNK3cpr13CurlContainerINS_9ParameterEE10GetContentB5cxx11ERKNS_10CurlHolderE
	.def	_ZNK3cpr13CurlContainerINS_9ParameterEE10GetContentB5cxx11ERKNS_10CurlHolderE;	.scl	2;	.type	32;	.endef
	.seh_proc	_ZNK3cpr13CurlContainerINS_9ParameterEE10GetContentB5cxx11ERKNS_10CurlHolderE
_ZNK3cpr13CurlContainerINS_9ParameterEE10GetContentB5cxx11ERKNS_10CurlHolderE:
.LFB9476:
	pushq	%rbp
	.seh_pushreg	%rbp
	pushq	%rbx
	.seh_pushreg	%rbx
	subq	$168, %rsp
	.seh_stackalloc	168
	leaq	160(%rsp), %rbp
	.seh_setframe	%rbp, 160
	.seh_endprologue
	movq	%rcx, 32(%rbp)
	movq	%rdx, 40(%rbp)
	movq	%r8, 48(%rbp)
	movq	32(%rbp), %rax
	movq	%rax, %rcx
	call	_ZNSt7__cxx1112basic_stringIcSt11char_traitsIcESaIcEEC1Ev
	movq	40(%rbp), %rax
	addq	$8, %rax
	movq	%rax, -8(%rbp)
	movq	-8(%rbp), %rax
	movq	%rax, %rcx
	call	_ZNKSt6vectorIN3cpr9ParameterESaIS1_EE5beginEv
	movq	%rax, -56(%rbp)
	movq	-8(%rbp), %rax
	movq	%rax, %rcx
	call	_ZNKSt6vectorIN3cpr9ParameterESaIS1_EE3endEv
	movq	%rax, -64(%rbp)
	jmp	.L9
.L17:
	leaq	-56(%rbp), %rax
	movq	%rax, %rcx
	call	_ZNK9__gnu_cxx17__normal_iteratorIPKN3cpr9ParameterESt6vectorIS2_SaIS2_EEEdeEv
	movq	%rax, -16(%rbp)
	movq	32(%rbp), %rax
	movq	%rax, %rcx
	call	_ZNKSt7__cxx1112basic_stringIcSt11char_traitsIcESaIcEE5emptyEv
	xorl	$1, %eax
	testb	%al, %al
	je	.L10
	movq	32(%rbp), %rax
	leaq	.LC0(%rip), %rdx
	movq	%rax, %rcx
.LEHB0:
	call	_ZNSt7__cxx1112basic_stringIcSt11char_traitsIcESaIcEEpLEPKc
.L10:
	movq	40(%rbp), %rax
	movzbl	(%rax), %eax
	testb	%al, %al
	je	.L11
	movq	-16(%rbp), %rcx
	leaq	-128(%rbp), %rax
	movq	48(%rbp), %rdx
	movq	%rcx, %r8
	movq	%rax, %rcx
	call	_ZNK3cpr10CurlHolder9urlEncodeERKNSt7__cxx1112basic_stringIcSt11char_traitsIcESaIcEEE
	jmp	.L12
.L11:
	movq	-16(%rbp), %rdx
	leaq	-128(%rbp), %rax
	movq	%rax, %rcx
	call	_ZNSt7__cxx1112basic_stringIcSt11char_traitsIcESaIcEEC1ERKS4_
.LEHE0:
.L12:
	movq	-16(%rbp), %rax
	addq	$32, %rax
	movq	%rax, %rcx
	call	_ZNKSt7__cxx1112basic_stringIcSt11char_traitsIcESaIcEE5emptyEv
	testb	%al, %al
	je	.L13
	leaq	-128(%rbp), %rdx
	movq	32(%rbp), %rax
	movq	%rax, %rcx
.LEHB1:
	call	_ZNSt7__cxx1112basic_stringIcSt11char_traitsIcESaIcEEpLERKS4_
	jmp	.L14
.L13:
	movq	40(%rbp), %rax
	movzbl	(%rax), %eax
	testb	%al, %al
	je	.L15
	movq	-16(%rbp), %rax
	leaq	32(%rax), %rcx
	leaq	-96(%rbp), %rax
	movq	48(%rbp), %rdx
	movq	%rcx, %r8
	movq	%rax, %rcx
	call	_ZNK3cpr10CurlHolder9urlEncodeERKNSt7__cxx1112basic_stringIcSt11char_traitsIcESaIcEEE
	jmp	.L16
.L15:
	movq	-16(%rbp), %rax
	leaq	32(%rax), %rdx
	leaq	-96(%rbp), %rax
	movq	%rax, %rcx
	call	_ZNSt7__cxx1112basic_stringIcSt11char_traitsIcESaIcEEC1ERKS4_
.LEHE1:
.L16:
	leaq	-48(%rbp), %rax
	leaq	-128(%rbp), %rdx
	leaq	.LC1(%rip), %r8
	movq	%rax, %rcx
.LEHB2:
	call	_ZStplIcSt11char_traitsIcESaIcEENSt7__cxx1112basic_stringIT_T0_T1_EERKS8_PKS5_
.LEHE2:
	leaq	-48(%rbp), %rdx
	movq	32(%rbp), %rax
	movq	%rax, %rcx
.LEHB3:
	call	_ZNSt7__cxx1112basic_stringIcSt11char_traitsIcESaIcEEpLERKS4_
.LEHE3:
	leaq	-48(%rbp), %rax
	movq	%rax, %rcx
	call	_ZNSt7__cxx1112basic_stringIcSt11char_traitsIcESaIcEED1Ev
	leaq	-96(%rbp), %rdx
	movq	32(%rbp), %rax
	movq	%rax, %rcx
.LEHB4:
	call	_ZNSt7__cxx1112basic_stringIcSt11char_traitsIcESaIcEEpLERKS4_
.LEHE4:
	leaq	-96(%rbp), %rax
	movq	%rax, %rcx
	call	_ZNSt7__cxx1112basic_stringIcSt11char_traitsIcESaIcEED1Ev
.L14:
	leaq	-128(%rbp), %rax
	movq	%rax, %rcx
	call	_ZNSt7__cxx1112basic_stringIcSt11char_traitsIcESaIcEED1Ev
	leaq	-56(%rbp), %rax
	movq	%rax, %rcx
	call	_ZN9__gnu_cxx17__normal_iteratorIPKN3cpr9ParameterESt6vectorIS2_SaIS2_EEEppEv
.L9:
	leaq	-64(%rbp), %rdx
	leaq	-56(%rbp), %rax
	movq	%rax, %rcx
	call	_ZN9__gnu_cxxneIPKN3cpr9ParameterESt6vectorIS2_SaIS2_EEEEbRKNS_17__normal_iteratorIT_T0_EESD_
	testb	%al, %al
	jne	.L17
	jmp	.L27
.L25:
	movq	%rax, %rbx
	leaq	-48(%rbp), %rax
	movq	%rax, %rcx
	call	_ZNSt7__cxx1112basic_stringIcSt11char_traitsIcESaIcEED1Ev
	jmp	.L20
.L26:
	movq	%rax, %rbx
.L20:
	leaq	-96(%rbp), %rax
	movq	%rax, %rcx
	call	_ZNSt7__cxx1112basic_stringIcSt11char_traitsIcESaIcEED1Ev
	jmp	.L21
.L24:
	movq	%rax, %rbx
.L21:
	leaq	-128(%rbp), %rax
	movq	%rax, %rcx
	call	_ZNSt7__cxx1112basic_stringIcSt11char_traitsIcESaIcEED1Ev
	jmp	.L22
.L23:
	movq	%rax, %rbx
.L22:
	movq	32(%rbp), %rax
	movq	%rax, %rcx
	call	_ZNSt7__cxx1112basic_stringIcSt11char_traitsIcESaIcEED1Ev
	movq	%rbx, %rax
	movq	%rax, %rcx
.LEHB5:
	call	_Unwind_Resume
.LEHE5:
.L27:
	movq	32(%rbp), %rax
	addq	$168, %rsp
	popq	%rbx
	popq	%rbp
	ret
	.seh_handler	__gxx_personality_seh0, @unwind, @except
	.seh_handlerdata
.LLSDA9476:
	.byte	0xff
	.byte	0xff
	.byte	0x1
	.uleb128 .LLSDACSE9476-.LLSDACSB9476
.LLSDACSB9476:
	.uleb128 .LEHB0-.LFB9476
	.uleb128 .LEHE0-.LEHB0
	.uleb128 .L23-.LFB9476
	.uleb128 0
	.uleb128 .LEHB1-.LFB9476
	.uleb128 .LEHE1-.LEHB1
	.uleb128 .L24-.LFB9476
	.uleb128 0
	.uleb128 .LEHB2-.LFB9476
	.uleb128 .LEHE2-.LEHB2
	.uleb128 .L26-.LFB9476
	.uleb128 0
	.uleb128 .LEHB3-.LFB9476
	.uleb128 .LEHE3-.LEHB3
	.uleb128 .L25-.LFB9476
	.uleb128 0
	.uleb128 .LEHB4-.LFB9476
	.uleb128 .LEHE4-.LEHB4
	.uleb128 .L26-.LFB9476
	.uleb128 0
	.uleb128 .LEHB5-.LFB9476
	.uleb128 .LEHE5-.LEHB5
	.uleb128 0
	.uleb128 0
.LLSDACSE9476:
	.text
	.seh_endproc
	.align 2
	.globl	_ZNK3cpr13CurlContainerINS_4PairEE10GetContentB5cxx11ERKNS_10CurlHolderE
	.def	_ZNK3cpr13CurlContainerINS_4PairEE10GetContentB5cxx11ERKNS_10CurlHolderE;	.scl	2;	.type	32;	.endef
	.seh_proc	_ZNK3cpr13CurlContainerINS_4PairEE10GetContentB5cxx11ERKNS_10CurlHolderE
_ZNK3cpr13CurlContainerINS_4PairEE10GetContentB5cxx11ERKNS_10CurlHolderE:
.LFB9477:
	pushq	%rbp
	.seh_pushreg	%rbp
	pushq	%rbx
	.seh_pushreg	%rbx
	subq	$168, %rsp
	.seh_stackalloc	168
	leaq	160(%rsp), %rbp
	.seh_setframe	%rbp, 160
	.seh_endprologue
	movq	%rcx, 32(%rbp)
	movq	%rdx, 40(%rbp)
	movq	%r8, 48(%rbp)
	movq	32(%rbp), %rax
	movq	%rax, %rcx
	call	_ZNSt7__cxx1112basic_stringIcSt11char_traitsIcESaIcEEC1Ev
	movq	40(%rbp), %rax
	addq	$8, %rax
	movq	%rax, -8(%rbp)
	movq	-8(%rbp), %rax
	movq	%rax, %rcx
	call	_ZNKSt6vectorIN3cpr4PairESaIS1_EE5beginEv
	movq	%rax, -88(%rbp)
	movq	-8(%rbp), %rax
	movq	%rax, %rcx
	call	_ZNKSt6vectorIN3cpr4PairESaIS1_EE3endEv
	movq	%rax, -96(%rbp)
	jmp	.L29
.L33:
	leaq	-88(%rbp), %rax
	movq	%rax, %rcx
	call	_ZNK9__gnu_cxx17__normal_iteratorIPKN3cpr4PairESt6vectorIS2_SaIS2_EEEdeEv
	movq	%rax, -16(%rbp)
	movq	32(%rbp), %rax
	movq	%rax, %rcx
	call	_ZNKSt7__cxx1112basic_stringIcSt11char_traitsIcESaIcEE5emptyEv
	xorl	$1, %eax
	testb	%al, %al
	je	.L30
	movq	32(%rbp), %rax
	leaq	.LC0(%rip), %rdx
	movq	%rax, %rcx
.LEHB6:
	call	_ZNSt7__cxx1112basic_stringIcSt11char_traitsIcESaIcEEpLEPKc
.L30:
	movq	40(%rbp), %rax
	movzbl	(%rax), %eax
	testb	%al, %al
	je	.L31
	movq	-16(%rbp), %rax
	leaq	32(%rax), %rcx
	leaq	-128(%rbp), %rax
	movq	48(%rbp), %rdx
	movq	%rcx, %r8
	movq	%rax, %rcx
	call	_ZNK3cpr10CurlHolder9urlEncodeERKNSt7__cxx1112basic_stringIcSt11char_traitsIcESaIcEEE
	jmp	.L32
.L31:
	movq	-16(%rbp), %rax
	leaq	32(%rax), %rdx
	leaq	-128(%rbp), %rax
	movq	%rax, %rcx
	call	_ZNSt7__cxx1112basic_stringIcSt11char_traitsIcESaIcEEC1ERKS4_
.LEHE6:
.L32:
	movq	-16(%rbp), %rdx
	leaq	-48(%rbp), %rax
	leaq	.LC1(%rip), %r8
	movq	%rax, %rcx
.LEHB7:
	call	_ZStplIcSt11char_traitsIcESaIcEENSt7__cxx1112basic_stringIT_T0_T1_EERKS8_PKS5_
.LEHE7:
	leaq	-80(%rbp), %rax
	leaq	-128(%rbp), %rcx
	leaq	-48(%rbp), %rdx
	movq	%rcx, %r8
	movq	%rax, %rcx
.LEHB8:
	call	_ZStplIcSt11char_traitsIcESaIcEENSt7__cxx1112basic_stringIT_T0_T1_EEOS8_RKS8_
.LEHE8:
	leaq	-80(%rbp), %rdx
	movq	32(%rbp), %rax
	movq	%rax, %rcx
.LEHB9:
	call	_ZNSt7__cxx1112basic_stringIcSt11char_traitsIcESaIcEEpLERKS4_
.LEHE9:
	leaq	-80(%rbp), %rax
	movq	%rax, %rcx
	call	_ZNSt7__cxx1112basic_stringIcSt11char_traitsIcESaIcEED1Ev
	leaq	-48(%rbp), %rax
	movq	%rax, %rcx
	call	_ZNSt7__cxx1112basic_stringIcSt11char_traitsIcESaIcEED1Ev
	leaq	-128(%rbp), %rax
	movq	%rax, %rcx
	call	_ZNSt7__cxx1112basic_stringIcSt11char_traitsIcESaIcEED1Ev
	leaq	-88(%rbp), %rax
	movq	%rax, %rcx
	call	_ZN9__gnu_cxx17__normal_iteratorIPKN3cpr4PairESt6vectorIS2_SaIS2_EEEppEv
.L29:
	leaq	-96(%rbp), %rdx
	leaq	-88(%rbp), %rax
	movq	%rax, %rcx
	call	_ZN9__gnu_cxxneIPKN3cpr4PairESt6vectorIS2_SaIS2_EEEEbRKNS_17__normal_iteratorIT_T0_EESD_
	testb	%al, %al
	jne	.L33
	jmp	.L43
.L42:
	movq	%rax, %rbx
	leaq	-80(%rbp), %rax
	movq	%rax, %rcx
	call	_ZNSt7__cxx1112basic_stringIcSt11char_traitsIcESaIcEED1Ev
	jmp	.L36
.L41:
	movq	%rax, %rbx
.L36:
	leaq	-48(%rbp), %rax
	movq	%rax, %rcx
	call	_ZNSt7__cxx1112basic_stringIcSt11char_traitsIcESaIcEED1Ev
	jmp	.L37
.L40:
	movq	%rax, %rbx
.L37:
	leaq	-128(%rbp), %rax
	movq	%rax, %rcx
	call	_ZNSt7__cxx1112basic_stringIcSt11char_traitsIcESaIcEED1Ev
	jmp	.L38
.L39:
	movq	%rax, %rbx
.L38:
	movq	32(%rbp), %rax
	movq	%rax, %rcx
	call	_ZNSt7__cxx1112basic_stringIcSt11char_traitsIcESaIcEED1Ev
	movq	%rbx, %rax
	movq	%rax, %rcx
.LEHB10:
	call	_Unwind_Resume
.LEHE10:
.L43:
	movq	32(%rbp), %rax
	addq	$168, %rsp
	popq	%rbx
	popq	%rbp
	ret
	.seh_handler	__gxx_personality_seh0, @unwind, @except
	.seh_handlerdata
.LLSDA9477:
	.byte	0xff
	.byte	0xff
	.byte	0x1
	.uleb128 .LLSDACSE9477-.LLSDACSB9477
.LLSDACSB9477:
	.uleb128 .LEHB6-.LFB9477
	.uleb128 .LEHE6-.LEHB6
	.uleb128 .L39-.LFB9477
	.uleb128 0
	.uleb128 .LEHB7-.LFB9477
	.uleb128 .LEHE7-.LEHB7
	.uleb128 .L40-.LFB9477
	.uleb128 0
	.uleb128 .LEHB8-.LFB9477
	.uleb128 .LEHE8-.LEHB8
	.uleb128 .L41-.LFB9477
	.uleb128 0
	.uleb128 .LEHB9-.LFB9477
	.uleb128 .LEHE9-.LEHB9
	.uleb128 .L42-.LFB9477
	.uleb128 0
	.uleb128 .LEHB10-.LFB9477
	.uleb128 .LEHE10-.LEHB10
	.uleb128 0
	.uleb128 0
.LLSDACSE9477:
	.text
	.seh_endproc
	.section	.text$_ZN3cpr13CurlContainerINS_4PairEEC2ERKSt16initializer_listIS1_E,"x"
	.linkonce discard
	.align 2
	.globl	_ZN3cpr13CurlContainerINS_4PairEEC2ERKSt16initializer_listIS1_E
	.def	_ZN3cpr13CurlContainerINS_4PairEEC2ERKSt16initializer_listIS1_E;	.scl	2;	.type	32;	.endef
	.seh_proc	_ZN3cpr13CurlContainerINS_4PairEEC2ERKSt16initializer_listIS1_E
_ZN3cpr13CurlContainerINS_4PairEEC2ERKSt16initializer_listIS1_E:
.LFB9804:
	pushq	%rbp
	.seh_pushreg	%rbp
	pushq	%rbx
	.seh_pushreg	%rbx
	subq	$72, %rsp
	.seh_stackalloc	72
	leaq	64(%rsp), %rbp
	.seh_setframe	%rbp, 64
	.seh_endprologue
	movq	%rcx, 32(%rbp)
	movq	%rdx, 40(%rbp)
	movq	32(%rbp), %rax
	movb	$1, (%rax)
	movq	32(%rbp), %rax
	leaq	8(%rax), %rcx
	leaq	-9(%rbp), %rax
	movq	%rax, -8(%rbp)
	nop
	nop
	movq	40(%rbp), %rax
	movq	8(%rax), %rdx
	movq	(%rax), %rax
	movq	%rax, -32(%rbp)
	movq	%rdx, -24(%rbp)
	leaq	-9(%rbp), %rdx
	leaq	-32(%rbp), %rax
	movq	%rdx, %r8
	movq	%rax, %rdx
.LEHB11:
	call	_ZNSt6vectorIN3cpr4PairESaIS1_EEC1ESt16initializer_listIS1_ERKS2_
.LEHE11:
	leaq	-9(%rbp), %rax
	movq	%rax, %rcx
	call	_ZNSt15__new_allocatorIN3cpr4PairEED2Ev
	nop
	jmp	.L47
.L46:
	movq	%rax, %rbx
	leaq	-9(%rbp), %rax
	movq	%rax, %rcx
	call	_ZNSt15__new_allocatorIN3cpr4PairEED2Ev
	nop
	movq	%rbx, %rax
	movq	%rax, %rcx
.LEHB12:
	call	_Unwind_Resume
	nop
.LEHE12:
.L47:
	addq	$72, %rsp
	popq	%rbx
	popq	%rbp
	ret
	.seh_handler	__gxx_personality_seh0, @unwind, @except
	.seh_handlerdata
.LLSDA9804:
	.byte	0xff
	.byte	0xff
	.byte	0x1
	.uleb128 .LLSDACSE9804-.LLSDACSB9804
.LLSDACSB9804:
	.uleb128 .LEHB11-.LFB9804
	.uleb128 .LEHE11-.LEHB11
	.uleb128 .L46-.LFB9804
	.uleb128 0
	.uleb128 .LEHB12-.LFB9804
	.uleb128 .LEHE12-.LEHB12
	.uleb128 0
	.uleb128 0
.LLSDACSE9804:
	.section	.text$_ZN3cpr13CurlContainerINS_4PairEEC2ERKSt16initializer_listIS1_E,"x"
	.linkonce discard
	.seh_endproc
	.section	.text$_ZN3cpr13CurlContainerINS_4PairEEC1ERKSt16initializer_listIS1_E,"x"
	.linkonce discard
	.align 2
	.globl	_ZN3cpr13CurlContainerINS_4PairEEC1ERKSt16initializer_listIS1_E
	.def	_ZN3cpr13CurlContainerINS_4PairEEC1ERKSt16initializer_listIS1_E;	.scl	2;	.type	32;	.endef
	.seh_proc	_ZN3cpr13CurlContainerINS_4PairEEC1ERKSt16initializer_listIS1_E
_ZN3cpr13CurlContainerINS_4PairEEC1ERKSt16initializer_listIS1_E:
.LFB9805:
	pushq	%rbp
	.seh_pushreg	%rbp
	pushq	%rbx
	.seh_pushreg	%rbx
	subq	$72, %rsp
	.seh_stackalloc	72
	leaq	64(%rsp), %rbp
	.seh_setframe	%rbp, 64
	.seh_endprologue
	movq	%rcx, 32(%rbp)
	movq	%rdx, 40(%rbp)
	movq	32(%rbp), %rax
	movb	$1, (%rax)
	movq	32(%rbp), %rax
	leaq	8(%rax), %rcx
	leaq	-9(%rbp), %rax
	movq	%rax, -8(%rbp)
	nop
	nop
	movq	40(%rbp), %rax
	movq	8(%rax), %rdx
	movq	(%rax), %rax
	movq	%rax, -32(%rbp)
	movq	%rdx, -24(%rbp)
	leaq	-9(%rbp), %rdx
	leaq	-32(%rbp), %rax
	movq	%rdx, %r8
	movq	%rax, %rdx
.LEHB13:
	call	_ZNSt6vectorIN3cpr4PairESaIS1_EEC1ESt16initializer_listIS1_ERKS2_
.LEHE13:
	leaq	-9(%rbp), %rax
	movq	%rax, %rcx
	call	_ZNSt15__new_allocatorIN3cpr4PairEED2Ev
	nop
	jmp	.L51
.L50:
	movq	%rax, %rbx
	leaq	-9(%rbp), %rax
	movq	%rax, %rcx
	call	_ZNSt15__new_allocatorIN3cpr4PairEED2Ev
	nop
	movq	%rbx, %rax
	movq	%rax, %rcx
.LEHB14:
	call	_Unwind_Resume
	nop
.LEHE14:
.L51:
	addq	$72, %rsp
	popq	%rbx
	popq	%rbp
	ret
	.seh_handler	__gxx_personality_seh0, @unwind, @except
	.seh_handlerdata
.LLSDA9805:
	.byte	0xff
	.byte	0xff
	.byte	0x1
	.uleb128 .LLSDACSE9805-.LLSDACSB9805
.LLSDACSB9805:
	.uleb128 .LEHB13-.LFB9805
	.uleb128 .LEHE13-.LEHB13
	.uleb128 .L50-.LFB9805
	.uleb128 0
	.uleb128 .LEHB14-.LFB9805
	.uleb128 .LEHE14-.LEHB14
	.uleb128 0
	.uleb128 0
.LLSDACSE9805:
	.section	.text$_ZN3cpr13CurlContainerINS_4PairEEC1ERKSt16initializer_listIS1_E,"x"
	.linkonce discard
	.seh_endproc
	.section	.text$_ZN3cpr13CurlContainerINS_4PairEE3AddERKSt16initializer_listIS1_E,"x"
	.linkonce discard
	.align 2
	.globl	_ZN3cpr13CurlContainerINS_4PairEE3AddERKSt16initializer_listIS1_E
	.def	_ZN3cpr13CurlContainerINS_4PairEE3AddERKSt16initializer_listIS1_E;	.scl	2;	.type	32;	.endef
	.seh_proc	_ZN3cpr13CurlContainerINS_4PairEE3AddERKSt16initializer_listIS1_E
_ZN3cpr13CurlContainerINS_4PairEE3AddERKSt16initializer_listIS1_E:
.LFB9806:
	pushq	%rbp
	.seh_pushreg	%rbp
	pushq	%rdi
	.seh_pushreg	%rdi
	pushq	%rsi
	.seh_pushreg	%rsi
	pushq	%rbx
	.seh_pushreg	%rbx
	subq	$40, %rsp
	.seh_stackalloc	40
	leaq	32(%rsp), %rbp
	.seh_setframe	%rbp, 32
	.seh_endprologue
	movq	%rcx, 48(%rbp)
	movq	%rdx, 56(%rbp)
	movq	48(%rbp), %rax
	addq	$8, %rax
	movq	%rax, %rcx
	call	_ZSt13back_inserterISt6vectorIN3cpr4PairESaIS2_EEESt20back_insert_iteratorIT_ERS6_
	movq	%rax, %rsi
	movq	56(%rbp), %rax
	movq	%rax, %rcx
	call	_ZNKSt16initializer_listIN3cpr4PairEE3endEv
	movq	%rax, %rbx
	movq	56(%rbp), %rax
	movq	%rax, %rcx
	call	_ZNKSt16initializer_listIN3cpr4PairEE5beginEv
	movl	%edi, %r9d
	movq	%rsi, %r8
	movq	%rbx, %rdx
	movq	%rax, %rcx
	call	_ZSt9transformIPKN3cpr4PairESt20back_insert_iteratorISt6vectorIS1_SaIS1_EEEZNS0_13CurlContainerIS1_E3AddERKSt16initializer_listIS1_EEUlRS2_E_ET0_T_SI_SH_T1_
	nop
	addq	$40, %rsp
	popq	%rbx
	popq	%rsi
	popq	%rdi
	popq	%rbp
	ret
	.seh_endproc
	.section	.text$_ZN3cpr13CurlContainerINS_4PairEE3AddERKS1_,"x"
	.linkonce discard
	.align 2
	.globl	_ZN3cpr13CurlContainerINS_4PairEE3AddERKS1_
	.def	_ZN3cpr13CurlContainerINS_4PairEE3AddERKS1_;	.scl	2;	.type	32;	.endef
	.seh_proc	_ZN3cpr13CurlContainerINS_4PairEE3AddERKS1_
_ZN3cpr13CurlContainerINS_4PairEE3AddERKS1_:
.LFB9816:
	pushq	%rbp
	.seh_pushreg	%rbp
	pushq	%rbx
	.seh_pushreg	%rbx
	subq	$40, %rsp
	.seh_stackalloc	40
	leaq	32(%rsp), %rbp
	.seh_setframe	%rbp, 32
	.seh_endprologue
	movq	%rcx, 32(%rbp)
	movq	%rdx, 40(%rbp)
	movq	32(%rbp), %rax
	leaq	8(%rax), %rbx
	movq	40(%rbp), %rax
	movq	%rax, %rcx
	call	_ZSt4moveIRKN3cpr4PairEEONSt16remove_referenceIT_E4typeEOS5_
	movq	%rax, %rdx
	movq	%rbx, %rcx
	call	_ZNSt6vectorIN3cpr4PairESaIS1_EE9push_backERKS1_
	nop
	addq	$40, %rsp
	popq	%rbx
	popq	%rbp
	ret
	.seh_endproc
	.section	.text$_ZN3cpr13CurlContainerINS_9ParameterEEC2ERKSt16initializer_listIS1_E,"x"
	.linkonce discard
	.align 2
	.globl	_ZN3cpr13CurlContainerINS_9ParameterEEC2ERKSt16initializer_listIS1_E
	.def	_ZN3cpr13CurlContainerINS_9ParameterEEC2ERKSt16initializer_listIS1_E;	.scl	2;	.type	32;	.endef
	.seh_proc	_ZN3cpr13CurlContainerINS_9ParameterEEC2ERKSt16initializer_listIS1_E
_ZN3cpr13CurlContainerINS_9ParameterEEC2ERKSt16initializer_listIS1_E:
.LFB9818:
	pushq	%rbp
	.seh_pushreg	%rbp
	pushq	%rbx
	.seh_pushreg	%rbx
	subq	$72, %rsp
	.seh_stackalloc	72
	leaq	64(%rsp), %rbp
	.seh_setframe	%rbp, 64
	.seh_endprologue
	movq	%rcx, 32(%rbp)
	movq	%rdx, 40(%rbp)
	movq	32(%rbp), %rax
	movb	$1, (%rax)
	movq	32(%rbp), %rax
	leaq	8(%rax), %rcx
	leaq	-9(%rbp), %rax
	movq	%rax, -8(%rbp)
	nop
	nop
	movq	40(%rbp), %rax
	movq	8(%rax), %rdx
	movq	(%rax), %rax
	movq	%rax, -32(%rbp)
	movq	%rdx, -24(%rbp)
	leaq	-9(%rbp), %rdx
	leaq	-32(%rbp), %rax
	movq	%rdx, %r8
	movq	%rax, %rdx
.LEHB15:
	call	_ZNSt6vectorIN3cpr9ParameterESaIS1_EEC1ESt16initializer_listIS1_ERKS2_
.LEHE15:
	leaq	-9(%rbp), %rax
	movq	%rax, %rcx
	call	_ZNSt15__new_allocatorIN3cpr9ParameterEED2Ev
	nop
	jmp	.L57
.L56:
	movq	%rax, %rbx
	leaq	-9(%rbp), %rax
	movq	%rax, %rcx
	call	_ZNSt15__new_allocatorIN3cpr9ParameterEED2Ev
	nop
	movq	%rbx, %rax
	movq	%rax, %rcx
.LEHB16:
	call	_Unwind_Resume
	nop
.LEHE16:
.L57:
	addq	$72, %rsp
	popq	%rbx
	popq	%rbp
	ret
	.seh_handler	__gxx_personality_seh0, @unwind, @except
	.seh_handlerdata
.LLSDA9818:
	.byte	0xff
	.byte	0xff
	.byte	0x1
	.uleb128 .LLSDACSE9818-.LLSDACSB9818
.LLSDACSB9818:
	.uleb128 .LEHB15-.LFB9818
	.uleb128 .LEHE15-.LEHB15
	.uleb128 .L56-.LFB9818
	.uleb128 0
	.uleb128 .LEHB16-.LFB9818
	.uleb128 .LEHE16-.LEHB16
	.uleb128 0
	.uleb128 0
.LLSDACSE9818:
	.section	.text$_ZN3cpr13CurlContainerINS_9ParameterEEC2ERKSt16initializer_listIS1_E,"x"
	.linkonce discard
	.seh_endproc
	.section	.text$_ZN3cpr13CurlContainerINS_9ParameterEEC1ERKSt16initializer_listIS1_E,"x"
	.linkonce discard
	.align 2
	.globl	_ZN3cpr13CurlContainerINS_9ParameterEEC1ERKSt16initializer_listIS1_E
	.def	_ZN3cpr13CurlContainerINS_9ParameterEEC1ERKSt16initializer_listIS1_E;	.scl	2;	.type	32;	.endef
	.seh_proc	_ZN3cpr13CurlContainerINS_9ParameterEEC1ERKSt16initializer_listIS1_E
_ZN3cpr13CurlContainerINS_9ParameterEEC1ERKSt16initializer_listIS1_E:
.LFB9819:
	pushq	%rbp
	.seh_pushreg	%rbp
	pushq	%rbx
	.seh_pushreg	%rbx
	subq	$72, %rsp
	.seh_stackalloc	72
	leaq	64(%rsp), %rbp
	.seh_setframe	%rbp, 64
	.seh_endprologue
	movq	%rcx, 32(%rbp)
	movq	%rdx, 40(%rbp)
	movq	32(%rbp), %rax
	movb	$1, (%rax)
	movq	32(%rbp), %rax
	leaq	8(%rax), %rcx
	leaq	-9(%rbp), %rax
	movq	%rax, -8(%rbp)
	nop
	nop
	movq	40(%rbp), %rax
	movq	8(%rax), %rdx
	movq	(%rax), %rax
	movq	%rax, -32(%rbp)
	movq	%rdx, -24(%rbp)
	leaq	-9(%rbp), %rdx
	leaq	-32(%rbp), %rax
	movq	%rdx, %r8
	movq	%rax, %rdx
.LEHB17:
	call	_ZNSt6vectorIN3cpr9ParameterESaIS1_EEC1ESt16initializer_listIS1_ERKS2_
.LEHE17:
	leaq	-9(%rbp), %rax
	movq	%rax, %rcx
	call	_ZNSt15__new_allocatorIN3cpr9ParameterEED2Ev
	nop
	jmp	.L61
.L60:
	movq	%rax, %rbx
	leaq	-9(%rbp), %rax
	movq	%rax, %rcx
	call	_ZNSt15__new_allocatorIN3cpr9ParameterEED2Ev
	nop
	movq	%rbx, %rax
	movq	%rax, %rcx
.LEHB18:
	call	_Unwind_Resume
	nop
.LEHE18:
.L61:
	addq	$72, %rsp
	popq	%rbx
	popq	%rbp
	ret
	.seh_handler	__gxx_personality_seh0, @unwind, @except
	.seh_handlerdata
.LLSDA9819:
	.byte	0xff
	.byte	0xff
	.byte	0x1
	.uleb128 .LLSDACSE9819-.LLSDACSB9819
.LLSDACSB9819:
	.uleb128 .LEHB17-.LFB9819
	.uleb128 .LEHE17-.LEHB17
	.uleb128 .L60-.LFB9819
	.uleb128 0
	.uleb128 .LEHB18-.LFB9819
	.uleb128 .LEHE18-.LEHB18
	.uleb128 0
	.uleb128 0
.LLSDACSE9819:
	.section	.text$_ZN3cpr13CurlContainerINS_9ParameterEEC1ERKSt16initializer_listIS1_E,"x"
	.linkonce discard
	.seh_endproc
	.section	.text$_ZN3cpr13CurlContainerINS_9ParameterEE3AddERKSt16initializer_listIS1_E,"x"
	.linkonce discard
	.align 2
	.globl	_ZN3cpr13CurlContainerINS_9ParameterEE3AddERKSt16initializer_listIS1_E
	.def	_ZN3cpr13CurlContainerINS_9ParameterEE3AddERKSt16initializer_listIS1_E;	.scl	2;	.type	32;	.endef
	.seh_proc	_ZN3cpr13CurlContainerINS_9ParameterEE3AddERKSt16initializer_listIS1_E
_ZN3cpr13CurlContainerINS_9ParameterEE3AddERKSt16initializer_listIS1_E:
.LFB9820:
	pushq	%rbp
	.seh_pushreg	%rbp
	pushq	%rdi
	.seh_pushreg	%rdi
	pushq	%rsi
	.seh_pushreg	%rsi
	pushq	%rbx
	.seh_pushreg	%rbx
	subq	$40, %rsp
	.seh_stackalloc	40
	leaq	32(%rsp), %rbp
	.seh_setframe	%rbp, 32
	.seh_endprologue
	movq	%rcx, 48(%rbp)
	movq	%rdx, 56(%rbp)
	movq	48(%rbp), %rax
	addq	$8, %rax
	movq	%rax, %rcx
	call	_ZSt13back_inserterISt6vectorIN3cpr9ParameterESaIS2_EEESt20back_insert_iteratorIT_ERS6_
	movq	%rax, %rsi
	movq	56(%rbp), %rax
	movq	%rax, %rcx
	call	_ZNKSt16initializer_listIN3cpr9ParameterEE3endEv
	movq	%rax, %rbx
	movq	56(%rbp), %rax
	movq	%rax, %rcx
	call	_ZNKSt16initializer_listIN3cpr9ParameterEE5beginEv
	movl	%edi, %r9d
	movq	%rsi, %r8
	movq	%rbx, %rdx
	movq	%rax, %rcx
	call	_ZSt9transformIPKN3cpr9ParameterESt20back_insert_iteratorISt6vectorIS1_SaIS1_EEEZNS0_13CurlContainerIS1_E3AddERKSt16initializer_listIS1_EEUlRS2_E_ET0_T_SI_SH_T1_
	nop
	addq	$40, %rsp
	popq	%rbx
	popq	%rsi
	popq	%rdi
	popq	%rbp
	ret
	.seh_endproc
	.section	.text$_ZN3cpr13CurlContainerINS_9ParameterEE3AddERKS1_,"x"
	.linkonce discard
	.align 2
	.globl	_ZN3cpr13CurlContainerINS_9ParameterEE3AddERKS1_
	.def	_ZN3cpr13CurlContainerINS_9ParameterEE3AddERKS1_;	.scl	2;	.type	32;	.endef
	.seh_proc	_ZN3cpr13CurlContainerINS_9ParameterEE3AddERKS1_
_ZN3cpr13CurlContainerINS_9ParameterEE3AddERKS1_:
.LFB9830:
	pushq	%rbp
	.seh_pushreg	%rbp
	pushq	%rbx
	.seh_pushreg	%rbx
	subq	$40, %rsp
	.seh_stackalloc	40
	leaq	32(%rsp), %rbp
	.seh_setframe	%rbp, 32
	.seh_endprologue
	movq	%rcx, 32(%rbp)
	movq	%rdx, 40(%rbp)
	movq	32(%rbp), %rax
	leaq	8(%rax), %rbx
	movq	40(%rbp), %rax
	movq	%rax, %rcx
	call	_ZSt4moveIRKN3cpr9ParameterEEONSt16remove_referenceIT_E4typeEOS5_
	movq	%rax, %rdx
	movq	%rbx, %rcx
	call	_ZNSt6vectorIN3cpr9ParameterESaIS1_EE9push_backERKS1_
	nop
	addq	$40, %rsp
	popq	%rbx
	popq	%rbp
	ret
	.seh_endproc
	.section	.text$_ZN9__gnu_cxx11char_traitsIcE6lengthEPKc,"x"
	.linkonce discard
	.align 2
	.globl	_ZN9__gnu_cxx11char_traitsIcE6lengthEPKc
	.def	_ZN9__gnu_cxx11char_traitsIcE6lengthEPKc;	.scl	2;	.type	32;	.endef
	.seh_proc	_ZN9__gnu_cxx11char_traitsIcE6lengthEPKc
_ZN9__gnu_cxx11char_traitsIcE6lengthEPKc:
.LFB9485:
	pushq	%rbp
	.seh_pushreg	%rbp
	movq	%rsp, %rbp
	.seh_setframe	%rbp, 0
	subq	$48, %rsp
	.seh_stackalloc	48
	.seh_endprologue
	movq	%rcx, 16(%rbp)
	movq	$0, -8(%rbp)
	jmp	.L65
.L66:
	addq	$1, -8(%rbp)
.L65:
	movb	$0, -9(%rbp)
	movq	16(%rbp), %rdx
	movq	-8(%rbp), %rax
	leaq	(%rdx,%rax), %rcx
	leaq	-9(%rbp), %rax
	movq	%rax, %rdx
	call	_ZN9__gnu_cxx11char_traitsIcE2eqERKcS3_
	xorl	$1, %eax
	testb	%al, %al
	jne	.L66
	movq	-8(%rbp), %rax
	addq	$48, %rsp
	popq	%rbp
	ret
	.seh_endproc
	.section	.text$_ZSt4moveIRNSt7__cxx1112basic_stringIcSt11char_traitsIcESaIcEEEEONSt16remove_referenceIT_E4typeEOS8_,"x"
	.linkonce discard
	.globl	_ZSt4moveIRNSt7__cxx1112basic_stringIcSt11char_traitsIcESaIcEEEEONSt16remove_referenceIT_E4typeEOS8_
	.def	_ZSt4moveIRNSt7__cxx1112basic_stringIcSt11char_traitsIcESaIcEEEEONSt16remove_referenceIT_E4typeEOS8_;	.scl	2;	.type	32;	.endef
	.seh_proc	_ZSt4moveIRNSt7__cxx1112basic_stringIcSt11char_traitsIcESaIcEEEEONSt16remove_referenceIT_E4typeEOS8_
_ZSt4moveIRNSt7__cxx1112basic_stringIcSt11char_traitsIcESaIcEEEEONSt16remove_referenceIT_E4typeEOS8_:
.LFB9779:
	pushq	%rbp
	.seh_pushreg	%rbp
	movq	%rsp, %rbp
	.seh_setframe	%rbp, 0
	.seh_endprologue
	movq	%rcx, 16(%rbp)
	movq	16(%rbp), %rax
	popq	%rbp
	ret
	.seh_endproc
	.section	.text$_ZNKSt6vectorIN3cpr9ParameterESaIS1_EE5beginEv,"x"
	.linkonce discard
	.align 2
	.globl	_ZNKSt6vectorIN3cpr9ParameterESaIS1_EE5beginEv
	.def	_ZNKSt6vectorIN3cpr9ParameterESaIS1_EE5beginEv;	.scl	2;	.type	32;	.endef
	.seh_proc	_ZNKSt6vectorIN3cpr9ParameterESaIS1_EE5beginEv
_ZNKSt6vectorIN3cpr9ParameterESaIS1_EE5beginEv:
.LFB9785:
	pushq	%rbp
	.seh_pushreg	%rbp
	movq	%rsp, %rbp
	.seh_setframe	%rbp, 0
	subq	$48, %rsp
	.seh_stackalloc	48
	.seh_endprologue
	movq	%rcx, 16(%rbp)
	movq	16(%rbp), %rdx
	leaq	-8(%rbp), %rax
	movq	%rax, %rcx
	call	_ZN9__gnu_cxx17__normal_iteratorIPKN3cpr9ParameterESt6vectorIS2_SaIS2_EEEC1ERKS4_
	movq	-8(%rbp), %rax
	addq	$48, %rsp
	popq	%rbp
	ret
	.seh_endproc
	.section	.text$_ZNKSt6vectorIN3cpr9ParameterESaIS1_EE3endEv,"x"
	.linkonce discard
	.align 2
	.globl	_ZNKSt6vectorIN3cpr9ParameterESaIS1_EE3endEv
	.def	_ZNKSt6vectorIN3cpr9ParameterESaIS1_EE3endEv;	.scl	2;	.type	32;	.endef
	.seh_proc	_ZNKSt6vectorIN3cpr9ParameterESaIS1_EE3endEv
_ZNKSt6vectorIN3cpr9ParameterESaIS1_EE3endEv:
.LFB9786:
	pushq	%rbp
	.seh_pushreg	%rbp
	movq	%rsp, %rbp
	.seh_setframe	%rbp, 0
	subq	$48, %rsp
	.seh_stackalloc	48
	.seh_endprologue
	movq	%rcx, 16(%rbp)
	movq	16(%rbp), %rax
	leaq	8(%rax), %rdx
	leaq	-8(%rbp), %rax
	movq	%rax, %rcx
	call	_ZN9__gnu_cxx17__normal_iteratorIPKN3cpr9ParameterESt6vectorIS2_SaIS2_EEEC1ERKS4_
	movq	-8(%rbp), %rax
	addq	$48, %rsp
	popq	%rbp
	ret
	.seh_endproc
	.section	.text$_ZN9__gnu_cxxneIPKN3cpr9ParameterESt6vectorIS2_SaIS2_EEEEbRKNS_17__normal_iteratorIT_T0_EESD_,"x"
	.linkonce discard
	.globl	_ZN9__gnu_cxxneIPKN3cpr9ParameterESt6vectorIS2_SaIS2_EEEEbRKNS_17__normal_iteratorIT_T0_EESD_
	.def	_ZN9__gnu_cxxneIPKN3cpr9ParameterESt6vectorIS2_SaIS2_EEEEbRKNS_17__normal_iteratorIT_T0_EESD_;	.scl	2;	.type	32;	.endef
	.seh_proc	_ZN9__gnu_cxxneIPKN3cpr9ParameterESt6vectorIS2_SaIS2_EEEEbRKNS_17__normal_iteratorIT_T0_EESD_
_ZN9__gnu_cxxneIPKN3cpr9ParameterESt6vectorIS2_SaIS2_EEEEbRKNS_17__normal_iteratorIT_T0_EESD_:
.LFB9787:
	pushq	%rbp
	.seh_pushreg	%rbp
	pushq	%rbx
	.seh_pushreg	%rbx
	subq	$40, %rsp
	.seh_stackalloc	40
	leaq	32(%rsp), %rbp
	.seh_setframe	%rbp, 32
	.seh_endprologue
	movq	%rcx, 32(%rbp)
	movq	%rdx, 40(%rbp)
	movq	32(%rbp), %rax
	movq	%rax, %rcx
	call	_ZNK9__gnu_cxx17__normal_iteratorIPKN3cpr9ParameterESt6vectorIS2_SaIS2_EEE4baseEv
	movq	(%rax), %rbx
	movq	40(%rbp), %rax
	movq	%rax, %rcx
	call	_ZNK9__gnu_cxx17__normal_iteratorIPKN3cpr9ParameterESt6vectorIS2_SaIS2_EEE4baseEv
	movq	(%rax), %rax
	cmpq	%rax, %rbx
	setne	%al
	addq	$40, %rsp
	popq	%rbx
	popq	%rbp
	ret
	.seh_endproc
	.section	.text$_ZN9__gnu_cxx17__normal_iteratorIPKN3cpr9ParameterESt6vectorIS2_SaIS2_EEEppEv,"x"
	.linkonce discard
	.align 2
	.globl	_ZN9__gnu_cxx17__normal_iteratorIPKN3cpr9ParameterESt6vectorIS2_SaIS2_EEEppEv
	.def	_ZN9__gnu_cxx17__normal_iteratorIPKN3cpr9ParameterESt6vectorIS2_SaIS2_EEEppEv;	.scl	2;	.type	32;	.endef
	.seh_proc	_ZN9__gnu_cxx17__normal_iteratorIPKN3cpr9ParameterESt6vectorIS2_SaIS2_EEEppEv
_ZN9__gnu_cxx17__normal_iteratorIPKN3cpr9ParameterESt6vectorIS2_SaIS2_EEEppEv:
.LFB9788:
	pushq	%rbp
	.seh_pushreg	%rbp
	movq	%rsp, %rbp
	.seh_setframe	%rbp, 0
	.seh_endprologue
	movq	%rcx, 16(%rbp)
	movq	16(%rbp), %rax
	movq	(%rax), %rax
	leaq	64(%rax), %rdx
	movq	16(%rbp), %rax
	movq	%rdx, (%rax)
	movq	16(%rbp), %rax
	popq	%rbp
	ret
	.seh_endproc
	.section	.text$_ZNK9__gnu_cxx17__normal_iteratorIPKN3cpr9ParameterESt6vectorIS2_SaIS2_EEEdeEv,"x"
	.linkonce discard
	.align 2
	.globl	_ZNK9__gnu_cxx17__normal_iteratorIPKN3cpr9ParameterESt6vectorIS2_SaIS2_EEEdeEv
	.def	_ZNK9__gnu_cxx17__normal_iteratorIPKN3cpr9ParameterESt6vectorIS2_SaIS2_EEEdeEv;	.scl	2;	.type	32;	.endef
	.seh_proc	_ZNK9__gnu_cxx17__normal_iteratorIPKN3cpr9ParameterESt6vectorIS2_SaIS2_EEEdeEv
_ZNK9__gnu_cxx17__normal_iteratorIPKN3cpr9ParameterESt6vectorIS2_SaIS2_EEEdeEv:
.LFB9789:
	pushq	%rbp
	.seh_pushreg	%rbp
	movq	%rsp, %rbp
	.seh_setframe	%rbp, 0
	.seh_endprologue
	movq	%rcx, 16(%rbp)
	movq	16(%rbp), %rax
	movq	(%rax), %rax
	popq	%rbp
	ret
	.seh_endproc
	.section	.text$_ZStplIcSt11char_traitsIcESaIcEENSt7__cxx1112basic_stringIT_T0_T1_EERKS8_PKS5_,"x"
	.linkonce discard
	.globl	_ZStplIcSt11char_traitsIcESaIcEENSt7__cxx1112basic_stringIT_T0_T1_EERKS8_PKS5_
	.def	_ZStplIcSt11char_traitsIcESaIcEENSt7__cxx1112basic_stringIT_T0_T1_EERKS8_PKS5_;	.scl	2;	.type	32;	.endef
	.seh_proc	_ZStplIcSt11char_traitsIcESaIcEENSt7__cxx1112basic_stringIT_T0_T1_EERKS8_PKS5_
_ZStplIcSt11char_traitsIcESaIcEENSt7__cxx1112basic_stringIT_T0_T1_EERKS8_PKS5_:
.LFB9796:
	pushq	%rbp
	.seh_pushreg	%rbp
	pushq	%rsi
	.seh_pushreg	%rsi
	pushq	%rbx
	.seh_pushreg	%rbx
	subq	$64, %rsp
	.seh_stackalloc	64
	leaq	64(%rsp), %rbp
	.seh_setframe	%rbp, 64
	.seh_endprologue
	movq	%rcx, 32(%rbp)
	movq	%rdx, 40(%rbp)
	movq	%r8, 48(%rbp)
	leaq	-1(%rbp), %rax
	movq	40(%rbp), %rdx
	movq	%rax, %rcx
	call	_ZNKSt7__cxx1112basic_stringIcSt11char_traitsIcESaIcEE13get_allocatorEv
	movq	48(%rbp), %rax
	movq	%rax, %rcx
.LEHB19:
	call	_ZNSt11char_traitsIcE6lengthEPKc
	movq	%rax, %rbx
	movq	40(%rbp), %rax
	movq	%rax, %rcx
	call	_ZNKSt7__cxx1112basic_stringIcSt11char_traitsIcESaIcEE4sizeEv
	movq	%rax, %rsi
	movq	40(%rbp), %rax
	movq	%rax, %rcx
	call	_ZNKSt7__cxx1112basic_stringIcSt11char_traitsIcESaIcEE5c_strEv
	movq	%rax, %rcx
	movq	32(%rbp), %rax
	movq	48(%rbp), %r8
	leaq	-1(%rbp), %rdx
	movq	%rdx, 40(%rsp)
	movq	%rbx, 32(%rsp)
	movq	%r8, %r9
	movq	%rsi, %r8
	movq	%rcx, %rdx
	movq	%rax, %rcx
	call	_ZSt12__str_concatINSt7__cxx1112basic_stringIcSt11char_traitsIcESaIcEEEET_PKNS6_10value_typeENS6_9size_typeES9_SA_RKNS6_14allocator_typeE
.LEHE19:
	nop
	leaq	-1(%rbp), %rax
	movq	%rax, %rcx
	call	_ZNSt15__new_allocatorIcED2Ev
	nop
	jmp	.L84
.L83:
	movq	%rax, %rbx
	leaq	-1(%rbp), %rax
	movq	%rax, %rcx
	call	_ZNSt15__new_allocatorIcED2Ev
	nop
	movq	%rbx, %rax
	movq	%rax, %rcx
.LEHB20:
	call	_Unwind_Resume
.LEHE20:
.L84:
	movq	32(%rbp), %rax
	addq	$64, %rsp
	popq	%rbx
	popq	%rsi
	popq	%rbp
	ret
	.seh_handler	__gxx_personality_seh0, @unwind, @except
	.seh_handlerdata
.LLSDA9796:
	.byte	0xff
	.byte	0xff
	.byte	0x1
	.uleb128 .LLSDACSE9796-.LLSDACSB9796
.LLSDACSB9796:
	.uleb128 .LEHB19-.LFB9796
	.uleb128 .LEHE19-.LEHB19
	.uleb128 .L83-.LFB9796
	.uleb128 0
	.uleb128 .LEHB20-.LFB9796
	.uleb128 .LEHE20-.LEHB20
	.uleb128 0
	.uleb128 0
.LLSDACSE9796:
	.section	.text$_ZStplIcSt11char_traitsIcESaIcEENSt7__cxx1112basic_stringIT_T0_T1_EERKS8_PKS5_,"x"
	.linkonce discard
	.seh_endproc
	.section	.text$_ZNKSt6vectorIN3cpr4PairESaIS1_EE5beginEv,"x"
	.linkonce discard
	.align 2
	.globl	_ZNKSt6vectorIN3cpr4PairESaIS1_EE5beginEv
	.def	_ZNKSt6vectorIN3cpr4PairESaIS1_EE5beginEv;	.scl	2;	.type	32;	.endef
	.seh_proc	_ZNKSt6vectorIN3cpr4PairESaIS1_EE5beginEv
_ZNKSt6vectorIN3cpr4PairESaIS1_EE5beginEv:
.LFB9797:
	pushq	%rbp
	.seh_pushreg	%rbp
	movq	%rsp, %rbp
	.seh_setframe	%rbp, 0
	subq	$48, %rsp
	.seh_stackalloc	48
	.seh_endprologue
	movq	%rcx, 16(%rbp)
	movq	16(%rbp), %rdx
	leaq	-8(%rbp), %rax
	movq	%rax, %rcx
	call	_ZN9__gnu_cxx17__normal_iteratorIPKN3cpr4PairESt6vectorIS2_SaIS2_EEEC1ERKS4_
	movq	-8(%rbp), %rax
	addq	$48, %rsp
	popq	%rbp
	ret
	.seh_endproc
	.section	.text$_ZNKSt6vectorIN3cpr4PairESaIS1_EE3endEv,"x"
	.linkonce discard
	.align 2
	.globl	_ZNKSt6vectorIN3cpr4PairESaIS1_EE3endEv
	.def	_ZNKSt6vectorIN3cpr4PairESaIS1_EE3endEv;	.scl	2;	.type	32;	.endef
	.seh_proc	_ZNKSt6vectorIN3cpr4PairESaIS1_EE3endEv
_ZNKSt6vectorIN3cpr4PairESaIS1_EE3endEv:
.LFB9798:
	pushq	%rbp
	.seh_pushreg	%rbp
	movq	%rsp, %rbp
	.seh_setframe	%rbp, 0
	subq	$48, %rsp
	.seh_stackalloc	48
	.seh_endprologue
	movq	%rcx, 16(%rbp)
	movq	16(%rbp), %rax
	leaq	8(%rax), %rdx
	leaq	-8(%rbp), %rax
	movq	%rax, %rcx
	call	_ZN9__gnu_cxx17__normal_iteratorIPKN3cpr4PairESt6vectorIS2_SaIS2_EEEC1ERKS4_
	movq	-8(%rbp), %rax
	addq	$48, %rsp
	popq	%rbp
	ret
	.seh_endproc
	.section	.text$_ZN9__gnu_cxxneIPKN3cpr4PairESt6vectorIS2_SaIS2_EEEEbRKNS_17__normal_iteratorIT_T0_EESD_,"x"
	.linkonce discard
	.globl	_ZN9__gnu_cxxneIPKN3cpr4PairESt6vectorIS2_SaIS2_EEEEbRKNS_17__normal_iteratorIT_T0_EESD_
	.def	_ZN9__gnu_cxxneIPKN3cpr4PairESt6vectorIS2_SaIS2_EEEEbRKNS_17__normal_iteratorIT_T0_EESD_;	.scl	2;	.type	32;	.endef
	.seh_proc	_ZN9__gnu_cxxneIPKN3cpr4PairESt6vectorIS2_SaIS2_EEEEbRKNS_17__normal_iteratorIT_T0_EESD_
_ZN9__gnu_cxxneIPKN3cpr4PairESt6vectorIS2_SaIS2_EEEEbRKNS_17__normal_iteratorIT_T0_EESD_:
.LFB9799:
	pushq	%rbp
	.seh_pushreg	%rbp
	pushq	%rbx
	.seh_pushreg	%rbx
	subq	$40, %rsp
	.seh_stackalloc	40
	leaq	32(%rsp), %rbp
	.seh_setframe	%rbp, 32
	.seh_endprologue
	movq	%rcx, 32(%rbp)
	movq	%rdx, 40(%rbp)
	movq	32(%rbp), %rax
	movq	%rax, %rcx
	call	_ZNK9__gnu_cxx17__normal_iteratorIPKN3cpr4PairESt6vectorIS2_SaIS2_EEE4baseEv
	movq	(%rax), %rbx
	movq	40(%rbp), %rax
	movq	%rax, %rcx
	call	_ZNK9__gnu_cxx17__normal_iteratorIPKN3cpr4PairESt6vectorIS2_SaIS2_EEE4baseEv
	movq	(%rax), %rax
	cmpq	%rax, %rbx
	setne	%al
	addq	$40, %rsp
	popq	%rbx
	popq	%rbp
	ret
	.seh_endproc
	.section	.text$_ZN9__gnu_cxx17__normal_iteratorIPKN3cpr4PairESt6vectorIS2_SaIS2_EEEppEv,"x"
	.linkonce discard
	.align 2
	.globl	_ZN9__gnu_cxx17__normal_iteratorIPKN3cpr4PairESt6vectorIS2_SaIS2_EEEppEv
	.def	_ZN9__gnu_cxx17__normal_iteratorIPKN3cpr4PairESt6vectorIS2_SaIS2_EEEppEv;	.scl	2;	.type	32;	.endef
	.seh_proc	_ZN9__gnu_cxx17__normal_iteratorIPKN3cpr4PairESt6vectorIS2_SaIS2_EEEppEv
_ZN9__gnu_cxx17__normal_iteratorIPKN3cpr4PairESt6vectorIS2_SaIS2_EEEppEv:
.LFB9800:
	pushq	%rbp
	.seh_pushreg	%rbp
	movq	%rsp, %rbp
	.seh_setframe	%rbp, 0
	.seh_endprologue
	movq	%rcx, 16(%rbp)
	movq	16(%rbp), %rax
	movq	(%rax), %rax
	leaq	64(%rax), %rdx
	movq	16(%rbp), %rax
	movq	%rdx, (%rax)
	movq	16(%rbp), %rax
	popq	%rbp
	ret
	.seh_endproc
	.section	.text$_ZNK9__gnu_cxx17__normal_iteratorIPKN3cpr4PairESt6vectorIS2_SaIS2_EEEdeEv,"x"
	.linkonce discard
	.align 2
	.globl	_ZNK9__gnu_cxx17__normal_iteratorIPKN3cpr4PairESt6vectorIS2_SaIS2_EEEdeEv
	.def	_ZNK9__gnu_cxx17__normal_iteratorIPKN3cpr4PairESt6vectorIS2_SaIS2_EEEdeEv;	.scl	2;	.type	32;	.endef
	.seh_proc	_ZNK9__gnu_cxx17__normal_iteratorIPKN3cpr4PairESt6vectorIS2_SaIS2_EEEdeEv
_ZNK9__gnu_cxx17__normal_iteratorIPKN3cpr4PairESt6vectorIS2_SaIS2_EEEdeEv:
.LFB9801:
	pushq	%rbp
	.seh_pushreg	%rbp
	movq	%rsp, %rbp
	.seh_setframe	%rbp, 0
	.seh_endprologue
	movq	%rcx, 16(%rbp)
	movq	16(%rbp), %rax
	movq	(%rax), %rax
	popq	%rbp
	ret
	.seh_endproc
	.section	.text$_ZStplIcSt11char_traitsIcESaIcEENSt7__cxx1112basic_stringIT_T0_T1_EEOS8_RKS8_,"x"
	.linkonce discard
	.globl	_ZStplIcSt11char_traitsIcESaIcEENSt7__cxx1112basic_stringIT_T0_T1_EEOS8_RKS8_
	.def	_ZStplIcSt11char_traitsIcESaIcEENSt7__cxx1112basic_stringIT_T0_T1_EEOS8_RKS8_;	.scl	2;	.type	32;	.endef
	.seh_proc	_ZStplIcSt11char_traitsIcESaIcEENSt7__cxx1112basic_stringIT_T0_T1_EEOS8_RKS8_
_ZStplIcSt11char_traitsIcESaIcEENSt7__cxx1112basic_stringIT_T0_T1_EEOS8_RKS8_:
.LFB9802:
	pushq	%rbp
	.seh_pushreg	%rbp
	movq	%rsp, %rbp
	.seh_setframe	%rbp, 0
	subq	$32, %rsp
	.seh_stackalloc	32
	.seh_endprologue
	movq	%rcx, 16(%rbp)
	movq	%rdx, 24(%rbp)
	movq	%r8, 32(%rbp)
	movq	32(%rbp), %rdx
	movq	24(%rbp), %rax
	movq	%rax, %rcx
	call	_ZNSt7__cxx1112basic_stringIcSt11char_traitsIcESaIcEE6appendERKS4_
	movq	%rax, %rcx
	call	_ZSt4moveIRNSt7__cxx1112basic_stringIcSt11char_traitsIcESaIcEEEEONSt16remove_referenceIT_E4typeEOS8_
	movq	%rax, %rdx
	movq	16(%rbp), %rax
	movq	%rax, %rcx
	call	_ZNSt7__cxx1112basic_stringIcSt11char_traitsIcESaIcEEC1EOS4_
	movq	16(%rbp), %rax
	addq	$32, %rsp
	popq	%rbp
	ret
	.seh_endproc
	.section	.text$_ZZN3cpr13CurlContainerINS_4PairEE3AddERKSt16initializer_listIS1_EENKUlRKS1_E_clES8_,"x"
	.linkonce discard
	.align 2
	.globl	_ZZN3cpr13CurlContainerINS_4PairEE3AddERKSt16initializer_listIS1_EENKUlRKS1_E_clES8_
	.def	_ZZN3cpr13CurlContainerINS_4PairEE3AddERKSt16initializer_listIS1_EENKUlRKS1_E_clES8_;	.scl	2;	.type	32;	.endef
	.seh_proc	_ZZN3cpr13CurlContainerINS_4PairEE3AddERKSt16initializer_listIS1_EENKUlRKS1_E_clES8_
_ZZN3cpr13CurlContainerINS_4PairEE3AddERKSt16initializer_listIS1_EENKUlRKS1_E_clES8_:
.LFB9807:
	pushq	%rbp
	.seh_pushreg	%rbp
	movq	%rsp, %rbp
	.seh_setframe	%rbp, 0
	subq	$32, %rsp
	.seh_stackalloc	32
	.seh_endprologue
	movq	%rcx, 16(%rbp)
	movq	%rdx, 24(%rbp)
	movq	%r8, 32(%rbp)
	movq	32(%rbp), %rax
	movq	%rax, %rcx
	call	_ZSt4moveIRKN3cpr4PairEEONSt16remove_referenceIT_E4typeEOS5_
	movq	%rax, %rdx
	movq	16(%rbp), %rax
	movq	%rax, %rcx
	call	_ZN3cpr4PairC1ERKS0_
	movq	16(%rbp), %rax
	addq	$32, %rsp
	popq	%rbp
	ret
	.seh_endproc
	.section	.text$_ZN3cpr4PairC1ERKS0_,"x"
	.linkonce discard
	.align 2
	.globl	_ZN3cpr4PairC1ERKS0_
	.def	_ZN3cpr4PairC1ERKS0_;	.scl	2;	.type	32;	.endef
	.seh_proc	_ZN3cpr4PairC1ERKS0_
_ZN3cpr4PairC1ERKS0_:
.LFB9810:
	pushq	%rbp
	.seh_pushreg	%rbp
	pushq	%rbx
	.seh_pushreg	%rbx
	subq	$40, %rsp
	.seh_stackalloc	40
	leaq	32(%rsp), %rbp
	.seh_setframe	%rbp, 32
	.seh_endprologue
	movq	%rcx, 32(%rbp)
	movq	%rdx, 40(%rbp)
	movq	32(%rbp), %rax
	movq	40(%rbp), %rdx
	movq	%rax, %rcx
.LEHB21:
	call	_ZNSt7__cxx1112basic_stringIcSt11char_traitsIcESaIcEEC1ERKS4_
.LEHE21:
	movq	32(%rbp), %rax
	addq	$32, %rax
	movq	40(%rbp), %rdx
	addq	$32, %rdx
	movq	%rax, %rcx
.LEHB22:
	call	_ZNSt7__cxx1112basic_stringIcSt11char_traitsIcESaIcEEC1ERKS4_
.LEHE22:
	jmp	.L102
.L101:
	movq	%rax, %rbx
	movq	32(%rbp), %rax
	movq	%rax, %rcx
	call	_ZNSt7__cxx1112basic_stringIcSt11char_traitsIcESaIcEED1Ev
	movq	%rbx, %rax
	movq	%rax, %rcx
.LEHB23:
	call	_Unwind_Resume
	nop
.LEHE23:
.L102:
	addq	$40, %rsp
	popq	%rbx
	popq	%rbp
	ret
	.seh_handler	__gxx_personality_seh0, @unwind, @except
	.seh_handlerdata
.LLSDA9810:
	.byte	0xff
	.byte	0xff
	.byte	0x1
	.uleb128 .LLSDACSE9810-.LLSDACSB9810
.LLSDACSB9810:
	.uleb128 .LEHB21-.LFB9810
	.uleb128 .LEHE21-.LEHB21
	.uleb128 0
	.uleb128 0
	.uleb128 .LEHB22-.LFB9810
	.uleb128 .LEHE22-.LEHB22
	.uleb128 .L101-.LFB9810
	.uleb128 0
	.uleb128 .LEHB23-.LFB9810
	.uleb128 .LEHE23-.LEHB23
	.uleb128 0
	.uleb128 0
.LLSDACSE9810:
	.section	.text$_ZN3cpr4PairC1ERKS0_,"x"
	.linkonce discard
	.seh_endproc
	.section	.text$_ZN3cpr4PairD1Ev,"x"
	.linkonce discard
	.align 2
	.globl	_ZN3cpr4PairD1Ev
	.def	_ZN3cpr4PairD1Ev;	.scl	2;	.type	32;	.endef
	.seh_proc	_ZN3cpr4PairD1Ev
_ZN3cpr4PairD1Ev:
.LFB9813:
	pushq	%rbp
	.seh_pushreg	%rbp
	movq	%rsp, %rbp
	.seh_setframe	%rbp, 0
	subq	$32, %rsp
	.seh_stackalloc	32
	.seh_endprologue
	movq	%rcx, 16(%rbp)
	movq	16(%rbp), %rax
	addq	$32, %rax
	movq	%rax, %rcx
	call	_ZNSt7__cxx1112basic_stringIcSt11char_traitsIcESaIcEED1Ev
	movq	16(%rbp), %rax
	movq	%rax, %rcx
	call	_ZNSt7__cxx1112basic_stringIcSt11char_traitsIcESaIcEED1Ev
	nop
	addq	$32, %rsp
	popq	%rbp
	ret
	.seh_endproc
	.section	.text$_ZZN3cpr13CurlContainerINS_9ParameterEE3AddERKSt16initializer_listIS1_EENKUlRKS1_E_clES8_,"x"
	.linkonce discard
	.align 2
	.globl	_ZZN3cpr13CurlContainerINS_9ParameterEE3AddERKSt16initializer_listIS1_EENKUlRKS1_E_clES8_
	.def	_ZZN3cpr13CurlContainerINS_9ParameterEE3AddERKSt16initializer_listIS1_EENKUlRKS1_E_clES8_;	.scl	2;	.type	32;	.endef
	.seh_proc	_ZZN3cpr13CurlContainerINS_9ParameterEE3AddERKSt16initializer_listIS1_EENKUlRKS1_E_clES8_
_ZZN3cpr13CurlContainerINS_9ParameterEE3AddERKSt16initializer_listIS1_EENKUlRKS1_E_clES8_:
.LFB9821:
	pushq	%rbp
	.seh_pushreg	%rbp
	movq	%rsp, %rbp
	.seh_setframe	%rbp, 0
	subq	$32, %rsp
	.seh_stackalloc	32
	.seh_endprologue
	movq	%rcx, 16(%rbp)
	movq	%rdx, 24(%rbp)
	movq	%r8, 32(%rbp)
	movq	32(%rbp), %rax
	movq	%rax, %rcx
	call	_ZSt4moveIRKN3cpr9ParameterEEONSt16remove_referenceIT_E4typeEOS5_
	movq	%rax, %rdx
	movq	16(%rbp), %rax
	movq	%rax, %rcx
	call	_ZN3cpr9ParameterC1ERKS0_
	movq	16(%rbp), %rax
	addq	$32, %rsp
	popq	%rbp
	ret
	.seh_endproc
	.section	.text$_ZN3cpr9ParameterC1ERKS0_,"x"
	.linkonce discard
	.align 2
	.globl	_ZN3cpr9ParameterC1ERKS0_
	.def	_ZN3cpr9ParameterC1ERKS0_;	.scl	2;	.type	32;	.endef
	.seh_proc	_ZN3cpr9ParameterC1ERKS0_
_ZN3cpr9ParameterC1ERKS0_:
.LFB9824:
	pushq	%rbp
	.seh_pushreg	%rbp
	pushq	%rbx
	.seh_pushreg	%rbx
	subq	$40, %rsp
	.seh_stackalloc	40
	leaq	32(%rsp), %rbp
	.seh_setframe	%rbp, 32
	.seh_endprologue
	movq	%rcx, 32(%rbp)
	movq	%rdx, 40(%rbp)
	movq	32(%rbp), %rax
	movq	40(%rbp), %rdx
	movq	%rax, %rcx
.LEHB24:
	call	_ZNSt7__cxx1112basic_stringIcSt11char_traitsIcESaIcEEC1ERKS4_
.LEHE24:
	movq	32(%rbp), %rax
	addq	$32, %rax
	movq	40(%rbp), %rdx
	addq	$32, %rdx
	movq	%rax, %rcx
.LEHB25:
	call	_ZNSt7__cxx1112basic_stringIcSt11char_traitsIcESaIcEEC1ERKS4_
.LEHE25:
	jmp	.L109
.L108:
	movq	%rax, %rbx
	movq	32(%rbp), %rax
	movq	%rax, %rcx
	call	_ZNSt7__cxx1112basic_stringIcSt11char_traitsIcESaIcEED1Ev
	movq	%rbx, %rax
	movq	%rax, %rcx
.LEHB26:
	call	_Unwind_Resume
	nop
.LEHE26:
.L109:
	addq	$40, %rsp
	popq	%rbx
	popq	%rbp
	ret
	.seh_handler	__gxx_personality_seh0, @unwind, @except
	.seh_handlerdata
.LLSDA9824:
	.byte	0xff
	.byte	0xff
	.byte	0x1
	.uleb128 .LLSDACSE9824-.LLSDACSB9824
.LLSDACSB9824:
	.uleb128 .LEHB24-.LFB9824
	.uleb128 .LEHE24-.LEHB24
	.uleb128 0
	.uleb128 0
	.uleb128 .LEHB25-.LFB9824
	.uleb128 .LEHE25-.LEHB25
	.uleb128 .L108-.LFB9824
	.uleb128 0
	.uleb128 .LEHB26-.LFB9824
	.uleb128 .LEHE26-.LEHB26
	.uleb128 0
	.uleb128 0
.LLSDACSE9824:
	.section	.text$_ZN3cpr9ParameterC1ERKS0_,"x"
	.linkonce discard
	.seh_endproc
	.section	.text$_ZN3cpr9ParameterD1Ev,"x"
	.linkonce discard
	.align 2
	.globl	_ZN3cpr9ParameterD1Ev
	.def	_ZN3cpr9ParameterD1Ev;	.scl	2;	.type	32;	.endef
	.seh_proc	_ZN3cpr9ParameterD1Ev
_ZN3cpr9ParameterD1Ev:
.LFB9827:
	pushq	%rbp
	.seh_pushreg	%rbp
	movq	%rsp, %rbp
	.seh_setframe	%rbp, 0
	subq	$32, %rsp
	.seh_stackalloc	32
	.seh_endprologue
	movq	%rcx, 16(%rbp)
	movq	16(%rbp), %rax
	addq	$32, %rax
	movq	%rax, %rcx
	call	_ZNSt7__cxx1112basic_stringIcSt11char_traitsIcESaIcEED1Ev
	movq	16(%rbp), %rax
	movq	%rax, %rcx
	call	_ZNSt7__cxx1112basic_stringIcSt11char_traitsIcESaIcEED1Ev
	nop
	addq	$32, %rsp
	popq	%rbp
	ret
	.seh_endproc
	.section	.text$_ZN9__gnu_cxx11char_traitsIcE2eqERKcS3_,"x"
	.linkonce discard
	.globl	_ZN9__gnu_cxx11char_traitsIcE2eqERKcS3_
	.def	_ZN9__gnu_cxx11char_traitsIcE2eqERKcS3_;	.scl	2;	.type	32;	.endef
	.seh_proc	_ZN9__gnu_cxx11char_traitsIcE2eqERKcS3_
_ZN9__gnu_cxx11char_traitsIcE2eqERKcS3_:
.LFB9841:
	pushq	%rbp
	.seh_pushreg	%rbp
	movq	%rsp, %rbp
	.seh_setframe	%rbp, 0
	.seh_endprologue
	movq	%rcx, 16(%rbp)
	movq	%rdx, 24(%rbp)
	movq	16(%rbp), %rax
	movzbl	(%rax), %edx
	movq	24(%rbp), %rax
	movzbl	(%rax), %eax
	cmpb	%al, %dl
	sete	%al
	popq	%rbp
	ret
	.seh_endproc
	.section	.text$_ZNSt15__new_allocatorIcED2Ev,"x"
	.linkonce discard
	.align 2
	.globl	_ZNSt15__new_allocatorIcED2Ev
	.def	_ZNSt15__new_allocatorIcED2Ev;	.scl	2;	.type	32;	.endef
	.seh_proc	_ZNSt15__new_allocatorIcED2Ev
_ZNSt15__new_allocatorIcED2Ev:
.LFB9895:
	pushq	%rbp
	.seh_pushreg	%rbp
	movq	%rsp, %rbp
	.seh_setframe	%rbp, 0
	.seh_endprologue
	movq	%rcx, 16(%rbp)
	nop
	popq	%rbp
	ret
	.seh_endproc
	.section	.text$_ZN9__gnu_cxx17__normal_iteratorIPKN3cpr9ParameterESt6vectorIS2_SaIS2_EEEC1ERKS4_,"x"
	.linkonce discard
	.align 2
	.globl	_ZN9__gnu_cxx17__normal_iteratorIPKN3cpr9ParameterESt6vectorIS2_SaIS2_EEEC1ERKS4_
	.def	_ZN9__gnu_cxx17__normal_iteratorIPKN3cpr9ParameterESt6vectorIS2_SaIS2_EEEC1ERKS4_;	.scl	2;	.type	32;	.endef
	.seh_proc	_ZN9__gnu_cxx17__normal_iteratorIPKN3cpr9ParameterESt6vectorIS2_SaIS2_EEEC1ERKS4_
_ZN9__gnu_cxx17__normal_iteratorIPKN3cpr9ParameterESt6vectorIS2_SaIS2_EEEC1ERKS4_:
.LFB9965:
	pushq	%rbp
	.seh_pushreg	%rbp
	movq	%rsp, %rbp
	.seh_setframe	%rbp, 0
	.seh_endprologue
	movq	%rcx, 16(%rbp)
	movq	%rdx, 24(%rbp)
	movq	24(%rbp), %rax
	movq	(%rax), %rdx
	movq	16(%rbp), %rax
	movq	%rdx, (%rax)
	nop
	popq	%rbp
	ret
	.seh_endproc
	.section	.text$_ZNK9__gnu_cxx17__normal_iteratorIPKN3cpr9ParameterESt6vectorIS2_SaIS2_EEE4baseEv,"x"
	.linkonce discard
	.align 2
	.globl	_ZNK9__gnu_cxx17__normal_iteratorIPKN3cpr9ParameterESt6vectorIS2_SaIS2_EEE4baseEv
	.def	_ZNK9__gnu_cxx17__normal_iteratorIPKN3cpr9ParameterESt6vectorIS2_SaIS2_EEE4baseEv;	.scl	2;	.type	32;	.endef
	.seh_proc	_ZNK9__gnu_cxx17__normal_iteratorIPKN3cpr9ParameterESt6vectorIS2_SaIS2_EEE4baseEv
_ZNK9__gnu_cxx17__normal_iteratorIPKN3cpr9ParameterESt6vectorIS2_SaIS2_EEE4baseEv:
.LFB9966:
	pushq	%rbp
	.seh_pushreg	%rbp
	movq	%rsp, %rbp
	.seh_setframe	%rbp, 0
	.seh_endprologue
	movq	%rcx, 16(%rbp)
	movq	16(%rbp), %rax
	popq	%rbp
	ret
	.seh_endproc
	.section	.text$_ZSt12__str_concatINSt7__cxx1112basic_stringIcSt11char_traitsIcESaIcEEEET_PKNS6_10value_typeENS6_9size_typeES9_SA_RKNS6_14allocator_typeE,"x"
	.linkonce discard
	.globl	_ZSt12__str_concatINSt7__cxx1112basic_stringIcSt11char_traitsIcESaIcEEEET_PKNS6_10value_typeENS6_9size_typeES9_SA_RKNS6_14allocator_typeE
	.def	_ZSt12__str_concatINSt7__cxx1112basic_stringIcSt11char_traitsIcESaIcEEEET_PKNS6_10value_typeENS6_9size_typeES9_SA_RKNS6_14allocator_typeE;	.scl	2;	.type	32;	.endef
	.seh_proc	_ZSt12__str_concatINSt7__cxx1112basic_stringIcSt11char_traitsIcESaIcEEEET_PKNS6_10value_typeENS6_9size_typeES9_SA_RKNS6_14allocator_typeE
_ZSt12__str_concatINSt7__cxx1112basic_stringIcSt11char_traitsIcESaIcEEEET_PKNS6_10value_typeENS6_9size_typeES9_SA_RKNS6_14allocator_typeE:
.LFB9979:
	pushq	%rbp
	.seh_pushreg	%rbp
	pushq	%rbx
	.seh_pushreg	%rbx
	subq	$104, %rsp
	.seh_stackalloc	104
	leaq	96(%rsp), %rbp
	.seh_setframe	%rbp, 96
	.seh_endprologue
	movq	%rcx, 32(%rbp)
	movq	%rdx, 40(%rbp)
	movq	%r8, 48(%rbp)
	movq	%r9, 56(%rbp)
	movq	72(%rbp), %rax
	movq	%rax, -8(%rbp)
	leaq	-49(%rbp), %rax
	movq	-8(%rbp), %rdx
	movq	%rdx, -16(%rbp)
	movq	%rax, -24(%rbp)
	movq	-16(%rbp), %rax
	movq	%rax, -32(%rbp)
	movq	-24(%rbp), %rax
	movq	%rax, -40(%rbp)
	movq	-32(%rbp), %rax
	movq	%rax, -48(%rbp)
	nop
	nop
	nop
	nop
	leaq	-49(%rbp), %rdx
	movq	32(%rbp), %rax
	movq	%rax, %rcx
	call	_ZNSt7__cxx1112basic_stringIcSt11char_traitsIcESaIcEEC1ERKS3_
	leaq	-49(%rbp), %rax
	movq	%rax, %rcx
	call	_ZNSt15__new_allocatorIcED2Ev
	nop
	movq	48(%rbp), %rdx
	movq	64(%rbp), %rax
	addq	%rax, %rdx
	movq	32(%rbp), %rax
	movq	%rax, %rcx
.LEHB27:
	call	_ZNSt7__cxx1112basic_stringIcSt11char_traitsIcESaIcEE7reserveEy
	movq	48(%rbp), %rcx
	movq	40(%rbp), %rdx
	movq	32(%rbp), %rax
	movq	%rcx, %r8
	movq	%rax, %rcx
	call	_ZNSt7__cxx1112basic_stringIcSt11char_traitsIcESaIcEE6appendEPKcy
	movq	64(%rbp), %rcx
	movq	56(%rbp), %rdx
	movq	32(%rbp), %rax
	movq	%rcx, %r8
	movq	%rax, %rcx
	call	_ZNSt7__cxx1112basic_stringIcSt11char_traitsIcESaIcEE6appendEPKcy
.LEHE27:
	jmp	.L123
.L122:
	movq	%rax, %rbx
	movq	32(%rbp), %rax
	movq	%rax, %rcx
	call	_ZNSt7__cxx1112basic_stringIcSt11char_traitsIcESaIcEED1Ev
	movq	%rbx, %rax
	movq	%rax, %rcx
.LEHB28:
	call	_Unwind_Resume
.LEHE28:
.L123:
	movq	32(%rbp), %rax
	addq	$104, %rsp
	popq	%rbx
	popq	%rbp
	ret
	.seh_handler	__gxx_personality_seh0, @unwind, @except
	.seh_handlerdata
.LLSDA9979:
	.byte	0xff
	.byte	0xff
	.byte	0x1
	.uleb128 .LLSDACSE9979-.LLSDACSB9979
.LLSDACSB9979:
	.uleb128 .LEHB27-.LFB9979
	.uleb128 .LEHE27-.LEHB27
	.uleb128 .L122-.LFB9979
	.uleb128 0
	.uleb128 .LEHB28-.LFB9979
	.uleb128 .LEHE28-.LEHB28
	.uleb128 0
	.uleb128 0
.LLSDACSE9979:
	.section	.text$_ZSt12__str_concatINSt7__cxx1112basic_stringIcSt11char_traitsIcESaIcEEEET_PKNS6_10value_typeENS6_9size_typeES9_SA_RKNS6_14allocator_typeE,"x"
	.linkonce discard
	.seh_endproc
	.section	.text$_ZN9__gnu_cxx17__normal_iteratorIPKN3cpr4PairESt6vectorIS2_SaIS2_EEEC1ERKS4_,"x"
	.linkonce discard
	.align 2
	.globl	_ZN9__gnu_cxx17__normal_iteratorIPKN3cpr4PairESt6vectorIS2_SaIS2_EEEC1ERKS4_
	.def	_ZN9__gnu_cxx17__normal_iteratorIPKN3cpr4PairESt6vectorIS2_SaIS2_EEEC1ERKS4_;	.scl	2;	.type	32;	.endef
	.seh_proc	_ZN9__gnu_cxx17__normal_iteratorIPKN3cpr4PairESt6vectorIS2_SaIS2_EEEC1ERKS4_
_ZN9__gnu_cxx17__normal_iteratorIPKN3cpr4PairESt6vectorIS2_SaIS2_EEEC1ERKS4_:
.LFB9982:
	pushq	%rbp
	.seh_pushreg	%rbp
	movq	%rsp, %rbp
	.seh_setframe	%rbp, 0
	.seh_endprologue
	movq	%rcx, 16(%rbp)
	movq	%rdx, 24(%rbp)
	movq	24(%rbp), %rax
	movq	(%rax), %rdx
	movq	16(%rbp), %rax
	movq	%rdx, (%rax)
	nop
	popq	%rbp
	ret
	.seh_endproc
	.section	.text$_ZNK9__gnu_cxx17__normal_iteratorIPKN3cpr4PairESt6vectorIS2_SaIS2_EEE4baseEv,"x"
	.linkonce discard
	.align 2
	.globl	_ZNK9__gnu_cxx17__normal_iteratorIPKN3cpr4PairESt6vectorIS2_SaIS2_EEE4baseEv
	.def	_ZNK9__gnu_cxx17__normal_iteratorIPKN3cpr4PairESt6vectorIS2_SaIS2_EEE4baseEv;	.scl	2;	.type	32;	.endef
	.seh_proc	_ZNK9__gnu_cxx17__normal_iteratorIPKN3cpr4PairESt6vectorIS2_SaIS2_EEE4baseEv
_ZNK9__gnu_cxx17__normal_iteratorIPKN3cpr4PairESt6vectorIS2_SaIS2_EEE4baseEv:
.LFB9983:
	pushq	%rbp
	.seh_pushreg	%rbp
	movq	%rsp, %rbp
	.seh_setframe	%rbp, 0
	.seh_endprologue
	movq	%rcx, 16(%rbp)
	movq	16(%rbp), %rax
	popq	%rbp
	ret
	.seh_endproc
	.section	.text$_ZNSt6vectorIN3cpr4PairESaIS1_EEC1ESt16initializer_listIS1_ERKS2_,"x"
	.linkonce discard
	.align 2
	.globl	_ZNSt6vectorIN3cpr4PairESaIS1_EEC1ESt16initializer_listIS1_ERKS2_
	.def	_ZNSt6vectorIN3cpr4PairESaIS1_EEC1ESt16initializer_listIS1_ERKS2_;	.scl	2;	.type	32;	.endef
	.seh_proc	_ZNSt6vectorIN3cpr4PairESaIS1_EEC1ESt16initializer_listIS1_ERKS2_
_ZNSt6vectorIN3cpr4PairESaIS1_EEC1ESt16initializer_listIS1_ERKS2_:
.LFB9992:
	pushq	%rbp
	.seh_pushreg	%rbp
	pushq	%rsi
	.seh_pushreg	%rsi
	pushq	%rbx
	.seh_pushreg	%rbx
	subq	$64, %rsp
	.seh_stackalloc	64
	leaq	64(%rsp), %rbp
	.seh_setframe	%rbp, 64
	.seh_endprologue
	movq	%rcx, 32(%rbp)
	movq	%rdx, %rbx
	movq	(%rbx), %rax
	movq	8(%rbx), %rdx
	movq	%rax, -32(%rbp)
	movq	%rdx, -24(%rbp)
	movq	%r8, 48(%rbp)
	movq	32(%rbp), %rax
	movq	48(%rbp), %rdx
	movq	%rax, %rcx
	call	_ZNSt12_Vector_baseIN3cpr4PairESaIS1_EEC2ERKS2_
	leaq	-32(%rbp), %rax
	movq	%rax, %rcx
	call	_ZNKSt16initializer_listIN3cpr4PairEE3endEv
	movq	%rax, %rbx
	leaq	-32(%rbp), %rax
	movq	%rax, %rcx
	call	_ZNKSt16initializer_listIN3cpr4PairEE5beginEv
	movq	%rax, %rdx
	movq	32(%rbp), %rax
	movl	%esi, %r9d
	movq	%rbx, %r8
	movq	%rax, %rcx
.LEHB29:
	call	_ZNSt6vectorIN3cpr4PairESaIS1_EE19_M_range_initializeIPKS1_EEvT_S7_St20forward_iterator_tag
.LEHE29:
	jmp	.L130
.L129:
	movq	%rax, %rbx
	movq	32(%rbp), %rax
	movq	%rax, %rcx
	call	_ZNSt12_Vector_baseIN3cpr4PairESaIS1_EED2Ev
	movq	%rbx, %rax
	movq	%rax, %rcx
.LEHB30:
	call	_Unwind_Resume
	nop
.LEHE30:
.L130:
	addq	$64, %rsp
	popq	%rbx
	popq	%rsi
	popq	%rbp
	ret
	.seh_handler	__gxx_personality_seh0, @unwind, @except
	.seh_handlerdata
.LLSDA9992:
	.byte	0xff
	.byte	0xff
	.byte	0x1
	.uleb128 .LLSDACSE9992-.LLSDACSB9992
.LLSDACSB9992:
	.uleb128 .LEHB29-.LFB9992
	.uleb128 .LEHE29-.LEHB29
	.uleb128 .L129-.LFB9992
	.uleb128 0
	.uleb128 .LEHB30-.LFB9992
	.uleb128 .LEHE30-.LEHB30
	.uleb128 0
	.uleb128 0
.LLSDACSE9992:
	.section	.text$_ZNSt6vectorIN3cpr4PairESaIS1_EEC1ESt16initializer_listIS1_ERKS2_,"x"
	.linkonce discard
	.seh_endproc
	.section	.text$_ZNKSt16initializer_listIN3cpr4PairEE5beginEv,"x"
	.linkonce discard
	.align 2
	.globl	_ZNKSt16initializer_listIN3cpr4PairEE5beginEv
	.def	_ZNKSt16initializer_listIN3cpr4PairEE5beginEv;	.scl	2;	.type	32;	.endef
	.seh_proc	_ZNKSt16initializer_listIN3cpr4PairEE5beginEv
_ZNKSt16initializer_listIN3cpr4PairEE5beginEv:
.LFB9996:
	pushq	%rbp
	.seh_pushreg	%rbp
	movq	%rsp, %rbp
	.seh_setframe	%rbp, 0
	.seh_endprologue
	movq	%rcx, 16(%rbp)
	movq	16(%rbp), %rax
	movq	(%rax), %rax
	popq	%rbp
	ret
	.seh_endproc
	.section	.text$_ZNKSt16initializer_listIN3cpr4PairEE3endEv,"x"
	.linkonce discard
	.align 2
	.globl	_ZNKSt16initializer_listIN3cpr4PairEE3endEv
	.def	_ZNKSt16initializer_listIN3cpr4PairEE3endEv;	.scl	2;	.type	32;	.endef
	.seh_proc	_ZNKSt16initializer_listIN3cpr4PairEE3endEv
_ZNKSt16initializer_listIN3cpr4PairEE3endEv:
.LFB9997:
	pushq	%rbp
	.seh_pushreg	%rbp
	pushq	%rbx
	.seh_pushreg	%rbx
	subq	$40, %rsp
	.seh_stackalloc	40
	leaq	32(%rsp), %rbp
	.seh_setframe	%rbp, 32
	.seh_endprologue
	movq	%rcx, 32(%rbp)
	movq	32(%rbp), %rax
	movq	%rax, %rcx
	call	_ZNKSt16initializer_listIN3cpr4PairEE5beginEv
	movq	%rax, %rbx
	movq	32(%rbp), %rax
	movq	%rax, %rcx
	call	_ZNKSt16initializer_listIN3cpr4PairEE4sizeEv
	salq	$6, %rax
	addq	%rbx, %rax
	addq	$40, %rsp
	popq	%rbx
	popq	%rbp
	ret
	.seh_endproc
	.section	.text$_ZSt13back_inserterISt6vectorIN3cpr4PairESaIS2_EEESt20back_insert_iteratorIT_ERS6_,"x"
	.linkonce discard
	.globl	_ZSt13back_inserterISt6vectorIN3cpr4PairESaIS2_EEESt20back_insert_iteratorIT_ERS6_
	.def	_ZSt13back_inserterISt6vectorIN3cpr4PairESaIS2_EEESt20back_insert_iteratorIT_ERS6_;	.scl	2;	.type	32;	.endef
	.seh_proc	_ZSt13back_inserterISt6vectorIN3cpr4PairESaIS2_EEESt20back_insert_iteratorIT_ERS6_
_ZSt13back_inserterISt6vectorIN3cpr4PairESaIS2_EEESt20back_insert_iteratorIT_ERS6_:
.LFB9998:
	pushq	%rbp
	.seh_pushreg	%rbp
	movq	%rsp, %rbp
	.seh_setframe	%rbp, 0
	subq	$48, %rsp
	.seh_stackalloc	48
	.seh_endprologue
	movq	%rcx, 16(%rbp)
	movq	16(%rbp), %rdx
	leaq	-8(%rbp), %rax
	movq	%rax, %rcx
	call	_ZNSt20back_insert_iteratorISt6vectorIN3cpr4PairESaIS2_EEEC1ERS4_
	movq	-8(%rbp), %rax
	addq	$48, %rsp
	popq	%rbp
	ret
	.seh_endproc
	.section	.text$_ZSt4moveIRKN3cpr4PairEEONSt16remove_referenceIT_E4typeEOS5_,"x"
	.linkonce discard
	.globl	_ZSt4moveIRKN3cpr4PairEEONSt16remove_referenceIT_E4typeEOS5_
	.def	_ZSt4moveIRKN3cpr4PairEEONSt16remove_referenceIT_E4typeEOS5_;	.scl	2;	.type	32;	.endef
	.seh_proc	_ZSt4moveIRKN3cpr4PairEEONSt16remove_referenceIT_E4typeEOS5_
_ZSt4moveIRKN3cpr4PairEEONSt16remove_referenceIT_E4typeEOS5_:
.LFB9999:
	pushq	%rbp
	.seh_pushreg	%rbp
	movq	%rsp, %rbp
	.seh_setframe	%rbp, 0
	.seh_endprologue
	movq	%rcx, 16(%rbp)
	movq	16(%rbp), %rax
	popq	%rbp
	ret
	.seh_endproc
	.section	.text$_ZSt9transformIPKN3cpr4PairESt20back_insert_iteratorISt6vectorIS1_SaIS1_EEEZNS0_13CurlContainerIS1_E3AddERKSt16initializer_listIS1_EEUlRS2_E_ET0_T_SI_SH_T1_,"x"
	.linkonce discard
	.globl	_ZSt9transformIPKN3cpr4PairESt20back_insert_iteratorISt6vectorIS1_SaIS1_EEEZNS0_13CurlContainerIS1_E3AddERKSt16initializer_listIS1_EEUlRS2_E_ET0_T_SI_SH_T1_
	.def	_ZSt9transformIPKN3cpr4PairESt20back_insert_iteratorISt6vectorIS1_SaIS1_EEEZNS0_13CurlContainerIS1_E3AddERKSt16initializer_listIS1_EEUlRS2_E_ET0_T_SI_SH_T1_;	.scl	2;	.type	32;	.endef
	.seh_proc	_ZSt9transformIPKN3cpr4PairESt20back_insert_iteratorISt6vectorIS1_SaIS1_EEEZNS0_13CurlContainerIS1_E3AddERKSt16initializer_listIS1_EEUlRS2_E_ET0_T_SI_SH_T1_
_ZSt9transformIPKN3cpr4PairESt20back_insert_iteratorISt6vectorIS1_SaIS1_EEEZNS0_13CurlContainerIS1_E3AddERKSt16initializer_listIS1_EEUlRS2_E_ET0_T_SI_SH_T1_:
.LFB10000:
	pushq	%rbp
	.seh_pushreg	%rbp
	pushq	%rbx
	.seh_pushreg	%rbx
	subq	$104, %rsp
	.seh_stackalloc	104
	leaq	96(%rsp), %rbp
	.seh_setframe	%rbp, 96
	.seh_endprologue
	movq	%rcx, 32(%rbp)
	movq	%rdx, 40(%rbp)
	movq	%r8, 48(%rbp)
	jmp	.L140
.L141:
	leaq	-64(%rbp), %rax
	movq	32(%rbp), %rcx
	leaq	56(%rbp), %rdx
	movq	%rcx, %r8
	movq	%rax, %rcx
.LEHB31:
	call	_ZZN3cpr13CurlContainerINS_4PairEE3AddERKSt16initializer_listIS1_EENKUlRKS1_E_clES8_
.LEHE31:
	leaq	48(%rbp), %rax
	movq	%rax, %rcx
	call	_ZNSt20back_insert_iteratorISt6vectorIN3cpr4PairESaIS2_EEEdeEv
	movq	%rax, %rcx
	leaq	-64(%rbp), %rax
	movq	%rax, %rdx
.LEHB32:
	call	_ZNSt20back_insert_iteratorISt6vectorIN3cpr4PairESaIS2_EEEaSEOS2_
.LEHE32:
	leaq	-64(%rbp), %rax
	movq	%rax, %rcx
	call	_ZN3cpr4PairD1Ev
	addq	$64, 32(%rbp)
	leaq	48(%rbp), %rax
	movq	%rax, %rcx
	call	_ZNSt20back_insert_iteratorISt6vectorIN3cpr4PairESaIS2_EEEppEv
.L140:
	movq	32(%rbp), %rax
	cmpq	40(%rbp), %rax
	jne	.L141
	movq	48(%rbp), %rax
	jmp	.L145
.L144:
	movq	%rax, %rbx
	leaq	-64(%rbp), %rax
	movq	%rax, %rcx
	call	_ZN3cpr4PairD1Ev
	movq	%rbx, %rax
	movq	%rax, %rcx
.LEHB33:
	call	_Unwind_Resume
.LEHE33:
.L145:
	addq	$104, %rsp
	popq	%rbx
	popq	%rbp
	ret
	.seh_handler	__gxx_personality_seh0, @unwind, @except
	.seh_handlerdata
.LLSDA10000:
	.byte	0xff
	.byte	0xff
	.byte	0x1
	.uleb128 .LLSDACSE10000-.LLSDACSB10000
.LLSDACSB10000:
	.uleb128 .LEHB31-.LFB10000
	.uleb128 .LEHE31-.LEHB31
	.uleb128 0
	.uleb128 0
	.uleb128 .LEHB32-.LFB10000
	.uleb128 .LEHE32-.LEHB32
	.uleb128 .L144-.LFB10000
	.uleb128 0
	.uleb128 .LEHB33-.LFB10000
	.uleb128 .LEHE33-.LEHB33
	.uleb128 0
	.uleb128 0
.LLSDACSE10000:
	.section	.text$_ZSt9transformIPKN3cpr4PairESt20back_insert_iteratorISt6vectorIS1_SaIS1_EEEZNS0_13CurlContainerIS1_E3AddERKSt16initializer_listIS1_EEUlRS2_E_ET0_T_SI_SH_T1_,"x"
	.linkonce discard
	.seh_endproc
	.section	.text$_ZNSt6vectorIN3cpr4PairESaIS1_EE9push_backERKS1_,"x"
	.linkonce discard
	.align 2
	.globl	_ZNSt6vectorIN3cpr4PairESaIS1_EE9push_backERKS1_
	.def	_ZNSt6vectorIN3cpr4PairESaIS1_EE9push_backERKS1_;	.scl	2;	.type	32;	.endef
	.seh_proc	_ZNSt6vectorIN3cpr4PairESaIS1_EE9push_backERKS1_
_ZNSt6vectorIN3cpr4PairESaIS1_EE9push_backERKS1_:
.LFB10001:
	pushq	%rbp
	.seh_pushreg	%rbp
	pushq	%r12
	.seh_pushreg	%r12
	pushq	%rdi
	.seh_pushreg	%rdi
	pushq	%rsi
	.seh_pushreg	%rsi
	pushq	%rbx
	.seh_pushreg	%rbx
	subq	$80, %rsp
	.seh_stackalloc	80
	leaq	80(%rsp), %rbp
	.seh_setframe	%rbp, 80
	.seh_endprologue
	movq	%rcx, 48(%rbp)
	movq	%rdx, 56(%rbp)
	movq	48(%rbp), %rax
	movq	8(%rax), %rdx
	movq	48(%rbp), %rax
	movq	16(%rax), %rax
	cmpq	%rax, %rdx
	je	.L147
	movq	48(%rbp), %rax
	movq	8(%rax), %rax
	movq	48(%rbp), %rdx
	movq	%rdx, -8(%rbp)
	movq	%rax, -16(%rbp)
	movq	56(%rbp), %rax
	movq	%rax, -24(%rbp)
	movq	-24(%rbp), %rax
	movq	%rax, %rcx
	call	_ZSt7forwardIRKN3cpr4PairEEOT_RNSt16remove_referenceIS4_E4typeE
	movq	-16(%rbp), %rdx
	movq	%rdx, -32(%rbp)
	movq	%rax, -40(%rbp)
	movq	-8(%rbp), %rax
	movq	%rax, -48(%rbp)
	movq	-32(%rbp), %rbx
	movq	%rbx, %rdx
	movl	$64, %ecx
	call	_ZnwyPv
	movq	%rax, %rsi
	movl	$1, %r12d
	movq	-40(%rbp), %rax
	movq	%rax, %rcx
	call	_ZSt7forwardIRKN3cpr4PairEEOT_RNSt16remove_referenceIS4_E4typeE
	movq	%rax, %rdx
	movq	%rsi, %rcx
.LEHB34:
	call	_ZN3cpr4PairC1ERKS0_
.LEHE34:
	nop
	nop
	movq	48(%rbp), %rax
	movq	8(%rax), %rax
	leaq	64(%rax), %rdx
	movq	48(%rbp), %rax
	movq	%rdx, 8(%rax)
	jmp	.L153
.L152:
	movq	%rax, %rdi
	testb	%r12b, %r12b
	je	.L150
	movq	%rbx, %rdx
	movq	%rsi, %rcx
	call	_ZdlPvS_
.L150:
	movq	%rdi, %rax
	movq	%rax, %rcx
.LEHB35:
	call	_Unwind_Resume
.L147:
	movq	56(%rbp), %rdx
	movq	48(%rbp), %rax
	movq	%rax, %rcx
	call	_ZNSt6vectorIN3cpr4PairESaIS1_EE17_M_realloc_appendIJRKS1_EEEvDpOT_
.LEHE35:
.L153:
	nop
	addq	$80, %rsp
	popq	%rbx
	popq	%rsi
	popq	%rdi
	popq	%r12
	popq	%rbp
	ret
	.seh_handler	__gxx_personality_seh0, @unwind, @except
	.seh_handlerdata
.LLSDA10001:
	.byte	0xff
	.byte	0xff
	.byte	0x1
	.uleb128 .LLSDACSE10001-.LLSDACSB10001
.LLSDACSB10001:
	.uleb128 .LEHB34-.LFB10001
	.uleb128 .LEHE34-.LEHB34
	.uleb128 .L152-.LFB10001
	.uleb128 0
	.uleb128 .LEHB35-.LFB10001
	.uleb128 .LEHE35-.LEHB35
	.uleb128 0
	.uleb128 0
.LLSDACSE10001:
	.section	.text$_ZNSt6vectorIN3cpr4PairESaIS1_EE9push_backERKS1_,"x"
	.linkonce discard
	.seh_endproc
	.section	.text$_ZNSt6vectorIN3cpr9ParameterESaIS1_EEC1ESt16initializer_listIS1_ERKS2_,"x"
	.linkonce discard
	.align 2
	.globl	_ZNSt6vectorIN3cpr9ParameterESaIS1_EEC1ESt16initializer_listIS1_ERKS2_
	.def	_ZNSt6vectorIN3cpr9ParameterESaIS1_EEC1ESt16initializer_listIS1_ERKS2_;	.scl	2;	.type	32;	.endef
	.seh_proc	_ZNSt6vectorIN3cpr9ParameterESaIS1_EEC1ESt16initializer_listIS1_ERKS2_
_ZNSt6vectorIN3cpr9ParameterESaIS1_EEC1ESt16initializer_listIS1_ERKS2_:
.LFB10011:
	pushq	%rbp
	.seh_pushreg	%rbp
	pushq	%rsi
	.seh_pushreg	%rsi
	pushq	%rbx
	.seh_pushreg	%rbx
	subq	$64, %rsp
	.seh_stackalloc	64
	leaq	64(%rsp), %rbp
	.seh_setframe	%rbp, 64
	.seh_endprologue
	movq	%rcx, 32(%rbp)
	movq	%rdx, %rbx
	movq	(%rbx), %rax
	movq	8(%rbx), %rdx
	movq	%rax, -32(%rbp)
	movq	%rdx, -24(%rbp)
	movq	%r8, 48(%rbp)
	movq	32(%rbp), %rax
	movq	48(%rbp), %rdx
	movq	%rax, %rcx
	call	_ZNSt12_Vector_baseIN3cpr9ParameterESaIS1_EEC2ERKS2_
	leaq	-32(%rbp), %rax
	movq	%rax, %rcx
	call	_ZNKSt16initializer_listIN3cpr9ParameterEE3endEv
	movq	%rax, %rbx
	leaq	-32(%rbp), %rax
	movq	%rax, %rcx
	call	_ZNKSt16initializer_listIN3cpr9ParameterEE5beginEv
	movq	%rax, %rdx
	movq	32(%rbp), %rax
	movl	%esi, %r9d
	movq	%rbx, %r8
	movq	%rax, %rcx
.LEHB36:
	call	_ZNSt6vectorIN3cpr9ParameterESaIS1_EE19_M_range_initializeIPKS1_EEvT_S7_St20forward_iterator_tag
.LEHE36:
	jmp	.L157
.L156:
	movq	%rax, %rbx
	movq	32(%rbp), %rax
	movq	%rax, %rcx
	call	_ZNSt12_Vector_baseIN3cpr9ParameterESaIS1_EED2Ev
	movq	%rbx, %rax
	movq	%rax, %rcx
.LEHB37:
	call	_Unwind_Resume
	nop
.LEHE37:
.L157:
	addq	$64, %rsp
	popq	%rbx
	popq	%rsi
	popq	%rbp
	ret
	.seh_handler	__gxx_personality_seh0, @unwind, @except
	.seh_handlerdata
.LLSDA10011:
	.byte	0xff
	.byte	0xff
	.byte	0x1
	.uleb128 .LLSDACSE10011-.LLSDACSB10011
.LLSDACSB10011:
	.uleb128 .LEHB36-.LFB10011
	.uleb128 .LEHE36-.LEHB36
	.uleb128 .L156-.LFB10011
	.uleb128 0
	.uleb128 .LEHB37-.LFB10011
	.uleb128 .LEHE37-.LEHB37
	.uleb128 0
	.uleb128 0
.LLSDACSE10011:
	.section	.text$_ZNSt6vectorIN3cpr9ParameterESaIS1_EEC1ESt16initializer_listIS1_ERKS2_,"x"
	.linkonce discard
	.seh_endproc
	.section	.text$_ZNKSt16initializer_listIN3cpr9ParameterEE5beginEv,"x"
	.linkonce discard
	.align 2
	.globl	_ZNKSt16initializer_listIN3cpr9ParameterEE5beginEv
	.def	_ZNKSt16initializer_listIN3cpr9ParameterEE5beginEv;	.scl	2;	.type	32;	.endef
	.seh_proc	_ZNKSt16initializer_listIN3cpr9ParameterEE5beginEv
_ZNKSt16initializer_listIN3cpr9ParameterEE5beginEv:
.LFB10015:
	pushq	%rbp
	.seh_pushreg	%rbp
	movq	%rsp, %rbp
	.seh_setframe	%rbp, 0
	.seh_endprologue
	movq	%rcx, 16(%rbp)
	movq	16(%rbp), %rax
	movq	(%rax), %rax
	popq	%rbp
	ret
	.seh_endproc
	.section	.text$_ZNKSt16initializer_listIN3cpr9ParameterEE3endEv,"x"
	.linkonce discard
	.align 2
	.globl	_ZNKSt16initializer_listIN3cpr9ParameterEE3endEv
	.def	_ZNKSt16initializer_listIN3cpr9ParameterEE3endEv;	.scl	2;	.type	32;	.endef
	.seh_proc	_ZNKSt16initializer_listIN3cpr9ParameterEE3endEv
_ZNKSt16initializer_listIN3cpr9ParameterEE3endEv:
.LFB10016:
	pushq	%rbp
	.seh_pushreg	%rbp
	pushq	%rbx
	.seh_pushreg	%rbx
	subq	$40, %rsp
	.seh_stackalloc	40
	leaq	32(%rsp), %rbp
	.seh_setframe	%rbp, 32
	.seh_endprologue
	movq	%rcx, 32(%rbp)
	movq	32(%rbp), %rax
	movq	%rax, %rcx
	call	_ZNKSt16initializer_listIN3cpr9ParameterEE5beginEv
	movq	%rax, %rbx
	movq	32(%rbp), %rax
	movq	%rax, %rcx
	call	_ZNKSt16initializer_listIN3cpr9ParameterEE4sizeEv
	salq	$6, %rax
	addq	%rbx, %rax
	addq	$40, %rsp
	popq	%rbx
	popq	%rbp
	ret
	.seh_endproc
	.section	.text$_ZSt13back_inserterISt6vectorIN3cpr9ParameterESaIS2_EEESt20back_insert_iteratorIT_ERS6_,"x"
	.linkonce discard
	.globl	_ZSt13back_inserterISt6vectorIN3cpr9ParameterESaIS2_EEESt20back_insert_iteratorIT_ERS6_
	.def	_ZSt13back_inserterISt6vectorIN3cpr9ParameterESaIS2_EEESt20back_insert_iteratorIT_ERS6_;	.scl	2;	.type	32;	.endef
	.seh_proc	_ZSt13back_inserterISt6vectorIN3cpr9ParameterESaIS2_EEESt20back_insert_iteratorIT_ERS6_
_ZSt13back_inserterISt6vectorIN3cpr9ParameterESaIS2_EEESt20back_insert_iteratorIT_ERS6_:
.LFB10017:
	pushq	%rbp
	.seh_pushreg	%rbp
	movq	%rsp, %rbp
	.seh_setframe	%rbp, 0
	subq	$48, %rsp
	.seh_stackalloc	48
	.seh_endprologue
	movq	%rcx, 16(%rbp)
	movq	16(%rbp), %rdx
	leaq	-8(%rbp), %rax
	movq	%rax, %rcx
	call	_ZNSt20back_insert_iteratorISt6vectorIN3cpr9ParameterESaIS2_EEEC1ERS4_
	movq	-8(%rbp), %rax
	addq	$48, %rsp
	popq	%rbp
	ret
	.seh_endproc
	.section	.text$_ZSt4moveIRKN3cpr9ParameterEEONSt16remove_referenceIT_E4typeEOS5_,"x"
	.linkonce discard
	.globl	_ZSt4moveIRKN3cpr9ParameterEEONSt16remove_referenceIT_E4typeEOS5_
	.def	_ZSt4moveIRKN3cpr9ParameterEEONSt16remove_referenceIT_E4typeEOS5_;	.scl	2;	.type	32;	.endef
	.seh_proc	_ZSt4moveIRKN3cpr9ParameterEEONSt16remove_referenceIT_E4typeEOS5_
_ZSt4moveIRKN3cpr9ParameterEEONSt16remove_referenceIT_E4typeEOS5_:
.LFB10018:
	pushq	%rbp
	.seh_pushreg	%rbp
	movq	%rsp, %rbp
	.seh_setframe	%rbp, 0
	.seh_endprologue
	movq	%rcx, 16(%rbp)
	movq	16(%rbp), %rax
	popq	%rbp
	ret
	.seh_endproc
	.section	.text$_ZSt9transformIPKN3cpr9ParameterESt20back_insert_iteratorISt6vectorIS1_SaIS1_EEEZNS0_13CurlContainerIS1_E3AddERKSt16initializer_listIS1_EEUlRS2_E_ET0_T_SI_SH_T1_,"x"
	.linkonce discard
	.globl	_ZSt9transformIPKN3cpr9ParameterESt20back_insert_iteratorISt6vectorIS1_SaIS1_EEEZNS0_13CurlContainerIS1_E3AddERKSt16initializer_listIS1_EEUlRS2_E_ET0_T_SI_SH_T1_
	.def	_ZSt9transformIPKN3cpr9ParameterESt20back_insert_iteratorISt6vectorIS1_SaIS1_EEEZNS0_13CurlContainerIS1_E3AddERKSt16initializer_listIS1_EEUlRS2_E_ET0_T_SI_SH_T1_;	.scl	2;	.type	32;	.endef
	.seh_proc	_ZSt9transformIPKN3cpr9ParameterESt20back_insert_iteratorISt6vectorIS1_SaIS1_EEEZNS0_13CurlContainerIS1_E3AddERKSt16initializer_listIS1_EEUlRS2_E_ET0_T_SI_SH_T1_
_ZSt9transformIPKN3cpr9ParameterESt20back_insert_iteratorISt6vectorIS1_SaIS1_EEEZNS0_13CurlContainerIS1_E3AddERKSt16initializer_listIS1_EEUlRS2_E_ET0_T_SI_SH_T1_:
.LFB10019:
	pushq	%rbp
	.seh_pushreg	%rbp
	pushq	%rbx
	.seh_pushreg	%rbx
	subq	$104, %rsp
	.seh_stackalloc	104
	leaq	96(%rsp), %rbp
	.seh_setframe	%rbp, 96
	.seh_endprologue
	movq	%rcx, 32(%rbp)
	movq	%rdx, 40(%rbp)
	movq	%r8, 48(%rbp)
	jmp	.L167
.L168:
	leaq	-64(%rbp), %rax
	movq	32(%rbp), %rcx
	leaq	56(%rbp), %rdx
	movq	%rcx, %r8
	movq	%rax, %rcx
.LEHB38:
	call	_ZZN3cpr13CurlContainerINS_9ParameterEE3AddERKSt16initializer_listIS1_EENKUlRKS1_E_clES8_
.LEHE38:
	leaq	48(%rbp), %rax
	movq	%rax, %rcx
	call	_ZNSt20back_insert_iteratorISt6vectorIN3cpr9ParameterESaIS2_EEEdeEv
	movq	%rax, %rcx
	leaq	-64(%rbp), %rax
	movq	%rax, %rdx
.LEHB39:
	call	_ZNSt20back_insert_iteratorISt6vectorIN3cpr9ParameterESaIS2_EEEaSEOS2_
.LEHE39:
	leaq	-64(%rbp), %rax
	movq	%rax, %rcx
	call	_ZN3cpr9ParameterD1Ev
	addq	$64, 32(%rbp)
	leaq	48(%rbp), %rax
	movq	%rax, %rcx
	call	_ZNSt20back_insert_iteratorISt6vectorIN3cpr9ParameterESaIS2_EEEppEv
.L167:
	movq	32(%rbp), %rax
	cmpq	40(%rbp), %rax
	jne	.L168
	movq	48(%rbp), %rax
	jmp	.L172
.L171:
	movq	%rax, %rbx
	leaq	-64(%rbp), %rax
	movq	%rax, %rcx
	call	_ZN3cpr9ParameterD1Ev
	movq	%rbx, %rax
	movq	%rax, %rcx
.LEHB40:
	call	_Unwind_Resume
.LEHE40:
.L172:
	addq	$104, %rsp
	popq	%rbx
	popq	%rbp
	ret
	.seh_handler	__gxx_personality_seh0, @unwind, @except
	.seh_handlerdata
.LLSDA10019:
	.byte	0xff
	.byte	0xff
	.byte	0x1
	.uleb128 .LLSDACSE10019-.LLSDACSB10019
.LLSDACSB10019:
	.uleb128 .LEHB38-.LFB10019
	.uleb128 .LEHE38-.LEHB38
	.uleb128 0
	.uleb128 0
	.uleb128 .LEHB39-.LFB10019
	.uleb128 .LEHE39-.LEHB39
	.uleb128 .L171-.LFB10019
	.uleb128 0
	.uleb128 .LEHB40-.LFB10019
	.uleb128 .LEHE40-.LEHB40
	.uleb128 0
	.uleb128 0
.LLSDACSE10019:
	.section	.text$_ZSt9transformIPKN3cpr9ParameterESt20back_insert_iteratorISt6vectorIS1_SaIS1_EEEZNS0_13CurlContainerIS1_E3AddERKSt16initializer_listIS1_EEUlRS2_E_ET0_T_SI_SH_T1_,"x"
	.linkonce discard
	.seh_endproc
	.section	.text$_ZNSt6vectorIN3cpr9ParameterESaIS1_EE9push_backERKS1_,"x"
	.linkonce discard
	.align 2
	.globl	_ZNSt6vectorIN3cpr9ParameterESaIS1_EE9push_backERKS1_
	.def	_ZNSt6vectorIN3cpr9ParameterESaIS1_EE9push_backERKS1_;	.scl	2;	.type	32;	.endef
	.seh_proc	_ZNSt6vectorIN3cpr9ParameterESaIS1_EE9push_backERKS1_
_ZNSt6vectorIN3cpr9ParameterESaIS1_EE9push_backERKS1_:
.LFB10020:
	pushq	%rbp
	.seh_pushreg	%rbp
	pushq	%r12
	.seh_pushreg	%r12
	pushq	%rdi
	.seh_pushreg	%rdi
	pushq	%rsi
	.seh_pushreg	%rsi
	pushq	%rbx
	.seh_pushreg	%rbx
	subq	$80, %rsp
	.seh_stackalloc	80
	leaq	80(%rsp), %rbp
	.seh_setframe	%rbp, 80
	.seh_endprologue
	movq	%rcx, 48(%rbp)
	movq	%rdx, 56(%rbp)
	movq	48(%rbp), %rax
	movq	8(%rax), %rdx
	movq	48(%rbp), %rax
	movq	16(%rax), %rax
	cmpq	%rax, %rdx
	je	.L174
	movq	48(%rbp), %rax
	movq	8(%rax), %rax
	movq	48(%rbp), %rdx
	movq	%rdx, -8(%rbp)
	movq	%rax, -16(%rbp)
	movq	56(%rbp), %rax
	movq	%rax, -24(%rbp)
	movq	-24(%rbp), %rax
	movq	%rax, %rcx
	call	_ZSt7forwardIRKN3cpr9ParameterEEOT_RNSt16remove_referenceIS4_E4typeE
	movq	-16(%rbp), %rdx
	movq	%rdx, -32(%rbp)
	movq	%rax, -40(%rbp)
	movq	-8(%rbp), %rax
	movq	%rax, -48(%rbp)
	movq	-32(%rbp), %rbx
	movq	%rbx, %rdx
	movl	$64, %ecx
	call	_ZnwyPv
	movq	%rax, %rsi
	movl	$1, %r12d
	movq	-40(%rbp), %rax
	movq	%rax, %rcx
	call	_ZSt7forwardIRKN3cpr9ParameterEEOT_RNSt16remove_referenceIS4_E4typeE
	movq	%rax, %rdx
	movq	%rsi, %rcx
.LEHB41:
	call	_ZN3cpr9ParameterC1ERKS0_
.LEHE41:
	nop
	nop
	movq	48(%rbp), %rax
	movq	8(%rax), %rax
	leaq	64(%rax), %rdx
	movq	48(%rbp), %rax
	movq	%rdx, 8(%rax)
	jmp	.L180
.L179:
	movq	%rax, %rdi
	testb	%r12b, %r12b
	je	.L177
	movq	%rbx, %rdx
	movq	%rsi, %rcx
	call	_ZdlPvS_
.L177:
	movq	%rdi, %rax
	movq	%rax, %rcx
.LEHB42:
	call	_Unwind_Resume
.L174:
	movq	56(%rbp), %rdx
	movq	48(%rbp), %rax
	movq	%rax, %rcx
	call	_ZNSt6vectorIN3cpr9ParameterESaIS1_EE17_M_realloc_appendIJRKS1_EEEvDpOT_
.LEHE42:
.L180:
	nop
	addq	$80, %rsp
	popq	%rbx
	popq	%rsi
	popq	%rdi
	popq	%r12
	popq	%rbp
	ret
	.seh_handler	__gxx_personality_seh0, @unwind, @except
	.seh_handlerdata
.LLSDA10020:
	.byte	0xff
	.byte	0xff
	.byte	0x1
	.uleb128 .LLSDACSE10020-.LLSDACSB10020
.LLSDACSB10020:
	.uleb128 .LEHB41-.LFB10020
	.uleb128 .LEHE41-.LEHB41
	.uleb128 .L179-.LFB10020
	.uleb128 0
	.uleb128 .LEHB42-.LFB10020
	.uleb128 .LEHE42-.LEHB42
	.uleb128 0
	.uleb128 0
.LLSDACSE10020:
	.section	.text$_ZNSt6vectorIN3cpr9ParameterESaIS1_EE9push_backERKS1_,"x"
	.linkonce discard
	.seh_endproc
	.section	.text$_ZNSt15__new_allocatorIN3cpr4PairEED2Ev,"x"
	.linkonce discard
	.align 2
	.globl	_ZNSt15__new_allocatorIN3cpr4PairEED2Ev
	.def	_ZNSt15__new_allocatorIN3cpr4PairEED2Ev;	.scl	2;	.type	32;	.endef
	.seh_proc	_ZNSt15__new_allocatorIN3cpr4PairEED2Ev
_ZNSt15__new_allocatorIN3cpr4PairEED2Ev:
.LFB10095:
	pushq	%rbp
	.seh_pushreg	%rbp
	movq	%rsp, %rbp
	.seh_setframe	%rbp, 0
	.seh_endprologue
	movq	%rcx, 16(%rbp)
	nop
	popq	%rbp
	ret
	.seh_endproc
	.section	.text$_ZNSt12_Vector_baseIN3cpr4PairESaIS1_EE12_Vector_implD1Ev,"x"
	.linkonce discard
	.align 2
	.globl	_ZNSt12_Vector_baseIN3cpr4PairESaIS1_EE12_Vector_implD1Ev
	.def	_ZNSt12_Vector_baseIN3cpr4PairESaIS1_EE12_Vector_implD1Ev;	.scl	2;	.type	32;	.endef
	.seh_proc	_ZNSt12_Vector_baseIN3cpr4PairESaIS1_EE12_Vector_implD1Ev
_ZNSt12_Vector_baseIN3cpr4PairESaIS1_EE12_Vector_implD1Ev:
.LFB10100:
	pushq	%rbp
	.seh_pushreg	%rbp
	movq	%rsp, %rbp
	.seh_setframe	%rbp, 0
	subq	$48, %rsp
	.seh_stackalloc	48
	.seh_endprologue
	movq	%rcx, 16(%rbp)
	movq	16(%rbp), %rax
	movq	%rax, -8(%rbp)
	movq	-8(%rbp), %rax
	movq	%rax, %rcx
	call	_ZNSt15__new_allocatorIN3cpr4PairEED2Ev
	nop
	nop
	addq	$48, %rsp
	popq	%rbp
	ret
	.seh_endproc
	.section	.text$_ZNSt12_Vector_baseIN3cpr4PairESaIS1_EEC2ERKS2_,"x"
	.linkonce discard
	.align 2
	.globl	_ZNSt12_Vector_baseIN3cpr4PairESaIS1_EEC2ERKS2_
	.def	_ZNSt12_Vector_baseIN3cpr4PairESaIS1_EEC2ERKS2_;	.scl	2;	.type	32;	.endef
	.seh_proc	_ZNSt12_Vector_baseIN3cpr4PairESaIS1_EEC2ERKS2_
_ZNSt12_Vector_baseIN3cpr4PairESaIS1_EEC2ERKS2_:
.LFB10101:
	pushq	%rbp
	.seh_pushreg	%rbp
	movq	%rsp, %rbp
	.seh_setframe	%rbp, 0
	subq	$32, %rsp
	.seh_stackalloc	32
	.seh_endprologue
	movq	%rcx, 16(%rbp)
	movq	%rdx, 24(%rbp)
	movq	16(%rbp), %rax
	movq	24(%rbp), %rdx
	movq	%rax, %rcx
	call	_ZNSt12_Vector_baseIN3cpr4PairESaIS1_EE12_Vector_implC1ERKS2_
	nop
	addq	$32, %rsp
	popq	%rbp
	ret
	.seh_endproc
	.section	.text$_ZNSt12_Vector_baseIN3cpr4PairESaIS1_EED2Ev,"x"
	.linkonce discard
	.align 2
	.globl	_ZNSt12_Vector_baseIN3cpr4PairESaIS1_EED2Ev
	.def	_ZNSt12_Vector_baseIN3cpr4PairESaIS1_EED2Ev;	.scl	2;	.type	32;	.endef
	.seh_proc	_ZNSt12_Vector_baseIN3cpr4PairESaIS1_EED2Ev
_ZNSt12_Vector_baseIN3cpr4PairESaIS1_EED2Ev:
.LFB10104:
	pushq	%rbp
	.seh_pushreg	%rbp
	movq	%rsp, %rbp
	.seh_setframe	%rbp, 0
	subq	$32, %rsp
	.seh_stackalloc	32
	.seh_endprologue
	movq	%rcx, 16(%rbp)
	movq	16(%rbp), %rax
	movq	16(%rax), %rdx
	movq	16(%rbp), %rax
	movq	(%rax), %rax
	subq	%rax, %rdx
	movq	%rdx, %rax
	sarq	$6, %rax
	movq	%rax, %rcx
	movq	16(%rbp), %rax
	movq	(%rax), %rdx
	movq	16(%rbp), %rax
	movq	%rcx, %r8
	movq	%rax, %rcx
	call	_ZNSt12_Vector_baseIN3cpr4PairESaIS1_EE13_M_deallocateEPS1_y
	movq	16(%rbp), %rax
	movq	%rax, %rcx
	call	_ZNSt12_Vector_baseIN3cpr4PairESaIS1_EE12_Vector_implD1Ev
	nop
	addq	$32, %rsp
	popq	%rbp
	ret
	.seh_handler	__gxx_personality_seh0, @unwind, @except
	.seh_handlerdata
.LLSDA10104:
	.byte	0xff
	.byte	0xff
	.byte	0x1
	.uleb128 .LLSDACSE10104-.LLSDACSB10104
.LLSDACSB10104:
.LLSDACSE10104:
	.section	.text$_ZNSt12_Vector_baseIN3cpr4PairESaIS1_EED2Ev,"x"
	.linkonce discard
	.seh_endproc
	.section	.text$_ZNSt6vectorIN3cpr4PairESaIS1_EE19_M_range_initializeIPKS1_EEvT_S7_St20forward_iterator_tag,"x"
	.linkonce discard
	.align 2
	.globl	_ZNSt6vectorIN3cpr4PairESaIS1_EE19_M_range_initializeIPKS1_EEvT_S7_St20forward_iterator_tag
	.def	_ZNSt6vectorIN3cpr4PairESaIS1_EE19_M_range_initializeIPKS1_EEvT_S7_St20forward_iterator_tag;	.scl	2;	.type	32;	.endef
	.seh_proc	_ZNSt6vectorIN3cpr4PairESaIS1_EE19_M_range_initializeIPKS1_EEvT_S7_St20forward_iterator_tag
_ZNSt6vectorIN3cpr4PairESaIS1_EE19_M_range_initializeIPKS1_EEvT_S7_St20forward_iterator_tag:
.LFB10106:
	pushq	%rbp
	.seh_pushreg	%rbp
	pushq	%rbx
	.seh_pushreg	%rbx
	subq	$88, %rsp
	.seh_stackalloc	88
	leaq	80(%rsp), %rbp
	.seh_setframe	%rbp, 80
	.seh_endprologue
	movq	%rcx, 32(%rbp)
	movq	%rdx, 40(%rbp)
	movq	%r8, 48(%rbp)
	movq	40(%rbp), %rax
	movq	%rax, -40(%rbp)
	movq	48(%rbp), %rax
	movq	%rax, -16(%rbp)
	nop
	movq	-40(%rbp), %rax
	movq	%rax, -24(%rbp)
	movq	-16(%rbp), %rax
	movq	%rax, -32(%rbp)
	movq	-32(%rbp), %rax
	subq	-24(%rbp), %rax
	sarq	$6, %rax
	nop
	movq	%rax, -8(%rbp)
	movq	32(%rbp), %rbx
	movq	32(%rbp), %rax
	movq	%rax, %rcx
	call	_ZNSt12_Vector_baseIN3cpr4PairESaIS1_EE19_M_get_Tp_allocatorEv
	movq	%rax, %rdx
	movq	-8(%rbp), %rax
	movq	%rax, %rcx
	call	_ZNSt6vectorIN3cpr4PairESaIS1_EE17_S_check_init_lenEyRKS2_
	movq	%rax, %rdx
	movq	%rbx, %rcx
	call	_ZNSt12_Vector_baseIN3cpr4PairESaIS1_EE11_M_allocateEy
	movq	32(%rbp), %rdx
	movq	%rax, (%rdx)
	movq	32(%rbp), %rax
	movq	(%rax), %rax
	movq	-8(%rbp), %rdx
	salq	$6, %rdx
	addq	%rax, %rdx
	movq	32(%rbp), %rax
	movq	%rdx, 16(%rax)
	movq	32(%rbp), %rax
	movq	%rax, %rcx
	call	_ZNSt12_Vector_baseIN3cpr4PairESaIS1_EE19_M_get_Tp_allocatorEv
	movq	%rax, %rcx
	movq	32(%rbp), %rax
	movq	(%rax), %r8
	movq	48(%rbp), %rdx
	movq	40(%rbp), %rax
	movq	%rcx, %r9
	movq	%rax, %rcx
	call	_ZSt22__uninitialized_copy_aIPKN3cpr4PairEPS1_S1_ET0_T_S6_S5_RSaIT1_E
	movq	32(%rbp), %rdx
	movq	%rax, 8(%rdx)
	nop
	addq	$88, %rsp
	popq	%rbx
	popq	%rbp
	ret
	.seh_endproc
	.section	.text$_ZNSt12_Vector_baseIN3cpr4PairESaIS1_EE19_M_get_Tp_allocatorEv,"x"
	.linkonce discard
	.align 2
	.globl	_ZNSt12_Vector_baseIN3cpr4PairESaIS1_EE19_M_get_Tp_allocatorEv
	.def	_ZNSt12_Vector_baseIN3cpr4PairESaIS1_EE19_M_get_Tp_allocatorEv;	.scl	2;	.type	32;	.endef
	.seh_proc	_ZNSt12_Vector_baseIN3cpr4PairESaIS1_EE19_M_get_Tp_allocatorEv
_ZNSt12_Vector_baseIN3cpr4PairESaIS1_EE19_M_get_Tp_allocatorEv:
.LFB10108:
	pushq	%rbp
	.seh_pushreg	%rbp
	movq	%rsp, %rbp
	.seh_setframe	%rbp, 0
	.seh_endprologue
	movq	%rcx, 16(%rbp)
	movq	16(%rbp), %rax
	popq	%rbp
	ret
	.seh_endproc
	.section	.text$_ZNKSt16initializer_listIN3cpr4PairEE4sizeEv,"x"
	.linkonce discard
	.align 2
	.globl	_ZNKSt16initializer_listIN3cpr4PairEE4sizeEv
	.def	_ZNKSt16initializer_listIN3cpr4PairEE4sizeEv;	.scl	2;	.type	32;	.endef
	.seh_proc	_ZNKSt16initializer_listIN3cpr4PairEE4sizeEv
_ZNKSt16initializer_listIN3cpr4PairEE4sizeEv:
.LFB10110:
	pushq	%rbp
	.seh_pushreg	%rbp
	movq	%rsp, %rbp
	.seh_setframe	%rbp, 0
	.seh_endprologue
	movq	%rcx, 16(%rbp)
	movq	16(%rbp), %rax
	movq	8(%rax), %rax
	popq	%rbp
	ret
	.seh_endproc
	.section	.text$_ZNSt20back_insert_iteratorISt6vectorIN3cpr4PairESaIS2_EEEC1ERS4_,"x"
	.linkonce discard
	.align 2
	.globl	_ZNSt20back_insert_iteratorISt6vectorIN3cpr4PairESaIS2_EEEC1ERS4_
	.def	_ZNSt20back_insert_iteratorISt6vectorIN3cpr4PairESaIS2_EEEC1ERS4_;	.scl	2;	.type	32;	.endef
	.seh_proc	_ZNSt20back_insert_iteratorISt6vectorIN3cpr4PairESaIS2_EEEC1ERS4_
_ZNSt20back_insert_iteratorISt6vectorIN3cpr4PairESaIS2_EEEC1ERS4_:
.LFB10113:
	pushq	%rbp
	.seh_pushreg	%rbp
	movq	%rsp, %rbp
	.seh_setframe	%rbp, 0
	subq	$32, %rsp
	.seh_stackalloc	32
	.seh_endprologue
	movq	%rcx, 16(%rbp)
	movq	%rdx, 24(%rbp)
	movq	24(%rbp), %rax
	movq	%rax, %rcx
	call	_ZSt11__addressofISt6vectorIN3cpr4PairESaIS2_EEEPT_RS5_
	movq	16(%rbp), %rdx
	movq	%rax, (%rdx)
	nop
	addq	$32, %rsp
	popq	%rbp
	ret
	.seh_endproc
	.section	.text$_ZNSt20back_insert_iteratorISt6vectorIN3cpr4PairESaIS2_EEEppEv,"x"
	.linkonce discard
	.align 2
	.globl	_ZNSt20back_insert_iteratorISt6vectorIN3cpr4PairESaIS2_EEEppEv
	.def	_ZNSt20back_insert_iteratorISt6vectorIN3cpr4PairESaIS2_EEEppEv;	.scl	2;	.type	32;	.endef
	.seh_proc	_ZNSt20back_insert_iteratorISt6vectorIN3cpr4PairESaIS2_EEEppEv
_ZNSt20back_insert_iteratorISt6vectorIN3cpr4PairESaIS2_EEEppEv:
.LFB10114:
	pushq	%rbp
	.seh_pushreg	%rbp
	movq	%rsp, %rbp
	.seh_setframe	%rbp, 0
	.seh_endprologue
	movq	%rcx, 16(%rbp)
	movq	16(%rbp), %rax
	popq	%rbp
	ret
	.seh_endproc
	.section	.text$_ZNSt20back_insert_iteratorISt6vectorIN3cpr4PairESaIS2_EEEdeEv,"x"
	.linkonce discard
	.align 2
	.globl	_ZNSt20back_insert_iteratorISt6vectorIN3cpr4PairESaIS2_EEEdeEv
	.def	_ZNSt20back_insert_iteratorISt6vectorIN3cpr4PairESaIS2_EEEdeEv;	.scl	2;	.type	32;	.endef
	.seh_proc	_ZNSt20back_insert_iteratorISt6vectorIN3cpr4PairESaIS2_EEEdeEv
_ZNSt20back_insert_iteratorISt6vectorIN3cpr4PairESaIS2_EEEdeEv:
.LFB10115:
	pushq	%rbp
	.seh_pushreg	%rbp
	movq	%rsp, %rbp
	.seh_setframe	%rbp, 0
	.seh_endprologue
	movq	%rcx, 16(%rbp)
	movq	16(%rbp), %rax
	popq	%rbp
	ret
	.seh_endproc
	.section	.text$_ZNSt20back_insert_iteratorISt6vectorIN3cpr4PairESaIS2_EEEaSEOS2_,"x"
	.linkonce discard
	.align 2
	.globl	_ZNSt20back_insert_iteratorISt6vectorIN3cpr4PairESaIS2_EEEaSEOS2_
	.def	_ZNSt20back_insert_iteratorISt6vectorIN3cpr4PairESaIS2_EEEaSEOS2_;	.scl	2;	.type	32;	.endef
	.seh_proc	_ZNSt20back_insert_iteratorISt6vectorIN3cpr4PairESaIS2_EEEaSEOS2_
_ZNSt20back_insert_iteratorISt6vectorIN3cpr4PairESaIS2_EEEaSEOS2_:
.LFB10116:
	pushq	%rbp
	.seh_pushreg	%rbp
	pushq	%rbx
	.seh_pushreg	%rbx
	subq	$40, %rsp
	.seh_stackalloc	40
	leaq	32(%rsp), %rbp
	.seh_setframe	%rbp, 32
	.seh_endprologue
	movq	%rcx, 32(%rbp)
	movq	%rdx, 40(%rbp)
	movq	32(%rbp), %rax
	movq	(%rax), %rbx
	movq	40(%rbp), %rax
	movq	%rax, %rcx
	call	_ZSt4moveIRN3cpr4PairEEONSt16remove_referenceIT_E4typeEOS4_
	movq	%rax, %rdx
	movq	%rbx, %rcx
	call	_ZNSt6vectorIN3cpr4PairESaIS1_EE9push_backEOS1_
	movq	32(%rbp), %rax
	addq	$40, %rsp
	popq	%rbx
	popq	%rbp
	ret
	.seh_endproc
	.section	.text$_ZZNSt6vectorIN3cpr4PairESaIS1_EE17_M_realloc_appendIJRKS1_EEEvDpOT_EN6_GuardC1EPS1_yRS2_,"x"
	.linkonce discard
	.align 2
	.globl	_ZZNSt6vectorIN3cpr4PairESaIS1_EE17_M_realloc_appendIJRKS1_EEEvDpOT_EN6_GuardC1EPS1_yRS2_
	.def	_ZZNSt6vectorIN3cpr4PairESaIS1_EE17_M_realloc_appendIJRKS1_EEEvDpOT_EN6_GuardC1EPS1_yRS2_;	.scl	2;	.type	32;	.endef
	.seh_proc	_ZZNSt6vectorIN3cpr4PairESaIS1_EE17_M_realloc_appendIJRKS1_EEEvDpOT_EN6_GuardC1EPS1_yRS2_
_ZZNSt6vectorIN3cpr4PairESaIS1_EE17_M_realloc_appendIJRKS1_EEEvDpOT_EN6_GuardC1EPS1_yRS2_:
.LFB10121:
	pushq	%rbp
	.seh_pushreg	%rbp
	movq	%rsp, %rbp
	.seh_setframe	%rbp, 0
	.seh_endprologue
	movq	%rcx, 16(%rbp)
	movq	%rdx, 24(%rbp)
	movq	%r8, 32(%rbp)
	movq	%r9, 40(%rbp)
	movq	16(%rbp), %rax
	movq	24(%rbp), %rdx
	movq	%rdx, (%rax)
	movq	16(%rbp), %rax
	movq	32(%rbp), %rdx
	movq	%rdx, 8(%rax)
	movq	16(%rbp), %rax
	movq	40(%rbp), %rdx
	movq	%rdx, 16(%rax)
	nop
	popq	%rbp
	ret
	.seh_endproc
	.section	.text$_ZZNSt6vectorIN3cpr4PairESaIS1_EE17_M_realloc_appendIJRKS1_EEEvDpOT_EN6_GuardD1Ev,"x"
	.linkonce discard
	.align 2
	.globl	_ZZNSt6vectorIN3cpr4PairESaIS1_EE17_M_realloc_appendIJRKS1_EEEvDpOT_EN6_GuardD1Ev
	.def	_ZZNSt6vectorIN3cpr4PairESaIS1_EE17_M_realloc_appendIJRKS1_EEEvDpOT_EN6_GuardD1Ev;	.scl	2;	.type	32;	.endef
	.seh_proc	_ZZNSt6vectorIN3cpr4PairESaIS1_EE17_M_realloc_appendIJRKS1_EEEvDpOT_EN6_GuardD1Ev
_ZZNSt6vectorIN3cpr4PairESaIS1_EE17_M_realloc_appendIJRKS1_EEEvDpOT_EN6_GuardD1Ev:
.LFB10124:
	pushq	%rbp
	.seh_pushreg	%rbp
	movq	%rsp, %rbp
	.seh_setframe	%rbp, 0
	subq	$64, %rsp
	.seh_stackalloc	64
	.seh_endprologue
	movq	%rcx, 16(%rbp)
	movq	16(%rbp), %rax
	movq	(%rax), %rax
	testq	%rax, %rax
	je	.L203
	movq	16(%rbp), %rax
	movq	8(%rax), %rax
	movq	16(%rbp), %rdx
	movq	(%rdx), %rdx
	movq	16(%rbp), %rcx
	movq	16(%rcx), %rcx
	movq	%rcx, -8(%rbp)
	movq	%rdx, -16(%rbp)
	movq	%rax, -24(%rbp)
	movq	-24(%rbp), %rcx
	movq	-16(%rbp), %rdx
	movq	-8(%rbp), %rax
	movq	%rcx, %r8
	movq	%rax, %rcx
	call	_ZNSt15__new_allocatorIN3cpr4PairEE10deallocateEPS1_y
	nop
.L203:
	nop
	addq	$64, %rsp
	popq	%rbp
	ret
	.seh_endproc
	.section .rdata,"dr"
.LC2:
	.ascii "vector::_M_realloc_append\0"
	.section	.text$_ZNSt6vectorIN3cpr4PairESaIS1_EE17_M_realloc_appendIJRKS1_EEEvDpOT_,"x"
	.linkonce discard
	.align 2
	.globl	_ZNSt6vectorIN3cpr4PairESaIS1_EE17_M_realloc_appendIJRKS1_EEEvDpOT_
	.def	_ZNSt6vectorIN3cpr4PairESaIS1_EE17_M_realloc_appendIJRKS1_EEEvDpOT_;	.scl	2;	.type	32;	.endef
	.seh_proc	_ZNSt6vectorIN3cpr4PairESaIS1_EE17_M_realloc_appendIJRKS1_EEEvDpOT_
_ZNSt6vectorIN3cpr4PairESaIS1_EE17_M_realloc_appendIJRKS1_EEEvDpOT_:
.LFB10118:
	pushq	%rbp
	.seh_pushreg	%rbp
	pushq	%r12
	.seh_pushreg	%r12
	pushq	%rdi
	.seh_pushreg	%rdi
	pushq	%rsi
	.seh_pushreg	%rsi
	pushq	%rbx
	.seh_pushreg	%rbx
	subq	$176, %rsp
	.seh_stackalloc	176
	leaq	176(%rsp), %rbp
	.seh_setframe	%rbp, 176
	.seh_endprologue
	movq	%rcx, 48(%rbp)
	movq	%rdx, 56(%rbp)
	movq	48(%rbp), %rax
	leaq	.LC2(%rip), %r8
	movl	$1, %edx
	movq	%rax, %rcx
.LEHB43:
	call	_ZNKSt6vectorIN3cpr4PairESaIS1_EE12_M_check_lenEyPKc
	movq	%rax, -8(%rbp)
	cmpq	$0, -8(%rbp)
	movq	48(%rbp), %rax
	movq	(%rax), %rax
	movq	%rax, -16(%rbp)
	movq	48(%rbp), %rax
	movq	8(%rax), %rax
	movq	%rax, -24(%rbp)
	movq	48(%rbp), %rax
	movq	%rax, %rcx
	call	_ZNSt6vectorIN3cpr4PairESaIS1_EE5beginEv
	movq	%rax, -112(%rbp)
	movq	48(%rbp), %rax
	movq	%rax, %rcx
	call	_ZNSt6vectorIN3cpr4PairESaIS1_EE3endEv
	movq	%rax, -104(%rbp)
	leaq	-112(%rbp), %rdx
	leaq	-104(%rbp), %rax
	movq	%rax, %rcx
	call	_ZN9__gnu_cxxmiIPN3cpr4PairESt6vectorIS2_SaIS2_EEEENS_17__normal_iteratorIT_T0_E15difference_typeERKSA_SD_
	movq	%rax, -32(%rbp)
	movq	48(%rbp), %rax
	movq	-8(%rbp), %rdx
	movq	%rax, %rcx
	call	_ZNSt12_Vector_baseIN3cpr4PairESaIS1_EE11_M_allocateEy
.LEHE43:
	movq	%rax, -40(%rbp)
	movq	-40(%rbp), %rax
	movq	%rax, -48(%rbp)
	movq	48(%rbp), %r8
	movq	-8(%rbp), %rcx
	movq	-40(%rbp), %rdx
	leaq	-144(%rbp), %rax
	movq	%r8, %r9
	movq	%rcx, %r8
	movq	%rax, %rcx
	call	_ZZNSt6vectorIN3cpr4PairESaIS1_EE17_M_realloc_appendIJRKS1_EEEvDpOT_EN6_GuardC1EPS1_yRS2_
	movq	56(%rbp), %rax
	movq	%rax, %rcx
	call	_ZSt7forwardIRKN3cpr4PairEEOT_RNSt16remove_referenceIS4_E4typeE
	movq	%rax, %rbx
	movq	-32(%rbp), %rax
	salq	$6, %rax
	movq	%rax, %rdx
	movq	-40(%rbp), %rax
	addq	%rdx, %rax
	movq	%rax, %rcx
	call	_ZSt12__to_addressIN3cpr4PairEEPT_S3_
	movq	48(%rbp), %rdx
	movq	%rdx, -56(%rbp)
	movq	%rax, -64(%rbp)
	movq	%rbx, -72(%rbp)
	movq	-72(%rbp), %rax
	movq	%rax, %rcx
	call	_ZSt7forwardIRKN3cpr4PairEEOT_RNSt16remove_referenceIS4_E4typeE
	movq	-64(%rbp), %rdx
	movq	%rdx, -80(%rbp)
	movq	%rax, -88(%rbp)
	movq	-56(%rbp), %rax
	movq	%rax, -96(%rbp)
	movq	-80(%rbp), %rbx
	movq	%rbx, %rdx
	movl	$64, %ecx
	call	_ZnwyPv
	movq	%rax, %rsi
	movl	$1, %r12d
	movq	-88(%rbp), %rax
	movq	%rax, %rcx
	call	_ZSt7forwardIRKN3cpr4PairEEOT_RNSt16remove_referenceIS4_E4typeE
	movq	%rax, %rdx
	movq	%rsi, %rcx
.LEHB44:
	call	_ZN3cpr4PairC1ERKS0_
.LEHE44:
	jmp	.L210
.L209:
	movq	%rax, %rdi
	testb	%r12b, %r12b
	je	.L208
	movq	%rbx, %rdx
	movq	%rsi, %rcx
	call	_ZdlPvS_
.L208:
	movq	%rdi, %rbx
	leaq	-144(%rbp), %rax
	movq	%rax, %rcx
	call	_ZZNSt6vectorIN3cpr4PairESaIS1_EE17_M_realloc_appendIJRKS1_EEEvDpOT_EN6_GuardD1Ev
	movq	%rbx, %rax
	movq	%rax, %rcx
.LEHB45:
	call	_Unwind_Resume
.LEHE45:
.L210:
	nop
	movq	48(%rbp), %rax
	movq	%rax, %rcx
	call	_ZNSt12_Vector_baseIN3cpr4PairESaIS1_EE19_M_get_Tp_allocatorEv
	movq	%rax, %rcx
	movq	-40(%rbp), %r8
	movq	-24(%rbp), %rdx
	movq	-16(%rbp), %rax
	movq	%rcx, %r9
	movq	%rax, %rcx
	call	_ZNSt6vectorIN3cpr4PairESaIS1_EE11_S_relocateEPS1_S4_S4_RS2_
	movq	%rax, -48(%rbp)
	addq	$64, -48(%rbp)
	movq	-16(%rbp), %rax
	movq	%rax, -144(%rbp)
	movq	48(%rbp), %rax
	movq	16(%rax), %rax
	subq	-16(%rbp), %rax
	sarq	$6, %rax
	movq	%rax, -136(%rbp)
	leaq	-144(%rbp), %rax
	movq	%rax, %rcx
	call	_ZZNSt6vectorIN3cpr4PairESaIS1_EE17_M_realloc_appendIJRKS1_EEEvDpOT_EN6_GuardD1Ev
	movq	48(%rbp), %rax
	movq	-40(%rbp), %rdx
	movq	%rdx, (%rax)
	movq	48(%rbp), %rax
	movq	-48(%rbp), %rdx
	movq	%rdx, 8(%rax)
	movq	-8(%rbp), %rax
	salq	$6, %rax
	movq	%rax, %rdx
	movq	-40(%rbp), %rax
	addq	%rax, %rdx
	movq	48(%rbp), %rax
	movq	%rdx, 16(%rax)
	nop
	addq	$176, %rsp
	popq	%rbx
	popq	%rsi
	popq	%rdi
	popq	%r12
	popq	%rbp
	ret
	.seh_handler	__gxx_personality_seh0, @unwind, @except
	.seh_handlerdata
.LLSDA10118:
	.byte	0xff
	.byte	0xff
	.byte	0x1
	.uleb128 .LLSDACSE10118-.LLSDACSB10118
.LLSDACSB10118:
	.uleb128 .LEHB43-.LFB10118
	.uleb128 .LEHE43-.LEHB43
	.uleb128 0
	.uleb128 0
	.uleb128 .LEHB44-.LFB10118
	.uleb128 .LEHE44-.LEHB44
	.uleb128 .L209-.LFB10118
	.uleb128 0
	.uleb128 .LEHB45-.LFB10118
	.uleb128 .LEHE45-.LEHB45
	.uleb128 0
	.uleb128 0
.LLSDACSE10118:
	.section	.text$_ZNSt6vectorIN3cpr4PairESaIS1_EE17_M_realloc_appendIJRKS1_EEEvDpOT_,"x"
	.linkonce discard
	.seh_endproc
	.section	.text$_ZNSt15__new_allocatorIN3cpr9ParameterEED2Ev,"x"
	.linkonce discard
	.align 2
	.globl	_ZNSt15__new_allocatorIN3cpr9ParameterEED2Ev
	.def	_ZNSt15__new_allocatorIN3cpr9ParameterEED2Ev;	.scl	2;	.type	32;	.endef
	.seh_proc	_ZNSt15__new_allocatorIN3cpr9ParameterEED2Ev
_ZNSt15__new_allocatorIN3cpr9ParameterEED2Ev:
.LFB10132:
	pushq	%rbp
	.seh_pushreg	%rbp
	movq	%rsp, %rbp
	.seh_setframe	%rbp, 0
	.seh_endprologue
	movq	%rcx, 16(%rbp)
	nop
	popq	%rbp
	ret
	.seh_endproc
	.section	.text$_ZNSt12_Vector_baseIN3cpr9ParameterESaIS1_EE12_Vector_implD1Ev,"x"
	.linkonce discard
	.align 2
	.globl	_ZNSt12_Vector_baseIN3cpr9ParameterESaIS1_EE12_Vector_implD1Ev
	.def	_ZNSt12_Vector_baseIN3cpr9ParameterESaIS1_EE12_Vector_implD1Ev;	.scl	2;	.type	32;	.endef
	.seh_proc	_ZNSt12_Vector_baseIN3cpr9ParameterESaIS1_EE12_Vector_implD1Ev
_ZNSt12_Vector_baseIN3cpr9ParameterESaIS1_EE12_Vector_implD1Ev:
.LFB10137:
	pushq	%rbp
	.seh_pushreg	%rbp
	movq	%rsp, %rbp
	.seh_setframe	%rbp, 0
	subq	$48, %rsp
	.seh_stackalloc	48
	.seh_endprologue
	movq	%rcx, 16(%rbp)
	movq	16(%rbp), %rax
	movq	%rax, -8(%rbp)
	movq	-8(%rbp), %rax
	movq	%rax, %rcx
	call	_ZNSt15__new_allocatorIN3cpr9ParameterEED2Ev
	nop
	nop
	addq	$48, %rsp
	popq	%rbp
	ret
	.seh_endproc
	.section	.text$_ZNSt12_Vector_baseIN3cpr9ParameterESaIS1_EEC2ERKS2_,"x"
	.linkonce discard
	.align 2
	.globl	_ZNSt12_Vector_baseIN3cpr9ParameterESaIS1_EEC2ERKS2_
	.def	_ZNSt12_Vector_baseIN3cpr9ParameterESaIS1_EEC2ERKS2_;	.scl	2;	.type	32;	.endef
	.seh_proc	_ZNSt12_Vector_baseIN3cpr9ParameterESaIS1_EEC2ERKS2_
_ZNSt12_Vector_baseIN3cpr9ParameterESaIS1_EEC2ERKS2_:
.LFB10138:
	pushq	%rbp
	.seh_pushreg	%rbp
	movq	%rsp, %rbp
	.seh_setframe	%rbp, 0
	subq	$32, %rsp
	.seh_stackalloc	32
	.seh_endprologue
	movq	%rcx, 16(%rbp)
	movq	%rdx, 24(%rbp)
	movq	16(%rbp), %rax
	movq	24(%rbp), %rdx
	movq	%rax, %rcx
	call	_ZNSt12_Vector_baseIN3cpr9ParameterESaIS1_EE12_Vector_implC1ERKS2_
	nop
	addq	$32, %rsp
	popq	%rbp
	ret
	.seh_endproc
	.section	.text$_ZNSt12_Vector_baseIN3cpr9ParameterESaIS1_EED2Ev,"x"
	.linkonce discard
	.align 2
	.globl	_ZNSt12_Vector_baseIN3cpr9ParameterESaIS1_EED2Ev
	.def	_ZNSt12_Vector_baseIN3cpr9ParameterESaIS1_EED2Ev;	.scl	2;	.type	32;	.endef
	.seh_proc	_ZNSt12_Vector_baseIN3cpr9ParameterESaIS1_EED2Ev
_ZNSt12_Vector_baseIN3cpr9ParameterESaIS1_EED2Ev:
.LFB10141:
	pushq	%rbp
	.seh_pushreg	%rbp
	movq	%rsp, %rbp
	.seh_setframe	%rbp, 0
	subq	$32, %rsp
	.seh_stackalloc	32
	.seh_endprologue
	movq	%rcx, 16(%rbp)
	movq	16(%rbp), %rax
	movq	16(%rax), %rdx
	movq	16(%rbp), %rax
	movq	(%rax), %rax
	subq	%rax, %rdx
	movq	%rdx, %rax
	sarq	$6, %rax
	movq	%rax, %rcx
	movq	16(%rbp), %rax
	movq	(%rax), %rdx
	movq	16(%rbp), %rax
	movq	%rcx, %r8
	movq	%rax, %rcx
	call	_ZNSt12_Vector_baseIN3cpr9ParameterESaIS1_EE13_M_deallocateEPS1_y
	movq	16(%rbp), %rax
	movq	%rax, %rcx
	call	_ZNSt12_Vector_baseIN3cpr9ParameterESaIS1_EE12_Vector_implD1Ev
	nop
	addq	$32, %rsp
	popq	%rbp
	ret
	.seh_handler	__gxx_personality_seh0, @unwind, @except
	.seh_handlerdata
.LLSDA10141:
	.byte	0xff
	.byte	0xff
	.byte	0x1
	.uleb128 .LLSDACSE10141-.LLSDACSB10141
.LLSDACSB10141:
.LLSDACSE10141:
	.section	.text$_ZNSt12_Vector_baseIN3cpr9ParameterESaIS1_EED2Ev,"x"
	.linkonce discard
	.seh_endproc
	.section	.text$_ZNSt6vectorIN3cpr9ParameterESaIS1_EE19_M_range_initializeIPKS1_EEvT_S7_St20forward_iterator_tag,"x"
	.linkonce discard
	.align 2
	.globl	_ZNSt6vectorIN3cpr9ParameterESaIS1_EE19_M_range_initializeIPKS1_EEvT_S7_St20forward_iterator_tag
	.def	_ZNSt6vectorIN3cpr9ParameterESaIS1_EE19_M_range_initializeIPKS1_EEvT_S7_St20forward_iterator_tag;	.scl	2;	.type	32;	.endef
	.seh_proc	_ZNSt6vectorIN3cpr9ParameterESaIS1_EE19_M_range_initializeIPKS1_EEvT_S7_St20forward_iterator_tag
_ZNSt6vectorIN3cpr9ParameterESaIS1_EE19_M_range_initializeIPKS1_EEvT_S7_St20forward_iterator_tag:
.LFB10143:
	pushq	%rbp
	.seh_pushreg	%rbp
	pushq	%rbx
	.seh_pushreg	%rbx
	subq	$88, %rsp
	.seh_stackalloc	88
	leaq	80(%rsp), %rbp
	.seh_setframe	%rbp, 80
	.seh_endprologue
	movq	%rcx, 32(%rbp)
	movq	%rdx, 40(%rbp)
	movq	%r8, 48(%rbp)
	movq	40(%rbp), %rax
	movq	%rax, -40(%rbp)
	movq	48(%rbp), %rax
	movq	%rax, -16(%rbp)
	nop
	movq	-40(%rbp), %rax
	movq	%rax, -24(%rbp)
	movq	-16(%rbp), %rax
	movq	%rax, -32(%rbp)
	movq	-32(%rbp), %rax
	subq	-24(%rbp), %rax
	sarq	$6, %rax
	nop
	movq	%rax, -8(%rbp)
	movq	32(%rbp), %rbx
	movq	32(%rbp), %rax
	movq	%rax, %rcx
	call	_ZNSt12_Vector_baseIN3cpr9ParameterESaIS1_EE19_M_get_Tp_allocatorEv
	movq	%rax, %rdx
	movq	-8(%rbp), %rax
	movq	%rax, %rcx
	call	_ZNSt6vectorIN3cpr9ParameterESaIS1_EE17_S_check_init_lenEyRKS2_
	movq	%rax, %rdx
	movq	%rbx, %rcx
	call	_ZNSt12_Vector_baseIN3cpr9ParameterESaIS1_EE11_M_allocateEy
	movq	32(%rbp), %rdx
	movq	%rax, (%rdx)
	movq	32(%rbp), %rax
	movq	(%rax), %rax
	movq	-8(%rbp), %rdx
	salq	$6, %rdx
	addq	%rax, %rdx
	movq	32(%rbp), %rax
	movq	%rdx, 16(%rax)
	movq	32(%rbp), %rax
	movq	%rax, %rcx
	call	_ZNSt12_Vector_baseIN3cpr9ParameterESaIS1_EE19_M_get_Tp_allocatorEv
	movq	%rax, %rcx
	movq	32(%rbp), %rax
	movq	(%rax), %r8
	movq	48(%rbp), %rdx
	movq	40(%rbp), %rax
	movq	%rcx, %r9
	movq	%rax, %rcx
	call	_ZSt22__uninitialized_copy_aIPKN3cpr9ParameterEPS1_S1_ET0_T_S6_S5_RSaIT1_E
	movq	32(%rbp), %rdx
	movq	%rax, 8(%rdx)
	nop
	addq	$88, %rsp
	popq	%rbx
	popq	%rbp
	ret
	.seh_endproc
	.section	.text$_ZNSt12_Vector_baseIN3cpr9ParameterESaIS1_EE19_M_get_Tp_allocatorEv,"x"
	.linkonce discard
	.align 2
	.globl	_ZNSt12_Vector_baseIN3cpr9ParameterESaIS1_EE19_M_get_Tp_allocatorEv
	.def	_ZNSt12_Vector_baseIN3cpr9ParameterESaIS1_EE19_M_get_Tp_allocatorEv;	.scl	2;	.type	32;	.endef
	.seh_proc	_ZNSt12_Vector_baseIN3cpr9ParameterESaIS1_EE19_M_get_Tp_allocatorEv
_ZNSt12_Vector_baseIN3cpr9ParameterESaIS1_EE19_M_get_Tp_allocatorEv:
.LFB10145:
	pushq	%rbp
	.seh_pushreg	%rbp
	movq	%rsp, %rbp
	.seh_setframe	%rbp, 0
	.seh_endprologue
	movq	%rcx, 16(%rbp)
	movq	16(%rbp), %rax
	popq	%rbp
	ret
	.seh_endproc
	.section	.text$_ZNKSt16initializer_listIN3cpr9ParameterEE4sizeEv,"x"
	.linkonce discard
	.align 2
	.globl	_ZNKSt16initializer_listIN3cpr9ParameterEE4sizeEv
	.def	_ZNKSt16initializer_listIN3cpr9ParameterEE4sizeEv;	.scl	2;	.type	32;	.endef
	.seh_proc	_ZNKSt16initializer_listIN3cpr9ParameterEE4sizeEv
_ZNKSt16initializer_listIN3cpr9ParameterEE4sizeEv:
.LFB10147:
	pushq	%rbp
	.seh_pushreg	%rbp
	movq	%rsp, %rbp
	.seh_setframe	%rbp, 0
	.seh_endprologue
	movq	%rcx, 16(%rbp)
	movq	16(%rbp), %rax
	movq	8(%rax), %rax
	popq	%rbp
	ret
	.seh_endproc
	.section	.text$_ZNSt20back_insert_iteratorISt6vectorIN3cpr9ParameterESaIS2_EEEC1ERS4_,"x"
	.linkonce discard
	.align 2
	.globl	_ZNSt20back_insert_iteratorISt6vectorIN3cpr9ParameterESaIS2_EEEC1ERS4_
	.def	_ZNSt20back_insert_iteratorISt6vectorIN3cpr9ParameterESaIS2_EEEC1ERS4_;	.scl	2;	.type	32;	.endef
	.seh_proc	_ZNSt20back_insert_iteratorISt6vectorIN3cpr9ParameterESaIS2_EEEC1ERS4_
_ZNSt20back_insert_iteratorISt6vectorIN3cpr9ParameterESaIS2_EEEC1ERS4_:
.LFB10150:
	pushq	%rbp
	.seh_pushreg	%rbp
	movq	%rsp, %rbp
	.seh_setframe	%rbp, 0
	subq	$32, %rsp
	.seh_stackalloc	32
	.seh_endprologue
	movq	%rcx, 16(%rbp)
	movq	%rdx, 24(%rbp)
	movq	24(%rbp), %rax
	movq	%rax, %rcx
	call	_ZSt11__addressofISt6vectorIN3cpr9ParameterESaIS2_EEEPT_RS5_
	movq	16(%rbp), %rdx
	movq	%rax, (%rdx)
	nop
	addq	$32, %rsp
	popq	%rbp
	ret
	.seh_endproc
	.section	.text$_ZNSt20back_insert_iteratorISt6vectorIN3cpr9ParameterESaIS2_EEEppEv,"x"
	.linkonce discard
	.align 2
	.globl	_ZNSt20back_insert_iteratorISt6vectorIN3cpr9ParameterESaIS2_EEEppEv
	.def	_ZNSt20back_insert_iteratorISt6vectorIN3cpr9ParameterESaIS2_EEEppEv;	.scl	2;	.type	32;	.endef
	.seh_proc	_ZNSt20back_insert_iteratorISt6vectorIN3cpr9ParameterESaIS2_EEEppEv
_ZNSt20back_insert_iteratorISt6vectorIN3cpr9ParameterESaIS2_EEEppEv:
.LFB10151:
	pushq	%rbp
	.seh_pushreg	%rbp
	movq	%rsp, %rbp
	.seh_setframe	%rbp, 0
	.seh_endprologue
	movq	%rcx, 16(%rbp)
	movq	16(%rbp), %rax
	popq	%rbp
	ret
	.seh_endproc
	.section	.text$_ZNSt20back_insert_iteratorISt6vectorIN3cpr9ParameterESaIS2_EEEdeEv,"x"
	.linkonce discard
	.align 2
	.globl	_ZNSt20back_insert_iteratorISt6vectorIN3cpr9ParameterESaIS2_EEEdeEv
	.def	_ZNSt20back_insert_iteratorISt6vectorIN3cpr9ParameterESaIS2_EEEdeEv;	.scl	2;	.type	32;	.endef
	.seh_proc	_ZNSt20back_insert_iteratorISt6vectorIN3cpr9ParameterESaIS2_EEEdeEv
_ZNSt20back_insert_iteratorISt6vectorIN3cpr9ParameterESaIS2_EEEdeEv:
.LFB10152:
	pushq	%rbp
	.seh_pushreg	%rbp
	movq	%rsp, %rbp
	.seh_setframe	%rbp, 0
	.seh_endprologue
	movq	%rcx, 16(%rbp)
	movq	16(%rbp), %rax
	popq	%rbp
	ret
	.seh_endproc
	.section	.text$_ZNSt20back_insert_iteratorISt6vectorIN3cpr9ParameterESaIS2_EEEaSEOS2_,"x"
	.linkonce discard
	.align 2
	.globl	_ZNSt20back_insert_iteratorISt6vectorIN3cpr9ParameterESaIS2_EEEaSEOS2_
	.def	_ZNSt20back_insert_iteratorISt6vectorIN3cpr9ParameterESaIS2_EEEaSEOS2_;	.scl	2;	.type	32;	.endef
	.seh_proc	_ZNSt20back_insert_iteratorISt6vectorIN3cpr9ParameterESaIS2_EEEaSEOS2_
_ZNSt20back_insert_iteratorISt6vectorIN3cpr9ParameterESaIS2_EEEaSEOS2_:
.LFB10153:
	pushq	%rbp
	.seh_pushreg	%rbp
	pushq	%rbx
	.seh_pushreg	%rbx
	subq	$40, %rsp
	.seh_stackalloc	40
	leaq	32(%rsp), %rbp
	.seh_setframe	%rbp, 32
	.seh_endprologue
	movq	%rcx, 32(%rbp)
	movq	%rdx, 40(%rbp)
	movq	32(%rbp), %rax
	movq	(%rax), %rbx
	movq	40(%rbp), %rax
	movq	%rax, %rcx
	call	_ZSt4moveIRN3cpr9ParameterEEONSt16remove_referenceIT_E4typeEOS4_
	movq	%rax, %rdx
	movq	%rbx, %rcx
	call	_ZNSt6vectorIN3cpr9ParameterESaIS1_EE9push_backEOS1_
	movq	32(%rbp), %rax
	addq	$40, %rsp
	popq	%rbx
	popq	%rbp
	ret
	.seh_endproc
	.section	.text$_ZZNSt6vectorIN3cpr9ParameterESaIS1_EE17_M_realloc_appendIJRKS1_EEEvDpOT_EN6_GuardC1EPS1_yRS2_,"x"
	.linkonce discard
	.align 2
	.globl	_ZZNSt6vectorIN3cpr9ParameterESaIS1_EE17_M_realloc_appendIJRKS1_EEEvDpOT_EN6_GuardC1EPS1_yRS2_
	.def	_ZZNSt6vectorIN3cpr9ParameterESaIS1_EE17_M_realloc_appendIJRKS1_EEEvDpOT_EN6_GuardC1EPS1_yRS2_;	.scl	2;	.type	32;	.endef
	.seh_proc	_ZZNSt6vectorIN3cpr9ParameterESaIS1_EE17_M_realloc_appendIJRKS1_EEEvDpOT_EN6_GuardC1EPS1_yRS2_
_ZZNSt6vectorIN3cpr9ParameterESaIS1_EE17_M_realloc_appendIJRKS1_EEEvDpOT_EN6_GuardC1EPS1_yRS2_:
.LFB10158:
	pushq	%rbp
	.seh_pushreg	%rbp
	movq	%rsp, %rbp
	.seh_setframe	%rbp, 0
	.seh_endprologue
	movq	%rcx, 16(%rbp)
	movq	%rdx, 24(%rbp)
	movq	%r8, 32(%rbp)
	movq	%r9, 40(%rbp)
	movq	16(%rbp), %rax
	movq	24(%rbp), %rdx
	movq	%rdx, (%rax)
	movq	16(%rbp), %rax
	movq	32(%rbp), %rdx
	movq	%rdx, 8(%rax)
	movq	16(%rbp), %rax
	movq	40(%rbp), %rdx
	movq	%rdx, 16(%rax)
	nop
	popq	%rbp
	ret
	.seh_endproc
	.section	.text$_ZZNSt6vectorIN3cpr9ParameterESaIS1_EE17_M_realloc_appendIJRKS1_EEEvDpOT_EN6_GuardD1Ev,"x"
	.linkonce discard
	.align 2
	.globl	_ZZNSt6vectorIN3cpr9ParameterESaIS1_EE17_M_realloc_appendIJRKS1_EEEvDpOT_EN6_GuardD1Ev
	.def	_ZZNSt6vectorIN3cpr9ParameterESaIS1_EE17_M_realloc_appendIJRKS1_EEEvDpOT_EN6_GuardD1Ev;	.scl	2;	.type	32;	.endef
	.seh_proc	_ZZNSt6vectorIN3cpr9ParameterESaIS1_EE17_M_realloc_appendIJRKS1_EEEvDpOT_EN6_GuardD1Ev
_ZZNSt6vectorIN3cpr9ParameterESaIS1_EE17_M_realloc_appendIJRKS1_EEEvDpOT_EN6_GuardD1Ev:
.LFB10161:
	pushq	%rbp
	.seh_pushreg	%rbp
	movq	%rsp, %rbp
	.seh_setframe	%rbp, 0
	subq	$64, %rsp
	.seh_stackalloc	64
	.seh_endprologue
	movq	%rcx, 16(%rbp)
	movq	16(%rbp), %rax
	movq	(%rax), %rax
	testq	%rax, %rax
	je	.L233
	movq	16(%rbp), %rax
	movq	8(%rax), %rax
	movq	16(%rbp), %rdx
	movq	(%rdx), %rdx
	movq	16(%rbp), %rcx
	movq	16(%rcx), %rcx
	movq	%rcx, -8(%rbp)
	movq	%rdx, -16(%rbp)
	movq	%rax, -24(%rbp)
	movq	-24(%rbp), %rcx
	movq	-16(%rbp), %rdx
	movq	-8(%rbp), %rax
	movq	%rcx, %r8
	movq	%rax, %rcx
	call	_ZNSt15__new_allocatorIN3cpr9ParameterEE10deallocateEPS1_y
	nop
.L233:
	nop
	addq	$64, %rsp
	popq	%rbp
	ret
	.seh_endproc
	.section	.text$_ZNSt6vectorIN3cpr9ParameterESaIS1_EE17_M_realloc_appendIJRKS1_EEEvDpOT_,"x"
	.linkonce discard
	.align 2
	.globl	_ZNSt6vectorIN3cpr9ParameterESaIS1_EE17_M_realloc_appendIJRKS1_EEEvDpOT_
	.def	_ZNSt6vectorIN3cpr9ParameterESaIS1_EE17_M_realloc_appendIJRKS1_EEEvDpOT_;	.scl	2;	.type	32;	.endef
	.seh_proc	_ZNSt6vectorIN3cpr9ParameterESaIS1_EE17_M_realloc_appendIJRKS1_EEEvDpOT_
_ZNSt6vectorIN3cpr9ParameterESaIS1_EE17_M_realloc_appendIJRKS1_EEEvDpOT_:
.LFB10155:
	pushq	%rbp
	.seh_pushreg	%rbp
	pushq	%r12
	.seh_pushreg	%r12
	pushq	%rdi
	.seh_pushreg	%rdi
	pushq	%rsi
	.seh_pushreg	%rsi
	pushq	%rbx
	.seh_pushreg	%rbx
	subq	$176, %rsp
	.seh_stackalloc	176
	leaq	176(%rsp), %rbp
	.seh_setframe	%rbp, 176
	.seh_endprologue
	movq	%rcx, 48(%rbp)
	movq	%rdx, 56(%rbp)
	movq	48(%rbp), %rax
	leaq	.LC2(%rip), %r8
	movl	$1, %edx
	movq	%rax, %rcx
.LEHB46:
	call	_ZNKSt6vectorIN3cpr9ParameterESaIS1_EE12_M_check_lenEyPKc
	movq	%rax, -8(%rbp)
	cmpq	$0, -8(%rbp)
	movq	48(%rbp), %rax
	movq	(%rax), %rax
	movq	%rax, -16(%rbp)
	movq	48(%rbp), %rax
	movq	8(%rax), %rax
	movq	%rax, -24(%rbp)
	movq	48(%rbp), %rax
	movq	%rax, %rcx
	call	_ZNSt6vectorIN3cpr9ParameterESaIS1_EE5beginEv
	movq	%rax, -112(%rbp)
	movq	48(%rbp), %rax
	movq	%rax, %rcx
	call	_ZNSt6vectorIN3cpr9ParameterESaIS1_EE3endEv
	movq	%rax, -104(%rbp)
	leaq	-112(%rbp), %rdx
	leaq	-104(%rbp), %rax
	movq	%rax, %rcx
	call	_ZN9__gnu_cxxmiIPN3cpr9ParameterESt6vectorIS2_SaIS2_EEEENS_17__normal_iteratorIT_T0_E15difference_typeERKSA_SD_
	movq	%rax, -32(%rbp)
	movq	48(%rbp), %rax
	movq	-8(%rbp), %rdx
	movq	%rax, %rcx
	call	_ZNSt12_Vector_baseIN3cpr9ParameterESaIS1_EE11_M_allocateEy
.LEHE46:
	movq	%rax, -40(%rbp)
	movq	-40(%rbp), %rax
	movq	%rax, -48(%rbp)
	movq	48(%rbp), %r8
	movq	-8(%rbp), %rcx
	movq	-40(%rbp), %rdx
	leaq	-144(%rbp), %rax
	movq	%r8, %r9
	movq	%rcx, %r8
	movq	%rax, %rcx
	call	_ZZNSt6vectorIN3cpr9ParameterESaIS1_EE17_M_realloc_appendIJRKS1_EEEvDpOT_EN6_GuardC1EPS1_yRS2_
	movq	56(%rbp), %rax
	movq	%rax, %rcx
	call	_ZSt7forwardIRKN3cpr9ParameterEEOT_RNSt16remove_referenceIS4_E4typeE
	movq	%rax, %rbx
	movq	-32(%rbp), %rax
	salq	$6, %rax
	movq	%rax, %rdx
	movq	-40(%rbp), %rax
	addq	%rdx, %rax
	movq	%rax, %rcx
	call	_ZSt12__to_addressIN3cpr9ParameterEEPT_S3_
	movq	48(%rbp), %rdx
	movq	%rdx, -56(%rbp)
	movq	%rax, -64(%rbp)
	movq	%rbx, -72(%rbp)
	movq	-72(%rbp), %rax
	movq	%rax, %rcx
	call	_ZSt7forwardIRKN3cpr9ParameterEEOT_RNSt16remove_referenceIS4_E4typeE
	movq	-64(%rbp), %rdx
	movq	%rdx, -80(%rbp)
	movq	%rax, -88(%rbp)
	movq	-56(%rbp), %rax
	movq	%rax, -96(%rbp)
	movq	-80(%rbp), %rbx
	movq	%rbx, %rdx
	movl	$64, %ecx
	call	_ZnwyPv
	movq	%rax, %rsi
	movl	$1, %r12d
	movq	-88(%rbp), %rax
	movq	%rax, %rcx
	call	_ZSt7forwardIRKN3cpr9ParameterEEOT_RNSt16remove_referenceIS4_E4typeE
	movq	%rax, %rdx
	movq	%rsi, %rcx
.LEHB47:
	call	_ZN3cpr9ParameterC1ERKS0_
.LEHE47:
	jmp	.L240
.L239:
	movq	%rax, %rdi
	testb	%r12b, %r12b
	je	.L238
	movq	%rbx, %rdx
	movq	%rsi, %rcx
	call	_ZdlPvS_
.L238:
	movq	%rdi, %rbx
	leaq	-144(%rbp), %rax
	movq	%rax, %rcx
	call	_ZZNSt6vectorIN3cpr9ParameterESaIS1_EE17_M_realloc_appendIJRKS1_EEEvDpOT_EN6_GuardD1Ev
	movq	%rbx, %rax
	movq	%rax, %rcx
.LEHB48:
	call	_Unwind_Resume
.LEHE48:
.L240:
	nop
	movq	48(%rbp), %rax
	movq	%rax, %rcx
	call	_ZNSt12_Vector_baseIN3cpr9ParameterESaIS1_EE19_M_get_Tp_allocatorEv
	movq	%rax, %rcx
	movq	-40(%rbp), %r8
	movq	-24(%rbp), %rdx
	movq	-16(%rbp), %rax
	movq	%rcx, %r9
	movq	%rax, %rcx
	call	_ZNSt6vectorIN3cpr9ParameterESaIS1_EE11_S_relocateEPS1_S4_S4_RS2_
	movq	%rax, -48(%rbp)
	addq	$64, -48(%rbp)
	movq	-16(%rbp), %rax
	movq	%rax, -144(%rbp)
	movq	48(%rbp), %rax
	movq	16(%rax), %rax
	subq	-16(%rbp), %rax
	sarq	$6, %rax
	movq	%rax, -136(%rbp)
	leaq	-144(%rbp), %rax
	movq	%rax, %rcx
	call	_ZZNSt6vectorIN3cpr9ParameterESaIS1_EE17_M_realloc_appendIJRKS1_EEEvDpOT_EN6_GuardD1Ev
	movq	48(%rbp), %rax
	movq	-40(%rbp), %rdx
	movq	%rdx, (%rax)
	movq	48(%rbp), %rax
	movq	-48(%rbp), %rdx
	movq	%rdx, 8(%rax)
	movq	-8(%rbp), %rax
	salq	$6, %rax
	movq	%rax, %rdx
	movq	-40(%rbp), %rax
	addq	%rax, %rdx
	movq	48(%rbp), %rax
	movq	%rdx, 16(%rax)
	nop
	addq	$176, %rsp
	popq	%rbx
	popq	%rsi
	popq	%rdi
	popq	%r12
	popq	%rbp
	ret
	.seh_handler	__gxx_personality_seh0, @unwind, @except
	.seh_handlerdata
.LLSDA10155:
	.byte	0xff
	.byte	0xff
	.byte	0x1
	.uleb128 .LLSDACSE10155-.LLSDACSB10155
.LLSDACSB10155:
	.uleb128 .LEHB46-.LFB10155
	.uleb128 .LEHE46-.LEHB46
	.uleb128 0
	.uleb128 0
	.uleb128 .LEHB47-.LFB10155
	.uleb128 .LEHE47-.LEHB47
	.uleb128 .L239-.LFB10155
	.uleb128 0
	.uleb128 .LEHB48-.LFB10155
	.uleb128 .LEHE48-.LEHB48
	.uleb128 0
	.uleb128 0
.LLSDACSE10155:
	.section	.text$_ZNSt6vectorIN3cpr9ParameterESaIS1_EE17_M_realloc_appendIJRKS1_EEEvDpOT_,"x"
	.linkonce discard
	.seh_endproc
	.section	.text$_ZNSt12_Vector_baseIN3cpr4PairESaIS1_EE12_Vector_implC1ERKS2_,"x"
	.linkonce discard
	.align 2
	.globl	_ZNSt12_Vector_baseIN3cpr4PairESaIS1_EE12_Vector_implC1ERKS2_
	.def	_ZNSt12_Vector_baseIN3cpr4PairESaIS1_EE12_Vector_implC1ERKS2_;	.scl	2;	.type	32;	.endef
	.seh_proc	_ZNSt12_Vector_baseIN3cpr4PairESaIS1_EE12_Vector_implC1ERKS2_
_ZNSt12_Vector_baseIN3cpr4PairESaIS1_EE12_Vector_implC1ERKS2_:
.LFB10219:
	pushq	%rbp
	.seh_pushreg	%rbp
	movq	%rsp, %rbp
	.seh_setframe	%rbp, 0
	subq	$64, %rsp
	.seh_stackalloc	64
	.seh_endprologue
	movq	%rcx, 16(%rbp)
	movq	%rdx, 24(%rbp)
	movq	16(%rbp), %rax
	movq	%rax, -8(%rbp)
	movq	24(%rbp), %rax
	movq	%rax, -16(%rbp)
	movq	-8(%rbp), %rax
	movq	%rax, -24(%rbp)
	movq	-16(%rbp), %rax
	movq	%rax, -32(%rbp)
	nop
	nop
	movq	16(%rbp), %rax
	movq	%rax, %rcx
	call	_ZNSt12_Vector_baseIN3cpr4PairESaIS1_EE17_Vector_impl_dataC2Ev
	nop
	addq	$64, %rsp
	popq	%rbp
	ret
	.seh_endproc
	.section	.text$_ZNSt12_Vector_baseIN3cpr4PairESaIS1_EE13_M_deallocateEPS1_y,"x"
	.linkonce discard
	.align 2
	.globl	_ZNSt12_Vector_baseIN3cpr4PairESaIS1_EE13_M_deallocateEPS1_y
	.def	_ZNSt12_Vector_baseIN3cpr4PairESaIS1_EE13_M_deallocateEPS1_y;	.scl	2;	.type	32;	.endef
	.seh_proc	_ZNSt12_Vector_baseIN3cpr4PairESaIS1_EE13_M_deallocateEPS1_y
_ZNSt12_Vector_baseIN3cpr4PairESaIS1_EE13_M_deallocateEPS1_y:
.LFB10220:
	pushq	%rbp
	.seh_pushreg	%rbp
	movq	%rsp, %rbp
	.seh_setframe	%rbp, 0
	subq	$64, %rsp
	.seh_stackalloc	64
	.seh_endprologue
	movq	%rcx, 16(%rbp)
	movq	%rdx, 24(%rbp)
	movq	%r8, 32(%rbp)
	cmpq	$0, 24(%rbp)
	je	.L244
	movq	16(%rbp), %rax
	movq	%rax, -8(%rbp)
	movq	24(%rbp), %rax
	movq	%rax, -16(%rbp)
	movq	32(%rbp), %rax
	movq	%rax, -24(%rbp)
	movq	-24(%rbp), %rcx
	movq	-16(%rbp), %rdx
	movq	-8(%rbp), %rax
	movq	%rcx, %r8
	movq	%rax, %rcx
	call	_ZNSt15__new_allocatorIN3cpr4PairEE10deallocateEPS1_y
	nop
.L244:
	nop
	addq	$64, %rsp
	popq	%rbp
	ret
	.seh_endproc
	.section .rdata,"dr"
	.align 8
.LC3:
	.ascii "cannot create std::vector larger than max_size()\0"
	.section	.text$_ZNSt6vectorIN3cpr4PairESaIS1_EE17_S_check_init_lenEyRKS2_,"x"
	.linkonce discard
	.globl	_ZNSt6vectorIN3cpr4PairESaIS1_EE17_S_check_init_lenEyRKS2_
	.def	_ZNSt6vectorIN3cpr4PairESaIS1_EE17_S_check_init_lenEyRKS2_;	.scl	2;	.type	32;	.endef
	.seh_proc	_ZNSt6vectorIN3cpr4PairESaIS1_EE17_S_check_init_lenEyRKS2_
_ZNSt6vectorIN3cpr4PairESaIS1_EE17_S_check_init_lenEyRKS2_:
.LFB10223:
	pushq	%rbp
	.seh_pushreg	%rbp
	pushq	%rbx
	.seh_pushreg	%rbx
	subq	$72, %rsp
	.seh_stackalloc	72
	leaq	64(%rsp), %rbp
	.seh_setframe	%rbp, 64
	.seh_endprologue
	movq	%rcx, 32(%rbp)
	movq	%rdx, 40(%rbp)
	movq	40(%rbp), %rax
	movq	%rax, -8(%rbp)
	leaq	-25(%rbp), %rax
	movq	%rax, -16(%rbp)
	movq	-8(%rbp), %rax
	movq	%rax, -24(%rbp)
	nop
	nop
	leaq	-25(%rbp), %rax
	movq	%rax, %rcx
	call	_ZNSt6vectorIN3cpr4PairESaIS1_EE11_S_max_sizeERKS2_
	cmpq	32(%rbp), %rax
	setb	%bl
	leaq	-25(%rbp), %rax
	movq	%rax, %rcx
	call	_ZNSt15__new_allocatorIN3cpr4PairEED2Ev
	nop
	testb	%bl, %bl
	je	.L246
	leaq	.LC3(%rip), %rax
	movq	%rax, %rcx
	call	_ZSt20__throw_length_errorPKc
.L246:
	movq	32(%rbp), %rax
	addq	$72, %rsp
	popq	%rbx
	popq	%rbp
	ret
	.seh_endproc
	.section	.text$_ZNSt12_Vector_baseIN3cpr4PairESaIS1_EE11_M_allocateEy,"x"
	.linkonce discard
	.align 2
	.globl	_ZNSt12_Vector_baseIN3cpr4PairESaIS1_EE11_M_allocateEy
	.def	_ZNSt12_Vector_baseIN3cpr4PairESaIS1_EE11_M_allocateEy;	.scl	2;	.type	32;	.endef
	.seh_proc	_ZNSt12_Vector_baseIN3cpr4PairESaIS1_EE11_M_allocateEy
_ZNSt12_Vector_baseIN3cpr4PairESaIS1_EE11_M_allocateEy:
.LFB10224:
	pushq	%rbp
	.seh_pushreg	%rbp
	movq	%rsp, %rbp
	.seh_setframe	%rbp, 0
	subq	$48, %rsp
	.seh_stackalloc	48
	.seh_endprologue
	movq	%rcx, 16(%rbp)
	movq	%rdx, 24(%rbp)
	cmpq	$0, 24(%rbp)
	je	.L249
	movq	16(%rbp), %rax
	movq	%rax, -8(%rbp)
	movq	24(%rbp), %rax
	movq	%rax, -16(%rbp)
	movq	-16(%rbp), %rdx
	movq	-8(%rbp), %rax
	movl	$0, %r8d
	movq	%rax, %rcx
	call	_ZNSt15__new_allocatorIN3cpr4PairEE8allocateEyPKv
	nop
	jmp	.L251
.L249:
	movl	$0, %eax
.L251:
	addq	$48, %rsp
	popq	%rbp
	ret
	.seh_endproc
	.section	.text$_ZSt22__uninitialized_copy_aIPKN3cpr4PairEPS1_S1_ET0_T_S6_S5_RSaIT1_E,"x"
	.linkonce discard
	.globl	_ZSt22__uninitialized_copy_aIPKN3cpr4PairEPS1_S1_ET0_T_S6_S5_RSaIT1_E
	.def	_ZSt22__uninitialized_copy_aIPKN3cpr4PairEPS1_S1_ET0_T_S6_S5_RSaIT1_E;	.scl	2;	.type	32;	.endef
	.seh_proc	_ZSt22__uninitialized_copy_aIPKN3cpr4PairEPS1_S1_ET0_T_S6_S5_RSaIT1_E
_ZSt22__uninitialized_copy_aIPKN3cpr4PairEPS1_S1_ET0_T_S6_S5_RSaIT1_E:
.LFB10225:
	pushq	%rbp
	.seh_pushreg	%rbp
	movq	%rsp, %rbp
	.seh_setframe	%rbp, 0
	subq	$32, %rsp
	.seh_stackalloc	32
	.seh_endprologue
	movq	%rcx, 16(%rbp)
	movq	%rdx, 24(%rbp)
	movq	%r8, 32(%rbp)
	movq	%r9, 40(%rbp)
	movq	32(%rbp), %rcx
	movq	24(%rbp), %rdx
	movq	16(%rbp), %rax
	movq	%rcx, %r8
	movq	%rax, %rcx
	call	_ZSt18uninitialized_copyIPKN3cpr4PairEPS1_ET0_T_S6_S5_
	addq	$32, %rsp
	popq	%rbp
	ret
	.seh_endproc
	.section	.text$_ZSt8_DestroyIPN3cpr4PairEEvT_S3_,"x"
	.linkonce discard
	.globl	_ZSt8_DestroyIPN3cpr4PairEEvT_S3_
	.def	_ZSt8_DestroyIPN3cpr4PairEEvT_S3_;	.scl	2;	.type	32;	.endef
	.seh_proc	_ZSt8_DestroyIPN3cpr4PairEEvT_S3_
_ZSt8_DestroyIPN3cpr4PairEEvT_S3_:
.LFB10226:
	pushq	%rbp
	.seh_pushreg	%rbp
	movq	%rsp, %rbp
	.seh_setframe	%rbp, 0
	subq	$32, %rsp
	.seh_stackalloc	32
	.seh_endprologue
	movq	%rcx, 16(%rbp)
	movq	%rdx, 24(%rbp)
	movq	24(%rbp), %rdx
	movq	16(%rbp), %rax
	movq	%rax, %rcx
	call	_ZNSt12_Destroy_auxILb0EE9__destroyIPN3cpr4PairEEEvT_S5_
	nop
	addq	$32, %rsp
	popq	%rbp
	ret
	.seh_endproc
	.section	.text$_ZSt11__addressofISt6vectorIN3cpr4PairESaIS2_EEEPT_RS5_,"x"
	.linkonce discard
	.globl	_ZSt11__addressofISt6vectorIN3cpr4PairESaIS2_EEEPT_RS5_
	.def	_ZSt11__addressofISt6vectorIN3cpr4PairESaIS2_EEEPT_RS5_;	.scl	2;	.type	32;	.endef
	.seh_proc	_ZSt11__addressofISt6vectorIN3cpr4PairESaIS2_EEEPT_RS5_
_ZSt11__addressofISt6vectorIN3cpr4PairESaIS2_EEEPT_RS5_:
.LFB10227:
	pushq	%rbp
	.seh_pushreg	%rbp
	movq	%rsp, %rbp
	.seh_setframe	%rbp, 0
	.seh_endprologue
	movq	%rcx, 16(%rbp)
	movq	16(%rbp), %rax
	popq	%rbp
	ret
	.seh_endproc
	.section	.text$_ZSt4moveIRN3cpr4PairEEONSt16remove_referenceIT_E4typeEOS4_,"x"
	.linkonce discard
	.globl	_ZSt4moveIRN3cpr4PairEEONSt16remove_referenceIT_E4typeEOS4_
	.def	_ZSt4moveIRN3cpr4PairEEONSt16remove_referenceIT_E4typeEOS4_;	.scl	2;	.type	32;	.endef
	.seh_proc	_ZSt4moveIRN3cpr4PairEEONSt16remove_referenceIT_E4typeEOS4_
_ZSt4moveIRN3cpr4PairEEONSt16remove_referenceIT_E4typeEOS4_:
.LFB10228:
	pushq	%rbp
	.seh_pushreg	%rbp
	movq	%rsp, %rbp
	.seh_setframe	%rbp, 0
	.seh_endprologue
	movq	%rcx, 16(%rbp)
	movq	16(%rbp), %rax
	popq	%rbp
	ret
	.seh_endproc
	.section	.text$_ZNSt6vectorIN3cpr4PairESaIS1_EE9push_backEOS1_,"x"
	.linkonce discard
	.align 2
	.globl	_ZNSt6vectorIN3cpr4PairESaIS1_EE9push_backEOS1_
	.def	_ZNSt6vectorIN3cpr4PairESaIS1_EE9push_backEOS1_;	.scl	2;	.type	32;	.endef
	.seh_proc	_ZNSt6vectorIN3cpr4PairESaIS1_EE9push_backEOS1_
_ZNSt6vectorIN3cpr4PairESaIS1_EE9push_backEOS1_:
.LFB10229:
	pushq	%rbp
	.seh_pushreg	%rbp
	movq	%rsp, %rbp
	.seh_setframe	%rbp, 0
	subq	$32, %rsp
	.seh_stackalloc	32
	.seh_endprologue
	movq	%rcx, 16(%rbp)
	movq	%rdx, 24(%rbp)
	movq	24(%rbp), %rax
	movq	%rax, %rcx
	call	_ZSt4moveIRN3cpr4PairEEONSt16remove_referenceIT_E4typeEOS4_
	movq	%rax, %rdx
	movq	16(%rbp), %rax
	movq	%rax, %rcx
	call	_ZNSt6vectorIN3cpr4PairESaIS1_EE12emplace_backIJS1_EEERS1_DpOT_
	nop
	addq	$32, %rsp
	popq	%rbp
	ret
	.seh_endproc
	.section	.text$_ZSt7forwardIRKN3cpr4PairEEOT_RNSt16remove_referenceIS4_E4typeE,"x"
	.linkonce discard
	.globl	_ZSt7forwardIRKN3cpr4PairEEOT_RNSt16remove_referenceIS4_E4typeE
	.def	_ZSt7forwardIRKN3cpr4PairEEOT_RNSt16remove_referenceIS4_E4typeE;	.scl	2;	.type	32;	.endef
	.seh_proc	_ZSt7forwardIRKN3cpr4PairEEOT_RNSt16remove_referenceIS4_E4typeE
_ZSt7forwardIRKN3cpr4PairEEOT_RNSt16remove_referenceIS4_E4typeE:
.LFB10230:
	pushq	%rbp
	.seh_pushreg	%rbp
	movq	%rsp, %rbp
	.seh_setframe	%rbp, 0
	.seh_endprologue
	movq	%rcx, 16(%rbp)
	movq	16(%rbp), %rax
	popq	%rbp
	ret
	.seh_endproc
	.section	.text$_ZNKSt6vectorIN3cpr4PairESaIS1_EE12_M_check_lenEyPKc,"x"
	.linkonce discard
	.align 2
	.globl	_ZNKSt6vectorIN3cpr4PairESaIS1_EE12_M_check_lenEyPKc
	.def	_ZNKSt6vectorIN3cpr4PairESaIS1_EE12_M_check_lenEyPKc;	.scl	2;	.type	32;	.endef
	.seh_proc	_ZNKSt6vectorIN3cpr4PairESaIS1_EE12_M_check_lenEyPKc
_ZNKSt6vectorIN3cpr4PairESaIS1_EE12_M_check_lenEyPKc:
.LFB10232:
	pushq	%rbp
	.seh_pushreg	%rbp
	pushq	%rbx
	.seh_pushreg	%rbx
	subq	$56, %rsp
	.seh_stackalloc	56
	leaq	48(%rsp), %rbp
	.seh_setframe	%rbp, 48
	.seh_endprologue
	movq	%rcx, 32(%rbp)
	movq	%rdx, 40(%rbp)
	movq	%r8, 48(%rbp)
	movq	32(%rbp), %rax
	movq	%rax, %rcx
	call	_ZNKSt6vectorIN3cpr4PairESaIS1_EE8max_sizeEv
	movq	%rax, %rbx
	movq	32(%rbp), %rax
	movq	%rax, %rcx
	call	_ZNKSt6vectorIN3cpr4PairESaIS1_EE4sizeEv
	subq	%rax, %rbx
	movq	%rbx, %rdx
	movq	40(%rbp), %rax
	cmpq	%rax, %rdx
	setb	%al
	testb	%al, %al
	je	.L264
	movq	48(%rbp), %rax
	movq	%rax, %rcx
	call	_ZSt20__throw_length_errorPKc
.L264:
	movq	32(%rbp), %rax
	movq	%rax, %rcx
	call	_ZNKSt6vectorIN3cpr4PairESaIS1_EE4sizeEv
	movq	%rax, %rbx
	movq	32(%rbp), %rax
	movq	%rax, %rcx
	call	_ZNKSt6vectorIN3cpr4PairESaIS1_EE4sizeEv
	movq	%rax, -16(%rbp)
	leaq	40(%rbp), %rdx
	leaq	-16(%rbp), %rax
	movq	%rax, %rcx
	call	_ZSt3maxIyERKT_S2_S2_
	movq	(%rax), %rax
	addq	%rbx, %rax
	movq	%rax, -8(%rbp)
	movq	32(%rbp), %rax
	movq	%rax, %rcx
	call	_ZNKSt6vectorIN3cpr4PairESaIS1_EE4sizeEv
	cmpq	%rax, -8(%rbp)
	jb	.L265
	movq	32(%rbp), %rax
	movq	%rax, %rcx
	call	_ZNKSt6vectorIN3cpr4PairESaIS1_EE8max_sizeEv
	cmpq	-8(%rbp), %rax
	jnb	.L266
.L265:
	movq	32(%rbp), %rax
	movq	%rax, %rcx
	call	_ZNKSt6vectorIN3cpr4PairESaIS1_EE8max_sizeEv
	jmp	.L267
.L266:
	movq	-8(%rbp), %rax
.L267:
	addq	$56, %rsp
	popq	%rbx
	popq	%rbp
	ret
	.seh_endproc
	.section	.text$_ZNSt6vectorIN3cpr4PairESaIS1_EE3endEv,"x"
	.linkonce discard
	.align 2
	.globl	_ZNSt6vectorIN3cpr4PairESaIS1_EE3endEv
	.def	_ZNSt6vectorIN3cpr4PairESaIS1_EE3endEv;	.scl	2;	.type	32;	.endef
	.seh_proc	_ZNSt6vectorIN3cpr4PairESaIS1_EE3endEv
_ZNSt6vectorIN3cpr4PairESaIS1_EE3endEv:
.LFB10233:
	pushq	%rbp
	.seh_pushreg	%rbp
	movq	%rsp, %rbp
	.seh_setframe	%rbp, 0
	subq	$48, %rsp
	.seh_stackalloc	48
	.seh_endprologue
	movq	%rcx, 16(%rbp)
	movq	16(%rbp), %rax
	leaq	8(%rax), %rdx
	leaq	-8(%rbp), %rax
	movq	%rax, %rcx
	call	_ZN9__gnu_cxx17__normal_iteratorIPN3cpr4PairESt6vectorIS2_SaIS2_EEEC1ERKS3_
	movq	-8(%rbp), %rax
	addq	$48, %rsp
	popq	%rbp
	ret
	.seh_endproc
	.section	.text$_ZNSt6vectorIN3cpr4PairESaIS1_EE5beginEv,"x"
	.linkonce discard
	.align 2
	.globl	_ZNSt6vectorIN3cpr4PairESaIS1_EE5beginEv
	.def	_ZNSt6vectorIN3cpr4PairESaIS1_EE5beginEv;	.scl	2;	.type	32;	.endef
	.seh_proc	_ZNSt6vectorIN3cpr4PairESaIS1_EE5beginEv
_ZNSt6vectorIN3cpr4PairESaIS1_EE5beginEv:
.LFB10234:
	pushq	%rbp
	.seh_pushreg	%rbp
	movq	%rsp, %rbp
	.seh_setframe	%rbp, 0
	subq	$48, %rsp
	.seh_stackalloc	48
	.seh_endprologue
	movq	%rcx, 16(%rbp)
	movq	16(%rbp), %rdx
	leaq	-8(%rbp), %rax
	movq	%rax, %rcx
	call	_ZN9__gnu_cxx17__normal_iteratorIPN3cpr4PairESt6vectorIS2_SaIS2_EEEC1ERKS3_
	movq	-8(%rbp), %rax
	addq	$48, %rsp
	popq	%rbp
	ret
	.seh_endproc
	.section	.text$_ZN9__gnu_cxxmiIPN3cpr4PairESt6vectorIS2_SaIS2_EEEENS_17__normal_iteratorIT_T0_E15difference_typeERKSA_SD_,"x"
	.linkonce discard
	.globl	_ZN9__gnu_cxxmiIPN3cpr4PairESt6vectorIS2_SaIS2_EEEENS_17__normal_iteratorIT_T0_E15difference_typeERKSA_SD_
	.def	_ZN9__gnu_cxxmiIPN3cpr4PairESt6vectorIS2_SaIS2_EEEENS_17__normal_iteratorIT_T0_E15difference_typeERKSA_SD_;	.scl	2;	.type	32;	.endef
	.seh_proc	_ZN9__gnu_cxxmiIPN3cpr4PairESt6vectorIS2_SaIS2_EEEENS_17__normal_iteratorIT_T0_E15difference_typeERKSA_SD_
_ZN9__gnu_cxxmiIPN3cpr4PairESt6vectorIS2_SaIS2_EEEENS_17__normal_iteratorIT_T0_E15difference_typeERKSA_SD_:
.LFB10235:
	pushq	%rbp
	.seh_pushreg	%rbp
	pushq	%rbx
	.seh_pushreg	%rbx
	subq	$40, %rsp
	.seh_stackalloc	40
	leaq	32(%rsp), %rbp
	.seh_setframe	%rbp, 32
	.seh_endprologue
	movq	%rcx, 32(%rbp)
	movq	%rdx, 40(%rbp)
	movq	32(%rbp), %rax
	movq	%rax, %rcx
	call	_ZNK9__gnu_cxx17__normal_iteratorIPN3cpr4PairESt6vectorIS2_SaIS2_EEE4baseEv
	movq	(%rax), %rbx
	movq	40(%rbp), %rax
	movq	%rax, %rcx
	call	_ZNK9__gnu_cxx17__normal_iteratorIPN3cpr4PairESt6vectorIS2_SaIS2_EEE4baseEv
	movq	(%rax), %rax
	subq	%rax, %rbx
	movq	%rbx, %rdx
	movq	%rdx, %rax
	sarq	$6, %rax
	addq	$40, %rsp
	popq	%rbx
	popq	%rbp
	ret
	.seh_endproc
	.section	.text$_ZSt12__to_addressIN3cpr4PairEEPT_S3_,"x"
	.linkonce discard
	.globl	_ZSt12__to_addressIN3cpr4PairEEPT_S3_
	.def	_ZSt12__to_addressIN3cpr4PairEEPT_S3_;	.scl	2;	.type	32;	.endef
	.seh_proc	_ZSt12__to_addressIN3cpr4PairEEPT_S3_
_ZSt12__to_addressIN3cpr4PairEEPT_S3_:
.LFB10237:
	pushq	%rbp
	.seh_pushreg	%rbp
	movq	%rsp, %rbp
	.seh_setframe	%rbp, 0
	.seh_endprologue
	movq	%rcx, 16(%rbp)
	movq	16(%rbp), %rax
	popq	%rbp
	ret
	.seh_endproc
	.section	.text$_ZNSt6vectorIN3cpr4PairESaIS1_EE11_S_relocateEPS1_S4_S4_RS2_,"x"
	.linkonce discard
	.globl	_ZNSt6vectorIN3cpr4PairESaIS1_EE11_S_relocateEPS1_S4_S4_RS2_
	.def	_ZNSt6vectorIN3cpr4PairESaIS1_EE11_S_relocateEPS1_S4_S4_RS2_;	.scl	2;	.type	32;	.endef
	.seh_proc	_ZNSt6vectorIN3cpr4PairESaIS1_EE11_S_relocateEPS1_S4_S4_RS2_
_ZNSt6vectorIN3cpr4PairESaIS1_EE11_S_relocateEPS1_S4_S4_RS2_:
.LFB10238:
	pushq	%rbp
	.seh_pushreg	%rbp
	movq	%rsp, %rbp
	.seh_setframe	%rbp, 0
	subq	$32, %rsp
	.seh_stackalloc	32
	.seh_endprologue
	movq	%rcx, 16(%rbp)
	movq	%rdx, 24(%rbp)
	movq	%r8, 32(%rbp)
	movq	%r9, 40(%rbp)
	movq	40(%rbp), %r8
	movq	32(%rbp), %rcx
	movq	24(%rbp), %rdx
	movq	16(%rbp), %rax
	movq	%r8, %r9
	movq	%rcx, %r8
	movq	%rax, %rcx
	call	_ZSt12__relocate_aIPN3cpr4PairES2_SaIS1_EET0_T_S5_S4_RT1_
	addq	$32, %rsp
	popq	%rbp
	ret
	.seh_endproc
	.section	.text$_ZNSt12_Vector_baseIN3cpr9ParameterESaIS1_EE12_Vector_implC1ERKS2_,"x"
	.linkonce discard
	.align 2
	.globl	_ZNSt12_Vector_baseIN3cpr9ParameterESaIS1_EE12_Vector_implC1ERKS2_
	.def	_ZNSt12_Vector_baseIN3cpr9ParameterESaIS1_EE12_Vector_implC1ERKS2_;	.scl	2;	.type	32;	.endef
	.seh_proc	_ZNSt12_Vector_baseIN3cpr9ParameterESaIS1_EE12_Vector_implC1ERKS2_
_ZNSt12_Vector_baseIN3cpr9ParameterESaIS1_EE12_Vector_implC1ERKS2_:
.LFB10241:
	pushq	%rbp
	.seh_pushreg	%rbp
	movq	%rsp, %rbp
	.seh_setframe	%rbp, 0
	subq	$64, %rsp
	.seh_stackalloc	64
	.seh_endprologue
	movq	%rcx, 16(%rbp)
	movq	%rdx, 24(%rbp)
	movq	16(%rbp), %rax
	movq	%rax, -8(%rbp)
	movq	24(%rbp), %rax
	movq	%rax, -16(%rbp)
	movq	-8(%rbp), %rax
	movq	%rax, -24(%rbp)
	movq	-16(%rbp), %rax
	movq	%rax, -32(%rbp)
	nop
	nop
	movq	16(%rbp), %rax
	movq	%rax, %rcx
	call	_ZNSt12_Vector_baseIN3cpr9ParameterESaIS1_EE17_Vector_impl_dataC2Ev
	nop
	addq	$64, %rsp
	popq	%rbp
	ret
	.seh_endproc
	.section	.text$_ZNSt12_Vector_baseIN3cpr9ParameterESaIS1_EE13_M_deallocateEPS1_y,"x"
	.linkonce discard
	.align 2
	.globl	_ZNSt12_Vector_baseIN3cpr9ParameterESaIS1_EE13_M_deallocateEPS1_y
	.def	_ZNSt12_Vector_baseIN3cpr9ParameterESaIS1_EE13_M_deallocateEPS1_y;	.scl	2;	.type	32;	.endef
	.seh_proc	_ZNSt12_Vector_baseIN3cpr9ParameterESaIS1_EE13_M_deallocateEPS1_y
_ZNSt12_Vector_baseIN3cpr9ParameterESaIS1_EE13_M_deallocateEPS1_y:
.LFB10242:
	pushq	%rbp
	.seh_pushreg	%rbp
	movq	%rsp, %rbp
	.seh_setframe	%rbp, 0
	subq	$64, %rsp
	.seh_stackalloc	64
	.seh_endprologue
	movq	%rcx, 16(%rbp)
	movq	%rdx, 24(%rbp)
	movq	%r8, 32(%rbp)
	cmpq	$0, 24(%rbp)
	je	.L282
	movq	16(%rbp), %rax
	movq	%rax, -8(%rbp)
	movq	24(%rbp), %rax
	movq	%rax, -16(%rbp)
	movq	32(%rbp), %rax
	movq	%rax, -24(%rbp)
	movq	-24(%rbp), %rcx
	movq	-16(%rbp), %rdx
	movq	-8(%rbp), %rax
	movq	%rcx, %r8
	movq	%rax, %rcx
	call	_ZNSt15__new_allocatorIN3cpr9ParameterEE10deallocateEPS1_y
	nop
.L282:
	nop
	addq	$64, %rsp
	popq	%rbp
	ret
	.seh_endproc
	.section	.text$_ZNSt6vectorIN3cpr9ParameterESaIS1_EE17_S_check_init_lenEyRKS2_,"x"
	.linkonce discard
	.globl	_ZNSt6vectorIN3cpr9ParameterESaIS1_EE17_S_check_init_lenEyRKS2_
	.def	_ZNSt6vectorIN3cpr9ParameterESaIS1_EE17_S_check_init_lenEyRKS2_;	.scl	2;	.type	32;	.endef
	.seh_proc	_ZNSt6vectorIN3cpr9ParameterESaIS1_EE17_S_check_init_lenEyRKS2_
_ZNSt6vectorIN3cpr9ParameterESaIS1_EE17_S_check_init_lenEyRKS2_:
.LFB10245:
	pushq	%rbp
	.seh_pushreg	%rbp
	pushq	%rbx
	.seh_pushreg	%rbx
	subq	$72, %rsp
	.seh_stackalloc	72
	leaq	64(%rsp), %rbp
	.seh_setframe	%rbp, 64
	.seh_endprologue
	movq	%rcx, 32(%rbp)
	movq	%rdx, 40(%rbp)
	movq	40(%rbp), %rax
	movq	%rax, -8(%rbp)
	leaq	-25(%rbp), %rax
	movq	%rax, -16(%rbp)
	movq	-8(%rbp), %rax
	movq	%rax, -24(%rbp)
	nop
	nop
	leaq	-25(%rbp), %rax
	movq	%rax, %rcx
	call	_ZNSt6vectorIN3cpr9ParameterESaIS1_EE11_S_max_sizeERKS2_
	cmpq	32(%rbp), %rax
	setb	%bl
	leaq	-25(%rbp), %rax
	movq	%rax, %rcx
	call	_ZNSt15__new_allocatorIN3cpr9ParameterEED2Ev
	nop
	testb	%bl, %bl
	je	.L284
	leaq	.LC3(%rip), %rax
	movq	%rax, %rcx
	call	_ZSt20__throw_length_errorPKc
.L284:
	movq	32(%rbp), %rax
	addq	$72, %rsp
	popq	%rbx
	popq	%rbp
	ret
	.seh_endproc
	.section	.text$_ZNSt12_Vector_baseIN3cpr9ParameterESaIS1_EE11_M_allocateEy,"x"
	.linkonce discard
	.align 2
	.globl	_ZNSt12_Vector_baseIN3cpr9ParameterESaIS1_EE11_M_allocateEy
	.def	_ZNSt12_Vector_baseIN3cpr9ParameterESaIS1_EE11_M_allocateEy;	.scl	2;	.type	32;	.endef
	.seh_proc	_ZNSt12_Vector_baseIN3cpr9ParameterESaIS1_EE11_M_allocateEy
_ZNSt12_Vector_baseIN3cpr9ParameterESaIS1_EE11_M_allocateEy:
.LFB10246:
	pushq	%rbp
	.seh_pushreg	%rbp
	movq	%rsp, %rbp
	.seh_setframe	%rbp, 0
	subq	$48, %rsp
	.seh_stackalloc	48
	.seh_endprologue
	movq	%rcx, 16(%rbp)
	movq	%rdx, 24(%rbp)
	cmpq	$0, 24(%rbp)
	je	.L287
	movq	16(%rbp), %rax
	movq	%rax, -8(%rbp)
	movq	24(%rbp), %rax
	movq	%rax, -16(%rbp)
	movq	-16(%rbp), %rdx
	movq	-8(%rbp), %rax
	movl	$0, %r8d
	movq	%rax, %rcx
	call	_ZNSt15__new_allocatorIN3cpr9ParameterEE8allocateEyPKv
	nop
	jmp	.L289
.L287:
	movl	$0, %eax
.L289:
	addq	$48, %rsp
	popq	%rbp
	ret
	.seh_endproc
	.section	.text$_ZSt22__uninitialized_copy_aIPKN3cpr9ParameterEPS1_S1_ET0_T_S6_S5_RSaIT1_E,"x"
	.linkonce discard
	.globl	_ZSt22__uninitialized_copy_aIPKN3cpr9ParameterEPS1_S1_ET0_T_S6_S5_RSaIT1_E
	.def	_ZSt22__uninitialized_copy_aIPKN3cpr9ParameterEPS1_S1_ET0_T_S6_S5_RSaIT1_E;	.scl	2;	.type	32;	.endef
	.seh_proc	_ZSt22__uninitialized_copy_aIPKN3cpr9ParameterEPS1_S1_ET0_T_S6_S5_RSaIT1_E
_ZSt22__uninitialized_copy_aIPKN3cpr9ParameterEPS1_S1_ET0_T_S6_S5_RSaIT1_E:
.LFB10247:
	pushq	%rbp
	.seh_pushreg	%rbp
	movq	%rsp, %rbp
	.seh_setframe	%rbp, 0
	subq	$32, %rsp
	.seh_stackalloc	32
	.seh_endprologue
	movq	%rcx, 16(%rbp)
	movq	%rdx, 24(%rbp)
	movq	%r8, 32(%rbp)
	movq	%r9, 40(%rbp)
	movq	32(%rbp), %rcx
	movq	24(%rbp), %rdx
	movq	16(%rbp), %rax
	movq	%rcx, %r8
	movq	%rax, %rcx
	call	_ZSt18uninitialized_copyIPKN3cpr9ParameterEPS1_ET0_T_S6_S5_
	addq	$32, %rsp
	popq	%rbp
	ret
	.seh_endproc
	.section	.text$_ZSt8_DestroyIPN3cpr9ParameterEEvT_S3_,"x"
	.linkonce discard
	.globl	_ZSt8_DestroyIPN3cpr9ParameterEEvT_S3_
	.def	_ZSt8_DestroyIPN3cpr9ParameterEEvT_S3_;	.scl	2;	.type	32;	.endef
	.seh_proc	_ZSt8_DestroyIPN3cpr9ParameterEEvT_S3_
_ZSt8_DestroyIPN3cpr9ParameterEEvT_S3_:
.LFB10248:
	pushq	%rbp
	.seh_pushreg	%rbp
	movq	%rsp, %rbp
	.seh_setframe	%rbp, 0
	subq	$32, %rsp
	.seh_stackalloc	32
	.seh_endprologue
	movq	%rcx, 16(%rbp)
	movq	%rdx, 24(%rbp)
	movq	24(%rbp), %rdx
	movq	16(%rbp), %rax
	movq	%rax, %rcx
	call	_ZNSt12_Destroy_auxILb0EE9__destroyIPN3cpr9ParameterEEEvT_S5_
	nop
	addq	$32, %rsp
	popq	%rbp
	ret
	.seh_endproc
	.section	.text$_ZSt11__addressofISt6vectorIN3cpr9ParameterESaIS2_EEEPT_RS5_,"x"
	.linkonce discard
	.globl	_ZSt11__addressofISt6vectorIN3cpr9ParameterESaIS2_EEEPT_RS5_
	.def	_ZSt11__addressofISt6vectorIN3cpr9ParameterESaIS2_EEEPT_RS5_;	.scl	2;	.type	32;	.endef
	.seh_proc	_ZSt11__addressofISt6vectorIN3cpr9ParameterESaIS2_EEEPT_RS5_
_ZSt11__addressofISt6vectorIN3cpr9ParameterESaIS2_EEEPT_RS5_:
.LFB10249:
	pushq	%rbp
	.seh_pushreg	%rbp
	movq	%rsp, %rbp
	.seh_setframe	%rbp, 0
	.seh_endprologue
	movq	%rcx, 16(%rbp)
	movq	16(%rbp), %rax
	popq	%rbp
	ret
	.seh_endproc
	.section	.text$_ZSt4moveIRN3cpr9ParameterEEONSt16remove_referenceIT_E4typeEOS4_,"x"
	.linkonce discard
	.globl	_ZSt4moveIRN3cpr9ParameterEEONSt16remove_referenceIT_E4typeEOS4_
	.def	_ZSt4moveIRN3cpr9ParameterEEONSt16remove_referenceIT_E4typeEOS4_;	.scl	2;	.type	32;	.endef
	.seh_proc	_ZSt4moveIRN3cpr9ParameterEEONSt16remove_referenceIT_E4typeEOS4_
_ZSt4moveIRN3cpr9ParameterEEONSt16remove_referenceIT_E4typeEOS4_:
.LFB10250:
	pushq	%rbp
	.seh_pushreg	%rbp
	movq	%rsp, %rbp
	.seh_setframe	%rbp, 0
	.seh_endprologue
	movq	%rcx, 16(%rbp)
	movq	16(%rbp), %rax
	popq	%rbp
	ret
	.seh_endproc
	.section	.text$_ZNSt6vectorIN3cpr9ParameterESaIS1_EE9push_backEOS1_,"x"
	.linkonce discard
	.align 2
	.globl	_ZNSt6vectorIN3cpr9ParameterESaIS1_EE9push_backEOS1_
	.def	_ZNSt6vectorIN3cpr9ParameterESaIS1_EE9push_backEOS1_;	.scl	2;	.type	32;	.endef
	.seh_proc	_ZNSt6vectorIN3cpr9ParameterESaIS1_EE9push_backEOS1_
_ZNSt6vectorIN3cpr9ParameterESaIS1_EE9push_backEOS1_:
.LFB10251:
	pushq	%rbp
	.seh_pushreg	%rbp
	movq	%rsp, %rbp
	.seh_setframe	%rbp, 0
	subq	$32, %rsp
	.seh_stackalloc	32
	.seh_endprologue
	movq	%rcx, 16(%rbp)
	movq	%rdx, 24(%rbp)
	movq	24(%rbp), %rax
	movq	%rax, %rcx
	call	_ZSt4moveIRN3cpr9ParameterEEONSt16remove_referenceIT_E4typeEOS4_
	movq	%rax, %rdx
	movq	16(%rbp), %rax
	movq	%rax, %rcx
	call	_ZNSt6vectorIN3cpr9ParameterESaIS1_EE12emplace_backIJS1_EEERS1_DpOT_
	nop
	addq	$32, %rsp
	popq	%rbp
	ret
	.seh_endproc
	.section	.text$_ZSt7forwardIRKN3cpr9ParameterEEOT_RNSt16remove_referenceIS4_E4typeE,"x"
	.linkonce discard
	.globl	_ZSt7forwardIRKN3cpr9ParameterEEOT_RNSt16remove_referenceIS4_E4typeE
	.def	_ZSt7forwardIRKN3cpr9ParameterEEOT_RNSt16remove_referenceIS4_E4typeE;	.scl	2;	.type	32;	.endef
	.seh_proc	_ZSt7forwardIRKN3cpr9ParameterEEOT_RNSt16remove_referenceIS4_E4typeE
_ZSt7forwardIRKN3cpr9ParameterEEOT_RNSt16remove_referenceIS4_E4typeE:
.LFB10252:
	pushq	%rbp
	.seh_pushreg	%rbp
	movq	%rsp, %rbp
	.seh_setframe	%rbp, 0
	.seh_endprologue
	movq	%rcx, 16(%rbp)
	movq	16(%rbp), %rax
	popq	%rbp
	ret
	.seh_endproc
	.section	.text$_ZNKSt6vectorIN3cpr9ParameterESaIS1_EE12_M_check_lenEyPKc,"x"
	.linkonce discard
	.align 2
	.globl	_ZNKSt6vectorIN3cpr9ParameterESaIS1_EE12_M_check_lenEyPKc
	.def	_ZNKSt6vectorIN3cpr9ParameterESaIS1_EE12_M_check_lenEyPKc;	.scl	2;	.type	32;	.endef
	.seh_proc	_ZNKSt6vectorIN3cpr9ParameterESaIS1_EE12_M_check_lenEyPKc
_ZNKSt6vectorIN3cpr9ParameterESaIS1_EE12_M_check_lenEyPKc:
.LFB10254:
	pushq	%rbp
	.seh_pushreg	%rbp
	pushq	%rbx
	.seh_pushreg	%rbx
	subq	$56, %rsp
	.seh_stackalloc	56
	leaq	48(%rsp), %rbp
	.seh_setframe	%rbp, 48
	.seh_endprologue
	movq	%rcx, 32(%rbp)
	movq	%rdx, 40(%rbp)
	movq	%r8, 48(%rbp)
	movq	32(%rbp), %rax
	movq	%rax, %rcx
	call	_ZNKSt6vectorIN3cpr9ParameterESaIS1_EE8max_sizeEv
	movq	%rax, %rbx
	movq	32(%rbp), %rax
	movq	%rax, %rcx
	call	_ZNKSt6vectorIN3cpr9ParameterESaIS1_EE4sizeEv
	subq	%rax, %rbx
	movq	%rbx, %rdx
	movq	40(%rbp), %rax
	cmpq	%rax, %rdx
	setb	%al
	testb	%al, %al
	je	.L302
	movq	48(%rbp), %rax
	movq	%rax, %rcx
	call	_ZSt20__throw_length_errorPKc
.L302:
	movq	32(%rbp), %rax
	movq	%rax, %rcx
	call	_ZNKSt6vectorIN3cpr9ParameterESaIS1_EE4sizeEv
	movq	%rax, %rbx
	movq	32(%rbp), %rax
	movq	%rax, %rcx
	call	_ZNKSt6vectorIN3cpr9ParameterESaIS1_EE4sizeEv
	movq	%rax, -16(%rbp)
	leaq	40(%rbp), %rdx
	leaq	-16(%rbp), %rax
	movq	%rax, %rcx
	call	_ZSt3maxIyERKT_S2_S2_
	movq	(%rax), %rax
	addq	%rbx, %rax
	movq	%rax, -8(%rbp)
	movq	32(%rbp), %rax
	movq	%rax, %rcx
	call	_ZNKSt6vectorIN3cpr9ParameterESaIS1_EE4sizeEv
	cmpq	%rax, -8(%rbp)
	jb	.L303
	movq	32(%rbp), %rax
	movq	%rax, %rcx
	call	_ZNKSt6vectorIN3cpr9ParameterESaIS1_EE8max_sizeEv
	cmpq	-8(%rbp), %rax
	jnb	.L304
.L303:
	movq	32(%rbp), %rax
	movq	%rax, %rcx
	call	_ZNKSt6vectorIN3cpr9ParameterESaIS1_EE8max_sizeEv
	jmp	.L305
.L304:
	movq	-8(%rbp), %rax
.L305:
	addq	$56, %rsp
	popq	%rbx
	popq	%rbp
	ret
	.seh_endproc
	.section	.text$_ZNSt6vectorIN3cpr9ParameterESaIS1_EE3endEv,"x"
	.linkonce discard
	.align 2
	.globl	_ZNSt6vectorIN3cpr9ParameterESaIS1_EE3endEv
	.def	_ZNSt6vectorIN3cpr9ParameterESaIS1_EE3endEv;	.scl	2;	.type	32;	.endef
	.seh_proc	_ZNSt6vectorIN3cpr9ParameterESaIS1_EE3endEv
_ZNSt6vectorIN3cpr9ParameterESaIS1_EE3endEv:
.LFB10255:
	pushq	%rbp
	.seh_pushreg	%rbp
	movq	%rsp, %rbp
	.seh_setframe	%rbp, 0
	subq	$48, %rsp
	.seh_stackalloc	48
	.seh_endprologue
	movq	%rcx, 16(%rbp)
	movq	16(%rbp), %rax
	leaq	8(%rax), %rdx
	leaq	-8(%rbp), %rax
	movq	%rax, %rcx
	call	_ZN9__gnu_cxx17__normal_iteratorIPN3cpr9ParameterESt6vectorIS2_SaIS2_EEEC1ERKS3_
	movq	-8(%rbp), %rax
	addq	$48, %rsp
	popq	%rbp
	ret
	.seh_endproc
	.section	.text$_ZNSt6vectorIN3cpr9ParameterESaIS1_EE5beginEv,"x"
	.linkonce discard
	.align 2
	.globl	_ZNSt6vectorIN3cpr9ParameterESaIS1_EE5beginEv
	.def	_ZNSt6vectorIN3cpr9ParameterESaIS1_EE5beginEv;	.scl	2;	.type	32;	.endef
	.seh_proc	_ZNSt6vectorIN3cpr9ParameterESaIS1_EE5beginEv
_ZNSt6vectorIN3cpr9ParameterESaIS1_EE5beginEv:
.LFB10256:
	pushq	%rbp
	.seh_pushreg	%rbp
	movq	%rsp, %rbp
	.seh_setframe	%rbp, 0
	subq	$48, %rsp
	.seh_stackalloc	48
	.seh_endprologue
	movq	%rcx, 16(%rbp)
	movq	16(%rbp), %rdx
	leaq	-8(%rbp), %rax
	movq	%rax, %rcx
	call	_ZN9__gnu_cxx17__normal_iteratorIPN3cpr9ParameterESt6vectorIS2_SaIS2_EEEC1ERKS3_
	movq	-8(%rbp), %rax
	addq	$48, %rsp
	popq	%rbp
	ret
	.seh_endproc
	.section	.text$_ZN9__gnu_cxxmiIPN3cpr9ParameterESt6vectorIS2_SaIS2_EEEENS_17__normal_iteratorIT_T0_E15difference_typeERKSA_SD_,"x"
	.linkonce discard
	.globl	_ZN9__gnu_cxxmiIPN3cpr9ParameterESt6vectorIS2_SaIS2_EEEENS_17__normal_iteratorIT_T0_E15difference_typeERKSA_SD_
	.def	_ZN9__gnu_cxxmiIPN3cpr9ParameterESt6vectorIS2_SaIS2_EEEENS_17__normal_iteratorIT_T0_E15difference_typeERKSA_SD_;	.scl	2;	.type	32;	.endef
	.seh_proc	_ZN9__gnu_cxxmiIPN3cpr9ParameterESt6vectorIS2_SaIS2_EEEENS_17__normal_iteratorIT_T0_E15difference_typeERKSA_SD_
_ZN9__gnu_cxxmiIPN3cpr9ParameterESt6vectorIS2_SaIS2_EEEENS_17__normal_iteratorIT_T0_E15difference_typeERKSA_SD_:
.LFB10257:
	pushq	%rbp
	.seh_pushreg	%rbp
	pushq	%rbx
	.seh_pushreg	%rbx
	subq	$40, %rsp
	.seh_stackalloc	40
	leaq	32(%rsp), %rbp
	.seh_setframe	%rbp, 32
	.seh_endprologue
	movq	%rcx, 32(%rbp)
	movq	%rdx, 40(%rbp)
	movq	32(%rbp), %rax
	movq	%rax, %rcx
	call	_ZNK9__gnu_cxx17__normal_iteratorIPN3cpr9ParameterESt6vectorIS2_SaIS2_EEE4baseEv
	movq	(%rax), %rbx
	movq	40(%rbp), %rax
	movq	%rax, %rcx
	call	_ZNK9__gnu_cxx17__normal_iteratorIPN3cpr9ParameterESt6vectorIS2_SaIS2_EEE4baseEv
	movq	(%rax), %rax
	subq	%rax, %rbx
	movq	%rbx, %rdx
	movq	%rdx, %rax
	sarq	$6, %rax
	addq	$40, %rsp
	popq	%rbx
	popq	%rbp
	ret
	.seh_endproc
	.section	.text$_ZSt12__to_addressIN3cpr9ParameterEEPT_S3_,"x"
	.linkonce discard
	.globl	_ZSt12__to_addressIN3cpr9ParameterEEPT_S3_
	.def	_ZSt12__to_addressIN3cpr9ParameterEEPT_S3_;	.scl	2;	.type	32;	.endef
	.seh_proc	_ZSt12__to_addressIN3cpr9ParameterEEPT_S3_
_ZSt12__to_addressIN3cpr9ParameterEEPT_S3_:
.LFB10259:
	pushq	%rbp
	.seh_pushreg	%rbp
	movq	%rsp, %rbp
	.seh_setframe	%rbp, 0
	.seh_endprologue
	movq	%rcx, 16(%rbp)
	movq	16(%rbp), %rax
	popq	%rbp
	ret
	.seh_endproc
	.section	.text$_ZNSt6vectorIN3cpr9ParameterESaIS1_EE11_S_relocateEPS1_S4_S4_RS2_,"x"
	.linkonce discard
	.globl	_ZNSt6vectorIN3cpr9ParameterESaIS1_EE11_S_relocateEPS1_S4_S4_RS2_
	.def	_ZNSt6vectorIN3cpr9ParameterESaIS1_EE11_S_relocateEPS1_S4_S4_RS2_;	.scl	2;	.type	32;	.endef
	.seh_proc	_ZNSt6vectorIN3cpr9ParameterESaIS1_EE11_S_relocateEPS1_S4_S4_RS2_
_ZNSt6vectorIN3cpr9ParameterESaIS1_EE11_S_relocateEPS1_S4_S4_RS2_:
.LFB10260:
	pushq	%rbp
	.seh_pushreg	%rbp
	movq	%rsp, %rbp
	.seh_setframe	%rbp, 0
	subq	$32, %rsp
	.seh_stackalloc	32
	.seh_endprologue
	movq	%rcx, 16(%rbp)
	movq	%rdx, 24(%rbp)
	movq	%r8, 32(%rbp)
	movq	%r9, 40(%rbp)
	movq	40(%rbp), %r8
	movq	32(%rbp), %rcx
	movq	24(%rbp), %rdx
	movq	16(%rbp), %rax
	movq	%r8, %r9
	movq	%rcx, %r8
	movq	%rax, %rcx
	call	_ZSt12__relocate_aIPN3cpr9ParameterES2_SaIS1_EET0_T_S5_S4_RT1_
	addq	$32, %rsp
	popq	%rbp
	ret
	.seh_endproc
	.section	.text$_ZNSt12_Vector_baseIN3cpr4PairESaIS1_EE17_Vector_impl_dataC2Ev,"x"
	.linkonce discard
	.align 2
	.globl	_ZNSt12_Vector_baseIN3cpr4PairESaIS1_EE17_Vector_impl_dataC2Ev
	.def	_ZNSt12_Vector_baseIN3cpr4PairESaIS1_EE17_Vector_impl_dataC2Ev;	.scl	2;	.type	32;	.endef
	.seh_proc	_ZNSt12_Vector_baseIN3cpr4PairESaIS1_EE17_Vector_impl_dataC2Ev
_ZNSt12_Vector_baseIN3cpr4PairESaIS1_EE17_Vector_impl_dataC2Ev:
.LFB10284:
	pushq	%rbp
	.seh_pushreg	%rbp
	movq	%rsp, %rbp
	.seh_setframe	%rbp, 0
	.seh_endprologue
	movq	%rcx, 16(%rbp)
	movq	16(%rbp), %rax
	movq	$0, (%rax)
	movq	16(%rbp), %rax
	movq	$0, 8(%rax)
	movq	16(%rbp), %rax
	movq	$0, 16(%rax)
	nop
	popq	%rbp
	ret
	.seh_endproc
	.section	.text$_ZNSt6vectorIN3cpr4PairESaIS1_EE11_S_max_sizeERKS2_,"x"
	.linkonce discard
	.globl	_ZNSt6vectorIN3cpr4PairESaIS1_EE11_S_max_sizeERKS2_
	.def	_ZNSt6vectorIN3cpr4PairESaIS1_EE11_S_max_sizeERKS2_;	.scl	2;	.type	32;	.endef
	.seh_proc	_ZNSt6vectorIN3cpr4PairESaIS1_EE11_S_max_sizeERKS2_
_ZNSt6vectorIN3cpr4PairESaIS1_EE11_S_max_sizeERKS2_:
.LFB10286:
	pushq	%rbp
	.seh_pushreg	%rbp
	movq	%rsp, %rbp
	.seh_setframe	%rbp, 0
	subq	$80, %rsp
	.seh_stackalloc	80
	.seh_endprologue
	movq	%rcx, 16(%rbp)
	movabsq	$144115188075855871, %rax
	movq	%rax, -32(%rbp)
	movq	16(%rbp), %rax
	movq	%rax, -8(%rbp)
	movq	-8(%rbp), %rax
	movq	%rax, -16(%rbp)
	movq	-16(%rbp), %rax
	movq	%rax, -24(%rbp)
	movabsq	$144115188075855871, %rax
	nop
	nop
	movq	%rax, -40(%rbp)
	leaq	-40(%rbp), %rdx
	leaq	-32(%rbp), %rax
	movq	%rax, %rcx
	call	_ZSt3minIyERKT_S2_S2_
	movq	(%rax), %rax
	addq	$80, %rsp
	popq	%rbp
	ret
	.seh_endproc
	.section	.text$_ZSt18uninitialized_copyIPKN3cpr4PairEPS1_ET0_T_S6_S5_,"x"
	.linkonce discard
	.globl	_ZSt18uninitialized_copyIPKN3cpr4PairEPS1_ET0_T_S6_S5_
	.def	_ZSt18uninitialized_copyIPKN3cpr4PairEPS1_ET0_T_S6_S5_;	.scl	2;	.type	32;	.endef
	.seh_proc	_ZSt18uninitialized_copyIPKN3cpr4PairEPS1_ET0_T_S6_S5_
_ZSt18uninitialized_copyIPKN3cpr4PairEPS1_ET0_T_S6_S5_:
.LFB10288:
	pushq	%rbp
	.seh_pushreg	%rbp
	movq	%rsp, %rbp
	.seh_setframe	%rbp, 0
	subq	$48, %rsp
	.seh_stackalloc	48
	.seh_endprologue
	movq	%rcx, 16(%rbp)
	movq	%rdx, 24(%rbp)
	movq	%r8, 32(%rbp)
	movb	$0, -1(%rbp)
	movb	$0, -2(%rbp)
	movq	32(%rbp), %rcx
	movq	24(%rbp), %rdx
	movq	16(%rbp), %rax
	movq	%rcx, %r8
	movq	%rax, %rcx
	call	_ZNSt20__uninitialized_copyILb0EE13__uninit_copyIPKN3cpr4PairEPS3_EET0_T_S8_S7_
	addq	$48, %rsp
	popq	%rbp
	ret
	.seh_endproc
	.section	.text$_ZNSt12_Destroy_auxILb0EE9__destroyIPN3cpr4PairEEEvT_S5_,"x"
	.linkonce discard
	.globl	_ZNSt12_Destroy_auxILb0EE9__destroyIPN3cpr4PairEEEvT_S5_
	.def	_ZNSt12_Destroy_auxILb0EE9__destroyIPN3cpr4PairEEEvT_S5_;	.scl	2;	.type	32;	.endef
	.seh_proc	_ZNSt12_Destroy_auxILb0EE9__destroyIPN3cpr4PairEEEvT_S5_
_ZNSt12_Destroy_auxILb0EE9__destroyIPN3cpr4PairEEEvT_S5_:
.LFB10290:
	pushq	%rbp
	.seh_pushreg	%rbp
	movq	%rsp, %rbp
	.seh_setframe	%rbp, 0
	subq	$32, %rsp
	.seh_stackalloc	32
	.seh_endprologue
	movq	%rcx, 16(%rbp)
	movq	%rdx, 24(%rbp)
	jmp	.L326
.L327:
	movq	16(%rbp), %rax
	movq	%rax, %rcx
	call	_ZSt11__addressofIN3cpr4PairEEPT_RS2_
	movq	%rax, %rcx
	call	_ZSt8_DestroyIN3cpr4PairEEvPT_
	addq	$64, 16(%rbp)
.L326:
	movq	16(%rbp), %rax
	cmpq	24(%rbp), %rax
	jne	.L327
	nop
	nop
	addq	$32, %rsp
	popq	%rbp
	ret
	.seh_endproc
	.section	.text$_ZNSt6vectorIN3cpr4PairESaIS1_EE12emplace_backIJS1_EEERS1_DpOT_,"x"
	.linkonce discard
	.align 2
	.globl	_ZNSt6vectorIN3cpr4PairESaIS1_EE12emplace_backIJS1_EEERS1_DpOT_
	.def	_ZNSt6vectorIN3cpr4PairESaIS1_EE12emplace_backIJS1_EEERS1_DpOT_;	.scl	2;	.type	32;	.endef
	.seh_proc	_ZNSt6vectorIN3cpr4PairESaIS1_EE12emplace_backIJS1_EEERS1_DpOT_
_ZNSt6vectorIN3cpr4PairESaIS1_EE12emplace_backIJS1_EEERS1_DpOT_:
.LFB10291:
	pushq	%rbp
	.seh_pushreg	%rbp
	pushq	%rbx
	.seh_pushreg	%rbx
	subq	$88, %rsp
	.seh_stackalloc	88
	leaq	80(%rsp), %rbp
	.seh_setframe	%rbp, 80
	.seh_endprologue
	movq	%rcx, 32(%rbp)
	movq	%rdx, 40(%rbp)
	movq	32(%rbp), %rax
	movq	8(%rax), %rdx
	movq	32(%rbp), %rax
	movq	16(%rax), %rax
	cmpq	%rax, %rdx
	je	.L329
	movq	40(%rbp), %rax
	movq	%rax, %rcx
	call	_ZSt7forwardIN3cpr4PairEEOT_RNSt16remove_referenceIS2_E4typeE
	movq	32(%rbp), %rdx
	movq	8(%rdx), %rdx
	movq	32(%rbp), %rcx
	movq	%rcx, -8(%rbp)
	movq	%rdx, -16(%rbp)
	movq	%rax, -24(%rbp)
	movq	-24(%rbp), %rax
	movq	%rax, %rcx
	call	_ZSt7forwardIN3cpr4PairEEOT_RNSt16remove_referenceIS2_E4typeE
	movq	-16(%rbp), %rdx
	movq	%rdx, -32(%rbp)
	movq	%rax, -40(%rbp)
	movq	-8(%rbp), %rax
	movq	%rax, -48(%rbp)
	movq	-32(%rbp), %rax
	movq	%rax, %rdx
	movl	$64, %ecx
	call	_ZnwyPv
	movq	%rax, %rbx
	movq	-40(%rbp), %rax
	movq	%rax, %rcx
	call	_ZSt7forwardIN3cpr4PairEEOT_RNSt16remove_referenceIS2_E4typeE
	movq	%rax, %rdx
	movq	%rbx, %rcx
	call	_ZN3cpr4PairC1EOS0_
	nop
	nop
	movq	32(%rbp), %rax
	movq	8(%rax), %rax
	leaq	64(%rax), %rdx
	movq	32(%rbp), %rax
	movq	%rdx, 8(%rax)
	jmp	.L330
.L329:
	movq	40(%rbp), %rax
	movq	%rax, %rcx
	call	_ZSt7forwardIN3cpr4PairEEOT_RNSt16remove_referenceIS2_E4typeE
	movq	%rax, %rdx
	movq	32(%rbp), %rax
	movq	%rax, %rcx
	call	_ZNSt6vectorIN3cpr4PairESaIS1_EE17_M_realloc_appendIJS1_EEEvDpOT_
.L330:
	movq	32(%rbp), %rax
	movq	%rax, %rcx
	call	_ZNSt6vectorIN3cpr4PairESaIS1_EE4backEv
	addq	$88, %rsp
	popq	%rbx
	popq	%rbp
	ret
	.seh_endproc
	.section	.text$_ZNKSt6vectorIN3cpr4PairESaIS1_EE8max_sizeEv,"x"
	.linkonce discard
	.align 2
	.globl	_ZNKSt6vectorIN3cpr4PairESaIS1_EE8max_sizeEv
	.def	_ZNKSt6vectorIN3cpr4PairESaIS1_EE8max_sizeEv;	.scl	2;	.type	32;	.endef
	.seh_proc	_ZNKSt6vectorIN3cpr4PairESaIS1_EE8max_sizeEv
_ZNKSt6vectorIN3cpr4PairESaIS1_EE8max_sizeEv:
.LFB10292:
	pushq	%rbp
	.seh_pushreg	%rbp
	movq	%rsp, %rbp
	.seh_setframe	%rbp, 0
	subq	$32, %rsp
	.seh_stackalloc	32
	.seh_endprologue
	movq	%rcx, 16(%rbp)
	movq	16(%rbp), %rax
	movq	%rax, %rcx
	call	_ZNKSt12_Vector_baseIN3cpr4PairESaIS1_EE19_M_get_Tp_allocatorEv
	movq	%rax, %rcx
	call	_ZNSt6vectorIN3cpr4PairESaIS1_EE11_S_max_sizeERKS2_
	addq	$32, %rsp
	popq	%rbp
	ret
	.seh_endproc
	.section	.text$_ZNKSt6vectorIN3cpr4PairESaIS1_EE4sizeEv,"x"
	.linkonce discard
	.align 2
	.globl	_ZNKSt6vectorIN3cpr4PairESaIS1_EE4sizeEv
	.def	_ZNKSt6vectorIN3cpr4PairESaIS1_EE4sizeEv;	.scl	2;	.type	32;	.endef
	.seh_proc	_ZNKSt6vectorIN3cpr4PairESaIS1_EE4sizeEv
_ZNKSt6vectorIN3cpr4PairESaIS1_EE4sizeEv:
.LFB10293:
	pushq	%rbp
	.seh_pushreg	%rbp
	movq	%rsp, %rbp
	.seh_setframe	%rbp, 0
	.seh_endprologue
	movq	%rcx, 16(%rbp)
	movq	16(%rbp), %rax
	movq	8(%rax), %rdx
	movq	16(%rbp), %rax
	movq	(%rax), %rax
	subq	%rax, %rdx
	movq	%rdx, %rax
	sarq	$6, %rax
	popq	%rbp
	ret
	.seh_endproc
	.section	.text$_ZSt3maxIyERKT_S2_S2_,"x"
	.linkonce discard
	.globl	_ZSt3maxIyERKT_S2_S2_
	.def	_ZSt3maxIyERKT_S2_S2_;	.scl	2;	.type	32;	.endef
	.seh_proc	_ZSt3maxIyERKT_S2_S2_
_ZSt3maxIyERKT_S2_S2_:
.LFB10294:
	pushq	%rbp
	.seh_pushreg	%rbp
	movq	%rsp, %rbp
	.seh_setframe	%rbp, 0
	.seh_endprologue
	movq	%rcx, 16(%rbp)
	movq	%rdx, 24(%rbp)
	movq	16(%rbp), %rax
	movq	(%rax), %rdx
	movq	24(%rbp), %rax
	movq	(%rax), %rax
	cmpq	%rax, %rdx
	jnb	.L337
	movq	24(%rbp), %rax
	jmp	.L338
.L337:
	movq	16(%rbp), %rax
.L338:
	popq	%rbp
	ret
	.seh_endproc
	.section	.text$_ZN9__gnu_cxx17__normal_iteratorIPN3cpr4PairESt6vectorIS2_SaIS2_EEEC1ERKS3_,"x"
	.linkonce discard
	.align 2
	.globl	_ZN9__gnu_cxx17__normal_iteratorIPN3cpr4PairESt6vectorIS2_SaIS2_EEEC1ERKS3_
	.def	_ZN9__gnu_cxx17__normal_iteratorIPN3cpr4PairESt6vectorIS2_SaIS2_EEEC1ERKS3_;	.scl	2;	.type	32;	.endef
	.seh_proc	_ZN9__gnu_cxx17__normal_iteratorIPN3cpr4PairESt6vectorIS2_SaIS2_EEEC1ERKS3_
_ZN9__gnu_cxx17__normal_iteratorIPN3cpr4PairESt6vectorIS2_SaIS2_EEEC1ERKS3_:
.LFB10297:
	pushq	%rbp
	.seh_pushreg	%rbp
	movq	%rsp, %rbp
	.seh_setframe	%rbp, 0
	.seh_endprologue
	movq	%rcx, 16(%rbp)
	movq	%rdx, 24(%rbp)
	movq	24(%rbp), %rax
	movq	(%rax), %rdx
	movq	16(%rbp), %rax
	movq	%rdx, (%rax)
	nop
	popq	%rbp
	ret
	.seh_endproc
	.section	.text$_ZNK9__gnu_cxx17__normal_iteratorIPN3cpr4PairESt6vectorIS2_SaIS2_EEE4baseEv,"x"
	.linkonce discard
	.align 2
	.globl	_ZNK9__gnu_cxx17__normal_iteratorIPN3cpr4PairESt6vectorIS2_SaIS2_EEE4baseEv
	.def	_ZNK9__gnu_cxx17__normal_iteratorIPN3cpr4PairESt6vectorIS2_SaIS2_EEE4baseEv;	.scl	2;	.type	32;	.endef
	.seh_proc	_ZNK9__gnu_cxx17__normal_iteratorIPN3cpr4PairESt6vectorIS2_SaIS2_EEE4baseEv
_ZNK9__gnu_cxx17__normal_iteratorIPN3cpr4PairESt6vectorIS2_SaIS2_EEE4baseEv:
.LFB10298:
	pushq	%rbp
	.seh_pushreg	%rbp
	movq	%rsp, %rbp
	.seh_setframe	%rbp, 0
	.seh_endprologue
	movq	%rcx, 16(%rbp)
	movq	16(%rbp), %rax
	popq	%rbp
	ret
	.seh_endproc
	.section	.text$_ZNSt15__new_allocatorIN3cpr4PairEE10deallocateEPS1_y,"x"
	.linkonce discard
	.align 2
	.globl	_ZNSt15__new_allocatorIN3cpr4PairEE10deallocateEPS1_y
	.def	_ZNSt15__new_allocatorIN3cpr4PairEE10deallocateEPS1_y;	.scl	2;	.type	32;	.endef
	.seh_proc	_ZNSt15__new_allocatorIN3cpr4PairEE10deallocateEPS1_y
_ZNSt15__new_allocatorIN3cpr4PairEE10deallocateEPS1_y:
.LFB10299:
	pushq	%rbp
	.seh_pushreg	%rbp
	movq	%rsp, %rbp
	.seh_setframe	%rbp, 0
	subq	$32, %rsp
	.seh_stackalloc	32
	.seh_endprologue
	movq	%rcx, 16(%rbp)
	movq	%rdx, 24(%rbp)
	movq	%r8, 32(%rbp)
	movq	32(%rbp), %rax
	salq	$6, %rax
	movq	%rax, %rdx
	movq	24(%rbp), %rax
	movq	%rax, %rcx
	call	_ZdlPvy
	nop
	addq	$32, %rsp
	popq	%rbp
	ret
	.seh_endproc
	.section	.text$_ZSt12__relocate_aIPN3cpr4PairES2_SaIS1_EET0_T_S5_S4_RT1_,"x"
	.linkonce discard
	.globl	_ZSt12__relocate_aIPN3cpr4PairES2_SaIS1_EET0_T_S5_S4_RT1_
	.def	_ZSt12__relocate_aIPN3cpr4PairES2_SaIS1_EET0_T_S5_S4_RT1_;	.scl	2;	.type	32;	.endef
	.seh_proc	_ZSt12__relocate_aIPN3cpr4PairES2_SaIS1_EET0_T_S5_S4_RT1_
_ZSt12__relocate_aIPN3cpr4PairES2_SaIS1_EET0_T_S5_S4_RT1_:
.LFB10300:
	pushq	%rbp
	.seh_pushreg	%rbp
	pushq	%rsi
	.seh_pushreg	%rsi
	pushq	%rbx
	.seh_pushreg	%rbx
	subq	$32, %rsp
	.seh_stackalloc	32
	leaq	32(%rsp), %rbp
	.seh_setframe	%rbp, 32
	.seh_endprologue
	movq	%rcx, 32(%rbp)
	movq	%rdx, 40(%rbp)
	movq	%r8, 48(%rbp)
	movq	%r9, 56(%rbp)
	movq	48(%rbp), %rax
	movq	%rax, %rcx
	call	_ZSt12__niter_baseIPN3cpr4PairEET_S3_
	movq	%rax, %rsi
	movq	40(%rbp), %rax
	movq	%rax, %rcx
	call	_ZSt12__niter_baseIPN3cpr4PairEET_S3_
	movq	%rax, %rbx
	movq	32(%rbp), %rax
	movq	%rax, %rcx
	call	_ZSt12__niter_baseIPN3cpr4PairEET_S3_
	movq	56(%rbp), %rdx
	movq	%rdx, %r9
	movq	%rsi, %r8
	movq	%rbx, %rdx
	movq	%rax, %rcx
	call	_ZSt14__relocate_a_1IPN3cpr4PairES2_SaIS1_EET0_T_S5_S4_RT1_
	addq	$32, %rsp
	popq	%rbx
	popq	%rsi
	popq	%rbp
	ret
	.seh_endproc
	.section	.text$_ZNSt12_Vector_baseIN3cpr9ParameterESaIS1_EE17_Vector_impl_dataC2Ev,"x"
	.linkonce discard
	.align 2
	.globl	_ZNSt12_Vector_baseIN3cpr9ParameterESaIS1_EE17_Vector_impl_dataC2Ev
	.def	_ZNSt12_Vector_baseIN3cpr9ParameterESaIS1_EE17_Vector_impl_dataC2Ev;	.scl	2;	.type	32;	.endef
	.seh_proc	_ZNSt12_Vector_baseIN3cpr9ParameterESaIS1_EE17_Vector_impl_dataC2Ev
_ZNSt12_Vector_baseIN3cpr9ParameterESaIS1_EE17_Vector_impl_dataC2Ev:
.LFB10305:
	pushq	%rbp
	.seh_pushreg	%rbp
	movq	%rsp, %rbp
	.seh_setframe	%rbp, 0
	.seh_endprologue
	movq	%rcx, 16(%rbp)
	movq	16(%rbp), %rax
	movq	$0, (%rax)
	movq	16(%rbp), %rax
	movq	$0, 8(%rax)
	movq	16(%rbp), %rax
	movq	$0, 16(%rax)
	nop
	popq	%rbp
	ret
	.seh_endproc
	.section	.text$_ZNSt6vectorIN3cpr9ParameterESaIS1_EE11_S_max_sizeERKS2_,"x"
	.linkonce discard
	.globl	_ZNSt6vectorIN3cpr9ParameterESaIS1_EE11_S_max_sizeERKS2_
	.def	_ZNSt6vectorIN3cpr9ParameterESaIS1_EE11_S_max_sizeERKS2_;	.scl	2;	.type	32;	.endef
	.seh_proc	_ZNSt6vectorIN3cpr9ParameterESaIS1_EE11_S_max_sizeERKS2_
_ZNSt6vectorIN3cpr9ParameterESaIS1_EE11_S_max_sizeERKS2_:
.LFB10307:
	pushq	%rbp
	.seh_pushreg	%rbp
	movq	%rsp, %rbp
	.seh_setframe	%rbp, 0
	subq	$80, %rsp
	.seh_stackalloc	80
	.seh_endprologue
	movq	%rcx, 16(%rbp)
	movabsq	$144115188075855871, %rax
	movq	%rax, -32(%rbp)
	movq	16(%rbp), %rax
	movq	%rax, -8(%rbp)
	movq	-8(%rbp), %rax
	movq	%rax, -16(%rbp)
	movq	-16(%rbp), %rax
	movq	%rax, -24(%rbp)
	movabsq	$144115188075855871, %rax
	nop
	nop
	movq	%rax, -40(%rbp)
	leaq	-40(%rbp), %rdx
	leaq	-32(%rbp), %rax
	movq	%rax, %rcx
	call	_ZSt3minIyERKT_S2_S2_
	movq	(%rax), %rax
	addq	$80, %rsp
	popq	%rbp
	ret
	.seh_endproc
	.section	.text$_ZSt18uninitialized_copyIPKN3cpr9ParameterEPS1_ET0_T_S6_S5_,"x"
	.linkonce discard
	.globl	_ZSt18uninitialized_copyIPKN3cpr9ParameterEPS1_ET0_T_S6_S5_
	.def	_ZSt18uninitialized_copyIPKN3cpr9ParameterEPS1_ET0_T_S6_S5_;	.scl	2;	.type	32;	.endef
	.seh_proc	_ZSt18uninitialized_copyIPKN3cpr9ParameterEPS1_ET0_T_S6_S5_
_ZSt18uninitialized_copyIPKN3cpr9ParameterEPS1_ET0_T_S6_S5_:
.LFB10309:
	pushq	%rbp
	.seh_pushreg	%rbp
	movq	%rsp, %rbp
	.seh_setframe	%rbp, 0
	subq	$48, %rsp
	.seh_stackalloc	48
	.seh_endprologue
	movq	%rcx, 16(%rbp)
	movq	%rdx, 24(%rbp)
	movq	%r8, 32(%rbp)
	movb	$0, -1(%rbp)
	movb	$0, -2(%rbp)
	movq	32(%rbp), %rcx
	movq	24(%rbp), %rdx
	movq	16(%rbp), %rax
	movq	%rcx, %r8
	movq	%rax, %rcx
	call	_ZNSt20__uninitialized_copyILb0EE13__uninit_copyIPKN3cpr9ParameterEPS3_EET0_T_S8_S7_
	addq	$48, %rsp
	popq	%rbp
	ret
	.seh_endproc
	.section	.text$_ZNSt12_Destroy_auxILb0EE9__destroyIPN3cpr9ParameterEEEvT_S5_,"x"
	.linkonce discard
	.globl	_ZNSt12_Destroy_auxILb0EE9__destroyIPN3cpr9ParameterEEEvT_S5_
	.def	_ZNSt12_Destroy_auxILb0EE9__destroyIPN3cpr9ParameterEEEvT_S5_;	.scl	2;	.type	32;	.endef
	.seh_proc	_ZNSt12_Destroy_auxILb0EE9__destroyIPN3cpr9ParameterEEEvT_S5_
_ZNSt12_Destroy_auxILb0EE9__destroyIPN3cpr9ParameterEEEvT_S5_:
.LFB10311:
	pushq	%rbp
	.seh_pushreg	%rbp
	movq	%rsp, %rbp
	.seh_setframe	%rbp, 0
	subq	$32, %rsp
	.seh_stackalloc	32
	.seh_endprologue
	movq	%rcx, 16(%rbp)
	movq	%rdx, 24(%rbp)
	jmp	.L355
.L356:
	movq	16(%rbp), %rax
	movq	%rax, %rcx
	call	_ZSt11__addressofIN3cpr9ParameterEEPT_RS2_
	movq	%rax, %rcx
	call	_ZSt8_DestroyIN3cpr9ParameterEEvPT_
	addq	$64, 16(%rbp)
.L355:
	movq	16(%rbp), %rax
	cmpq	24(%rbp), %rax
	jne	.L356
	nop
	nop
	addq	$32, %rsp
	popq	%rbp
	ret
	.seh_endproc
	.section	.text$_ZNSt6vectorIN3cpr9ParameterESaIS1_EE12emplace_backIJS1_EEERS1_DpOT_,"x"
	.linkonce discard
	.align 2
	.globl	_ZNSt6vectorIN3cpr9ParameterESaIS1_EE12emplace_backIJS1_EEERS1_DpOT_
	.def	_ZNSt6vectorIN3cpr9ParameterESaIS1_EE12emplace_backIJS1_EEERS1_DpOT_;	.scl	2;	.type	32;	.endef
	.seh_proc	_ZNSt6vectorIN3cpr9ParameterESaIS1_EE12emplace_backIJS1_EEERS1_DpOT_
_ZNSt6vectorIN3cpr9ParameterESaIS1_EE12emplace_backIJS1_EEERS1_DpOT_:
.LFB10312:
	pushq	%rbp
	.seh_pushreg	%rbp
	pushq	%rbx
	.seh_pushreg	%rbx
	subq	$88, %rsp
	.seh_stackalloc	88
	leaq	80(%rsp), %rbp
	.seh_setframe	%rbp, 80
	.seh_endprologue
	movq	%rcx, 32(%rbp)
	movq	%rdx, 40(%rbp)
	movq	32(%rbp), %rax
	movq	8(%rax), %rdx
	movq	32(%rbp), %rax
	movq	16(%rax), %rax
	cmpq	%rax, %rdx
	je	.L358
	movq	40(%rbp), %rax
	movq	%rax, %rcx
	call	_ZSt7forwardIN3cpr9ParameterEEOT_RNSt16remove_referenceIS2_E4typeE
	movq	32(%rbp), %rdx
	movq	8(%rdx), %rdx
	movq	32(%rbp), %rcx
	movq	%rcx, -8(%rbp)
	movq	%rdx, -16(%rbp)
	movq	%rax, -24(%rbp)
	movq	-24(%rbp), %rax
	movq	%rax, %rcx
	call	_ZSt7forwardIN3cpr9ParameterEEOT_RNSt16remove_referenceIS2_E4typeE
	movq	-16(%rbp), %rdx
	movq	%rdx, -32(%rbp)
	movq	%rax, -40(%rbp)
	movq	-8(%rbp), %rax
	movq	%rax, -48(%rbp)
	movq	-32(%rbp), %rax
	movq	%rax, %rdx
	movl	$64, %ecx
	call	_ZnwyPv
	movq	%rax, %rbx
	movq	-40(%rbp), %rax
	movq	%rax, %rcx
	call	_ZSt7forwardIN3cpr9ParameterEEOT_RNSt16remove_referenceIS2_E4typeE
	movq	%rax, %rdx
	movq	%rbx, %rcx
	call	_ZN3cpr9ParameterC1EOS0_
	nop
	nop
	movq	32(%rbp), %rax
	movq	8(%rax), %rax
	leaq	64(%rax), %rdx
	movq	32(%rbp), %rax
	movq	%rdx, 8(%rax)
	jmp	.L359
.L358:
	movq	40(%rbp), %rax
	movq	%rax, %rcx
	call	_ZSt7forwardIN3cpr9ParameterEEOT_RNSt16remove_referenceIS2_E4typeE
	movq	%rax, %rdx
	movq	32(%rbp), %rax
	movq	%rax, %rcx
	call	_ZNSt6vectorIN3cpr9ParameterESaIS1_EE17_M_realloc_appendIJS1_EEEvDpOT_
.L359:
	movq	32(%rbp), %rax
	movq	%rax, %rcx
	call	_ZNSt6vectorIN3cpr9ParameterESaIS1_EE4backEv
	addq	$88, %rsp
	popq	%rbx
	popq	%rbp
	ret
	.seh_endproc
	.section	.text$_ZNKSt6vectorIN3cpr9ParameterESaIS1_EE8max_sizeEv,"x"
	.linkonce discard
	.align 2
	.globl	_ZNKSt6vectorIN3cpr9ParameterESaIS1_EE8max_sizeEv
	.def	_ZNKSt6vectorIN3cpr9ParameterESaIS1_EE8max_sizeEv;	.scl	2;	.type	32;	.endef
	.seh_proc	_ZNKSt6vectorIN3cpr9ParameterESaIS1_EE8max_sizeEv
_ZNKSt6vectorIN3cpr9ParameterESaIS1_EE8max_sizeEv:
.LFB10313:
	pushq	%rbp
	.seh_pushreg	%rbp
	movq	%rsp, %rbp
	.seh_setframe	%rbp, 0
	subq	$32, %rsp
	.seh_stackalloc	32
	.seh_endprologue
	movq	%rcx, 16(%rbp)
	movq	16(%rbp), %rax
	movq	%rax, %rcx
	call	_ZNKSt12_Vector_baseIN3cpr9ParameterESaIS1_EE19_M_get_Tp_allocatorEv
	movq	%rax, %rcx
	call	_ZNSt6vectorIN3cpr9ParameterESaIS1_EE11_S_max_sizeERKS2_
	addq	$32, %rsp
	popq	%rbp
	ret
	.seh_endproc
	.section	.text$_ZNKSt6vectorIN3cpr9ParameterESaIS1_EE4sizeEv,"x"
	.linkonce discard
	.align 2
	.globl	_ZNKSt6vectorIN3cpr9ParameterESaIS1_EE4sizeEv
	.def	_ZNKSt6vectorIN3cpr9ParameterESaIS1_EE4sizeEv;	.scl	2;	.type	32;	.endef
	.seh_proc	_ZNKSt6vectorIN3cpr9ParameterESaIS1_EE4sizeEv
_ZNKSt6vectorIN3cpr9ParameterESaIS1_EE4sizeEv:
.LFB10314:
	pushq	%rbp
	.seh_pushreg	%rbp
	movq	%rsp, %rbp
	.seh_setframe	%rbp, 0
	.seh_endprologue
	movq	%rcx, 16(%rbp)
	movq	16(%rbp), %rax
	movq	8(%rax), %rdx
	movq	16(%rbp), %rax
	movq	(%rax), %rax
	subq	%rax, %rdx
	movq	%rdx, %rax
	sarq	$6, %rax
	popq	%rbp
	ret
	.seh_endproc
	.section	.text$_ZN9__gnu_cxx17__normal_iteratorIPN3cpr9ParameterESt6vectorIS2_SaIS2_EEEC1ERKS3_,"x"
	.linkonce discard
	.align 2
	.globl	_ZN9__gnu_cxx17__normal_iteratorIPN3cpr9ParameterESt6vectorIS2_SaIS2_EEEC1ERKS3_
	.def	_ZN9__gnu_cxx17__normal_iteratorIPN3cpr9ParameterESt6vectorIS2_SaIS2_EEEC1ERKS3_;	.scl	2;	.type	32;	.endef
	.seh_proc	_ZN9__gnu_cxx17__normal_iteratorIPN3cpr9ParameterESt6vectorIS2_SaIS2_EEEC1ERKS3_
_ZN9__gnu_cxx17__normal_iteratorIPN3cpr9ParameterESt6vectorIS2_SaIS2_EEEC1ERKS3_:
.LFB10317:
	pushq	%rbp
	.seh_pushreg	%rbp
	movq	%rsp, %rbp
	.seh_setframe	%rbp, 0
	.seh_endprologue
	movq	%rcx, 16(%rbp)
	movq	%rdx, 24(%rbp)
	movq	24(%rbp), %rax
	movq	(%rax), %rdx
	movq	16(%rbp), %rax
	movq	%rdx, (%rax)
	nop
	popq	%rbp
	ret
	.seh_endproc
	.section	.text$_ZNK9__gnu_cxx17__normal_iteratorIPN3cpr9ParameterESt6vectorIS2_SaIS2_EEE4baseEv,"x"
	.linkonce discard
	.align 2
	.globl	_ZNK9__gnu_cxx17__normal_iteratorIPN3cpr9ParameterESt6vectorIS2_SaIS2_EEE4baseEv
	.def	_ZNK9__gnu_cxx17__normal_iteratorIPN3cpr9ParameterESt6vectorIS2_SaIS2_EEE4baseEv;	.scl	2;	.type	32;	.endef
	.seh_proc	_ZNK9__gnu_cxx17__normal_iteratorIPN3cpr9ParameterESt6vectorIS2_SaIS2_EEE4baseEv
_ZNK9__gnu_cxx17__normal_iteratorIPN3cpr9ParameterESt6vectorIS2_SaIS2_EEE4baseEv:
.LFB10318:
	pushq	%rbp
	.seh_pushreg	%rbp
	movq	%rsp, %rbp
	.seh_setframe	%rbp, 0
	.seh_endprologue
	movq	%rcx, 16(%rbp)
	movq	16(%rbp), %rax
	popq	%rbp
	ret
	.seh_endproc
	.section	.text$_ZNSt15__new_allocatorIN3cpr9ParameterEE10deallocateEPS1_y,"x"
	.linkonce discard
	.align 2
	.globl	_ZNSt15__new_allocatorIN3cpr9ParameterEE10deallocateEPS1_y
	.def	_ZNSt15__new_allocatorIN3cpr9ParameterEE10deallocateEPS1_y;	.scl	2;	.type	32;	.endef
	.seh_proc	_ZNSt15__new_allocatorIN3cpr9ParameterEE10deallocateEPS1_y
_ZNSt15__new_allocatorIN3cpr9ParameterEE10deallocateEPS1_y:
.LFB10319:
	pushq	%rbp
	.seh_pushreg	%rbp
	movq	%rsp, %rbp
	.seh_setframe	%rbp, 0
	subq	$32, %rsp
	.seh_stackalloc	32
	.seh_endprologue
	movq	%rcx, 16(%rbp)
	movq	%rdx, 24(%rbp)
	movq	%r8, 32(%rbp)
	movq	32(%rbp), %rax
	salq	$6, %rax
	movq	%rax, %rdx
	movq	24(%rbp), %rax
	movq	%rax, %rcx
	call	_ZdlPvy
	nop
	addq	$32, %rsp
	popq	%rbp
	ret
	.seh_endproc
	.section	.text$_ZSt12__relocate_aIPN3cpr9ParameterES2_SaIS1_EET0_T_S5_S4_RT1_,"x"
	.linkonce discard
	.globl	_ZSt12__relocate_aIPN3cpr9ParameterES2_SaIS1_EET0_T_S5_S4_RT1_
	.def	_ZSt12__relocate_aIPN3cpr9ParameterES2_SaIS1_EET0_T_S5_S4_RT1_;	.scl	2;	.type	32;	.endef
	.seh_proc	_ZSt12__relocate_aIPN3cpr9ParameterES2_SaIS1_EET0_T_S5_S4_RT1_
_ZSt12__relocate_aIPN3cpr9ParameterES2_SaIS1_EET0_T_S5_S4_RT1_:
.LFB10320:
	pushq	%rbp
	.seh_pushreg	%rbp
	pushq	%rsi
	.seh_pushreg	%rsi
	pushq	%rbx
	.seh_pushreg	%rbx
	subq	$32, %rsp
	.seh_stackalloc	32
	leaq	32(%rsp), %rbp
	.seh_setframe	%rbp, 32
	.seh_endprologue
	movq	%rcx, 32(%rbp)
	movq	%rdx, 40(%rbp)
	movq	%r8, 48(%rbp)
	movq	%r9, 56(%rbp)
	movq	48(%rbp), %rax
	movq	%rax, %rcx
	call	_ZSt12__niter_baseIPN3cpr9ParameterEET_S3_
	movq	%rax, %rsi
	movq	40(%rbp), %rax
	movq	%rax, %rcx
	call	_ZSt12__niter_baseIPN3cpr9ParameterEET_S3_
	movq	%rax, %rbx
	movq	32(%rbp), %rax
	movq	%rax, %rcx
	call	_ZSt12__niter_baseIPN3cpr9ParameterEET_S3_
	movq	56(%rbp), %rdx
	movq	%rdx, %r9
	movq	%rsi, %r8
	movq	%rbx, %rdx
	movq	%rax, %rcx
	call	_ZSt14__relocate_a_1IPN3cpr9ParameterES2_SaIS1_EET0_T_S5_S4_RT1_
	addq	$32, %rsp
	popq	%rbx
	popq	%rsi
	popq	%rbp
	ret
	.seh_endproc
	.section	.text$_ZSt3minIyERKT_S2_S2_,"x"
	.linkonce discard
	.globl	_ZSt3minIyERKT_S2_S2_
	.def	_ZSt3minIyERKT_S2_S2_;	.scl	2;	.type	32;	.endef
	.seh_proc	_ZSt3minIyERKT_S2_S2_
_ZSt3minIyERKT_S2_S2_:
.LFB10336:
	pushq	%rbp
	.seh_pushreg	%rbp
	movq	%rsp, %rbp
	.seh_setframe	%rbp, 0
	.seh_endprologue
	movq	%rcx, 16(%rbp)
	movq	%rdx, 24(%rbp)
	movq	24(%rbp), %rax
	movq	(%rax), %rdx
	movq	16(%rbp), %rax
	movq	(%rax), %rax
	cmpq	%rax, %rdx
	jnb	.L373
	movq	24(%rbp), %rax
	jmp	.L374
.L373:
	movq	16(%rbp), %rax
.L374:
	popq	%rbp
	ret
	.seh_endproc
	.section	.text$_ZNSt15__new_allocatorIN3cpr4PairEE8allocateEyPKv,"x"
	.linkonce discard
	.align 2
	.globl	_ZNSt15__new_allocatorIN3cpr4PairEE8allocateEyPKv
	.def	_ZNSt15__new_allocatorIN3cpr4PairEE8allocateEyPKv;	.scl	2;	.type	32;	.endef
	.seh_proc	_ZNSt15__new_allocatorIN3cpr4PairEE8allocateEyPKv
_ZNSt15__new_allocatorIN3cpr4PairEE8allocateEyPKv:
.LFB10337:
	pushq	%rbp
	.seh_pushreg	%rbp
	movq	%rsp, %rbp
	.seh_setframe	%rbp, 0
	subq	$48, %rsp
	.seh_stackalloc	48
	.seh_endprologue
	movq	%rcx, 16(%rbp)
	movq	%rdx, 24(%rbp)
	movq	%r8, 32(%rbp)
	movq	16(%rbp), %rax
	movq	%rax, -8(%rbp)
	movabsq	$144115188075855871, %rax
	cmpq	24(%rbp), %rax
	setb	%al
	movzbl	%al, %eax
	testl	%eax, %eax
	setne	%al
	testb	%al, %al
	je	.L377
	movabsq	$288230376151711743, %rax
	cmpq	24(%rbp), %rax
	jnb	.L378
	call	_ZSt28__throw_bad_array_new_lengthv
.L378:
	call	_ZSt17__throw_bad_allocv
.L377:
	movq	24(%rbp), %rax
	salq	$6, %rax
	movq	%rax, %rcx
	call	_Znwy
	nop
	addq	$48, %rsp
	popq	%rbp
	ret
	.seh_endproc
	.section	.text$_ZNSt20__uninitialized_copyILb0EE13__uninit_copyIPKN3cpr4PairEPS3_EET0_T_S8_S7_,"x"
	.linkonce discard
	.globl	_ZNSt20__uninitialized_copyILb0EE13__uninit_copyIPKN3cpr4PairEPS3_EET0_T_S8_S7_
	.def	_ZNSt20__uninitialized_copyILb0EE13__uninit_copyIPKN3cpr4PairEPS3_EET0_T_S8_S7_;	.scl	2;	.type	32;	.endef
	.seh_proc	_ZNSt20__uninitialized_copyILb0EE13__uninit_copyIPKN3cpr4PairEPS3_EET0_T_S8_S7_
_ZNSt20__uninitialized_copyILb0EE13__uninit_copyIPKN3cpr4PairEPS3_EET0_T_S8_S7_:
.LFB10339:
	pushq	%rbp
	.seh_pushreg	%rbp
	movq	%rsp, %rbp
	.seh_setframe	%rbp, 0
	subq	$32, %rsp
	.seh_stackalloc	32
	.seh_endprologue
	movq	%rcx, 16(%rbp)
	movq	%rdx, 24(%rbp)
	movq	%r8, 32(%rbp)
	movq	32(%rbp), %rcx
	movq	24(%rbp), %rdx
	movq	16(%rbp), %rax
	movq	%rcx, %r8
	movq	%rax, %rcx
	call	_ZSt16__do_uninit_copyIPKN3cpr4PairEPS1_ET0_T_S6_S5_
	addq	$32, %rsp
	popq	%rbp
	ret
	.seh_endproc
	.section	.text$_ZSt11__addressofIN3cpr4PairEEPT_RS2_,"x"
	.linkonce discard
	.globl	_ZSt11__addressofIN3cpr4PairEEPT_RS2_
	.def	_ZSt11__addressofIN3cpr4PairEEPT_RS2_;	.scl	2;	.type	32;	.endef
	.seh_proc	_ZSt11__addressofIN3cpr4PairEEPT_RS2_
_ZSt11__addressofIN3cpr4PairEEPT_RS2_:
.LFB10340:
	pushq	%rbp
	.seh_pushreg	%rbp
	movq	%rsp, %rbp
	.seh_setframe	%rbp, 0
	.seh_endprologue
	movq	%rcx, 16(%rbp)
	movq	16(%rbp), %rax
	popq	%rbp
	ret
	.seh_endproc
	.section	.text$_ZSt8_DestroyIN3cpr4PairEEvPT_,"x"
	.linkonce discard
	.globl	_ZSt8_DestroyIN3cpr4PairEEvPT_
	.def	_ZSt8_DestroyIN3cpr4PairEEvPT_;	.scl	2;	.type	32;	.endef
	.seh_proc	_ZSt8_DestroyIN3cpr4PairEEvPT_
_ZSt8_DestroyIN3cpr4PairEEvPT_:
.LFB10341:
	pushq	%rbp
	.seh_pushreg	%rbp
	movq	%rsp, %rbp
	.seh_setframe	%rbp, 0
	subq	$32, %rsp
	.seh_stackalloc	32
	.seh_endprologue
	movq	%rcx, 16(%rbp)
	movq	16(%rbp), %rax
	movq	%rax, %rcx
	call	_ZN3cpr4PairD1Ev
	nop
	addq	$32, %rsp
	popq	%rbp
	ret
	.seh_endproc
	.section	.text$_ZSt7forwardIN3cpr4PairEEOT_RNSt16remove_referenceIS2_E4typeE,"x"
	.linkonce discard
	.globl	_ZSt7forwardIN3cpr4PairEEOT_RNSt16remove_referenceIS2_E4typeE
	.def	_ZSt7forwardIN3cpr4PairEEOT_RNSt16remove_referenceIS2_E4typeE;	.scl	2;	.type	32;	.endef
	.seh_proc	_ZSt7forwardIN3cpr4PairEEOT_RNSt16remove_referenceIS2_E4typeE
_ZSt7forwardIN3cpr4PairEEOT_RNSt16remove_referenceIS2_E4typeE:
.LFB10342:
	pushq	%rbp
	.seh_pushreg	%rbp
	movq	%rsp, %rbp
	.seh_setframe	%rbp, 0
	.seh_endprologue
	movq	%rcx, 16(%rbp)
	movq	16(%rbp), %rax
	popq	%rbp
	ret
	.seh_endproc
	.section	.text$_ZZNSt6vectorIN3cpr4PairESaIS1_EE17_M_realloc_appendIJS1_EEEvDpOT_EN6_GuardC1EPS1_yRS2_,"x"
	.linkonce discard
	.align 2
	.globl	_ZZNSt6vectorIN3cpr4PairESaIS1_EE17_M_realloc_appendIJS1_EEEvDpOT_EN6_GuardC1EPS1_yRS2_
	.def	_ZZNSt6vectorIN3cpr4PairESaIS1_EE17_M_realloc_appendIJS1_EEEvDpOT_EN6_GuardC1EPS1_yRS2_;	.scl	2;	.type	32;	.endef
	.seh_proc	_ZZNSt6vectorIN3cpr4PairESaIS1_EE17_M_realloc_appendIJS1_EEEvDpOT_EN6_GuardC1EPS1_yRS2_
_ZZNSt6vectorIN3cpr4PairESaIS1_EE17_M_realloc_appendIJS1_EEEvDpOT_EN6_GuardC1EPS1_yRS2_:
.LFB10347:
	pushq	%rbp
	.seh_pushreg	%rbp
	movq	%rsp, %rbp
	.seh_setframe	%rbp, 0
	.seh_endprologue
	movq	%rcx, 16(%rbp)
	movq	%rdx, 24(%rbp)
	movq	%r8, 32(%rbp)
	movq	%r9, 40(%rbp)
	movq	16(%rbp), %rax
	movq	24(%rbp), %rdx
	movq	%rdx, (%rax)
	movq	16(%rbp), %rax
	movq	32(%rbp), %rdx
	movq	%rdx, 8(%rax)
	movq	16(%rbp), %rax
	movq	40(%rbp), %rdx
	movq	%rdx, 16(%rax)
	nop
	popq	%rbp
	ret
	.seh_endproc
	.section	.text$_ZZNSt6vectorIN3cpr4PairESaIS1_EE17_M_realloc_appendIJS1_EEEvDpOT_EN6_GuardD1Ev,"x"
	.linkonce discard
	.align 2
	.globl	_ZZNSt6vectorIN3cpr4PairESaIS1_EE17_M_realloc_appendIJS1_EEEvDpOT_EN6_GuardD1Ev
	.def	_ZZNSt6vectorIN3cpr4PairESaIS1_EE17_M_realloc_appendIJS1_EEEvDpOT_EN6_GuardD1Ev;	.scl	2;	.type	32;	.endef
	.seh_proc	_ZZNSt6vectorIN3cpr4PairESaIS1_EE17_M_realloc_appendIJS1_EEEvDpOT_EN6_GuardD1Ev
_ZZNSt6vectorIN3cpr4PairESaIS1_EE17_M_realloc_appendIJS1_EEEvDpOT_EN6_GuardD1Ev:
.LFB10350:
	pushq	%rbp
	.seh_pushreg	%rbp
	movq	%rsp, %rbp
	.seh_setframe	%rbp, 0
	subq	$64, %rsp
	.seh_stackalloc	64
	.seh_endprologue
	movq	%rcx, 16(%rbp)
	movq	16(%rbp), %rax
	movq	(%rax), %rax
	testq	%rax, %rax
	je	.L390
	movq	16(%rbp), %rax
	movq	8(%rax), %rax
	movq	16(%rbp), %rdx
	movq	(%rdx), %rdx
	movq	16(%rbp), %rcx
	movq	16(%rcx), %rcx
	movq	%rcx, -8(%rbp)
	movq	%rdx, -16(%rbp)
	movq	%rax, -24(%rbp)
	movq	-24(%rbp), %rcx
	movq	-16(%rbp), %rdx
	movq	-8(%rbp), %rax
	movq	%rcx, %r8
	movq	%rax, %rcx
	call	_ZNSt15__new_allocatorIN3cpr4PairEE10deallocateEPS1_y
	nop
.L390:
	nop
	addq	$64, %rsp
	popq	%rbp
	ret
	.seh_endproc
	.section	.text$_ZNSt6vectorIN3cpr4PairESaIS1_EE17_M_realloc_appendIJS1_EEEvDpOT_,"x"
	.linkonce discard
	.align 2
	.globl	_ZNSt6vectorIN3cpr4PairESaIS1_EE17_M_realloc_appendIJS1_EEEvDpOT_
	.def	_ZNSt6vectorIN3cpr4PairESaIS1_EE17_M_realloc_appendIJS1_EEEvDpOT_;	.scl	2;	.type	32;	.endef
	.seh_proc	_ZNSt6vectorIN3cpr4PairESaIS1_EE17_M_realloc_appendIJS1_EEEvDpOT_
_ZNSt6vectorIN3cpr4PairESaIS1_EE17_M_realloc_appendIJS1_EEEvDpOT_:
.LFB10344:
	pushq	%rbp
	.seh_pushreg	%rbp
	pushq	%rbx
	.seh_pushreg	%rbx
	subq	$184, %rsp
	.seh_stackalloc	184
	leaq	176(%rsp), %rbp
	.seh_setframe	%rbp, 176
	.seh_endprologue
	movq	%rcx, 32(%rbp)
	movq	%rdx, 40(%rbp)
	movq	32(%rbp), %rax
	leaq	.LC2(%rip), %r8
	movl	$1, %edx
	movq	%rax, %rcx
	call	_ZNKSt6vectorIN3cpr4PairESaIS1_EE12_M_check_lenEyPKc
	movq	%rax, -8(%rbp)
	cmpq	$0, -8(%rbp)
	movq	32(%rbp), %rax
	movq	(%rax), %rax
	movq	%rax, -16(%rbp)
	movq	32(%rbp), %rax
	movq	8(%rax), %rax
	movq	%rax, -24(%rbp)
	movq	32(%rbp), %rax
	movq	%rax, %rcx
	call	_ZNSt6vectorIN3cpr4PairESaIS1_EE5beginEv
	movq	%rax, -112(%rbp)
	movq	32(%rbp), %rax
	movq	%rax, %rcx
	call	_ZNSt6vectorIN3cpr4PairESaIS1_EE3endEv
	movq	%rax, -104(%rbp)
	leaq	-112(%rbp), %rdx
	leaq	-104(%rbp), %rax
	movq	%rax, %rcx
	call	_ZN9__gnu_cxxmiIPN3cpr4PairESt6vectorIS2_SaIS2_EEEENS_17__normal_iteratorIT_T0_E15difference_typeERKSA_SD_
	movq	%rax, -32(%rbp)
	movq	32(%rbp), %rax
	movq	-8(%rbp), %rdx
	movq	%rax, %rcx
	call	_ZNSt12_Vector_baseIN3cpr4PairESaIS1_EE11_M_allocateEy
	movq	%rax, -40(%rbp)
	movq	-40(%rbp), %rax
	movq	%rax, -48(%rbp)
	movq	32(%rbp), %r8
	movq	-8(%rbp), %rcx
	movq	-40(%rbp), %rdx
	leaq	-144(%rbp), %rax
	movq	%r8, %r9
	movq	%rcx, %r8
	movq	%rax, %rcx
	call	_ZZNSt6vectorIN3cpr4PairESaIS1_EE17_M_realloc_appendIJS1_EEEvDpOT_EN6_GuardC1EPS1_yRS2_
	movq	40(%rbp), %rax
	movq	%rax, %rcx
	call	_ZSt7forwardIN3cpr4PairEEOT_RNSt16remove_referenceIS2_E4typeE
	movq	%rax, %rbx
	movq	-32(%rbp), %rax
	salq	$6, %rax
	movq	%rax, %rdx
	movq	-40(%rbp), %rax
	addq	%rdx, %rax
	movq	%rax, %rcx
	call	_ZSt12__to_addressIN3cpr4PairEEPT_S3_
	movq	32(%rbp), %rdx
	movq	%rdx, -56(%rbp)
	movq	%rax, -64(%rbp)
	movq	%rbx, -72(%rbp)
	movq	-72(%rbp), %rax
	movq	%rax, %rcx
	call	_ZSt7forwardIN3cpr4PairEEOT_RNSt16remove_referenceIS2_E4typeE
	movq	-64(%rbp), %rdx
	movq	%rdx, -80(%rbp)
	movq	%rax, -88(%rbp)
	movq	-56(%rbp), %rax
	movq	%rax, -96(%rbp)
	movq	-80(%rbp), %rax
	movq	%rax, %rdx
	movl	$64, %ecx
	call	_ZnwyPv
	movq	%rax, %rbx
	movq	-88(%rbp), %rax
	movq	%rax, %rcx
	call	_ZSt7forwardIN3cpr4PairEEOT_RNSt16remove_referenceIS2_E4typeE
	movq	%rax, %rdx
	movq	%rbx, %rcx
	call	_ZN3cpr4PairC1EOS0_
	nop
	nop
	movq	32(%rbp), %rax
	movq	%rax, %rcx
	call	_ZNSt12_Vector_baseIN3cpr4PairESaIS1_EE19_M_get_Tp_allocatorEv
	movq	%rax, %rcx
	movq	-40(%rbp), %r8
	movq	-24(%rbp), %rdx
	movq	-16(%rbp), %rax
	movq	%rcx, %r9
	movq	%rax, %rcx
	call	_ZNSt6vectorIN3cpr4PairESaIS1_EE11_S_relocateEPS1_S4_S4_RS2_
	movq	%rax, -48(%rbp)
	addq	$64, -48(%rbp)
	movq	-16(%rbp), %rax
	movq	%rax, -144(%rbp)
	movq	32(%rbp), %rax
	movq	16(%rax), %rax
	subq	-16(%rbp), %rax
	sarq	$6, %rax
	movq	%rax, -136(%rbp)
	leaq	-144(%rbp), %rax
	movq	%rax, %rcx
	call	_ZZNSt6vectorIN3cpr4PairESaIS1_EE17_M_realloc_appendIJS1_EEEvDpOT_EN6_GuardD1Ev
	movq	32(%rbp), %rax
	movq	-40(%rbp), %rdx
	movq	%rdx, (%rax)
	movq	32(%rbp), %rax
	movq	-48(%rbp), %rdx
	movq	%rdx, 8(%rax)
	movq	-8(%rbp), %rax
	salq	$6, %rax
	movq	%rax, %rdx
	movq	-40(%rbp), %rax
	addq	%rax, %rdx
	movq	32(%rbp), %rax
	movq	%rdx, 16(%rax)
	nop
	addq	$184, %rsp
	popq	%rbx
	popq	%rbp
	ret
	.seh_endproc
	.section	.text$_ZNSt6vectorIN3cpr4PairESaIS1_EE4backEv,"x"
	.linkonce discard
	.align 2
	.globl	_ZNSt6vectorIN3cpr4PairESaIS1_EE4backEv
	.def	_ZNSt6vectorIN3cpr4PairESaIS1_EE4backEv;	.scl	2;	.type	32;	.endef
	.seh_proc	_ZNSt6vectorIN3cpr4PairESaIS1_EE4backEv
_ZNSt6vectorIN3cpr4PairESaIS1_EE4backEv:
.LFB10351:
	pushq	%rbp
	.seh_pushreg	%rbp
	movq	%rsp, %rbp
	.seh_setframe	%rbp, 0
	subq	$48, %rsp
	.seh_stackalloc	48
	.seh_endprologue
	movq	%rcx, 16(%rbp)
	movq	16(%rbp), %rax
	movq	%rax, %rcx
	call	_ZNSt6vectorIN3cpr4PairESaIS1_EE3endEv
	movq	%rax, -8(%rbp)
	leaq	-8(%rbp), %rax
	movl	$1, %edx
	movq	%rax, %rcx
	call	_ZNK9__gnu_cxx17__normal_iteratorIPN3cpr4PairESt6vectorIS2_SaIS2_EEEmiEx
	movq	%rax, -16(%rbp)
	leaq	-16(%rbp), %rax
	movq	%rax, %rcx
	call	_ZNK9__gnu_cxx17__normal_iteratorIPN3cpr4PairESt6vectorIS2_SaIS2_EEEdeEv
	addq	$48, %rsp
	popq	%rbp
	ret
	.seh_endproc
	.section	.text$_ZNKSt12_Vector_baseIN3cpr4PairESaIS1_EE19_M_get_Tp_allocatorEv,"x"
	.linkonce discard
	.align 2
	.globl	_ZNKSt12_Vector_baseIN3cpr4PairESaIS1_EE19_M_get_Tp_allocatorEv
	.def	_ZNKSt12_Vector_baseIN3cpr4PairESaIS1_EE19_M_get_Tp_allocatorEv;	.scl	2;	.type	32;	.endef
	.seh_proc	_ZNKSt12_Vector_baseIN3cpr4PairESaIS1_EE19_M_get_Tp_allocatorEv
_ZNKSt12_Vector_baseIN3cpr4PairESaIS1_EE19_M_get_Tp_allocatorEv:
.LFB10352:
	pushq	%rbp
	.seh_pushreg	%rbp
	movq	%rsp, %rbp
	.seh_setframe	%rbp, 0
	.seh_endprologue
	movq	%rcx, 16(%rbp)
	movq	16(%rbp), %rax
	popq	%rbp
	ret
	.seh_endproc
	.section	.text$_ZSt12__niter_baseIPN3cpr4PairEET_S3_,"x"
	.linkonce discard
	.globl	_ZSt12__niter_baseIPN3cpr4PairEET_S3_
	.def	_ZSt12__niter_baseIPN3cpr4PairEET_S3_;	.scl	2;	.type	32;	.endef
	.seh_proc	_ZSt12__niter_baseIPN3cpr4PairEET_S3_
_ZSt12__niter_baseIPN3cpr4PairEET_S3_:
.LFB10353:
	pushq	%rbp
	.seh_pushreg	%rbp
	movq	%rsp, %rbp
	.seh_setframe	%rbp, 0
	.seh_endprologue
	movq	%rcx, 16(%rbp)
	movq	16(%rbp), %rax
	popq	%rbp
	ret
	.seh_endproc
	.section	.text$_ZSt14__relocate_a_1IPN3cpr4PairES2_SaIS1_EET0_T_S5_S4_RT1_,"x"
	.linkonce discard
	.globl	_ZSt14__relocate_a_1IPN3cpr4PairES2_SaIS1_EET0_T_S5_S4_RT1_
	.def	_ZSt14__relocate_a_1IPN3cpr4PairES2_SaIS1_EET0_T_S5_S4_RT1_;	.scl	2;	.type	32;	.endef
	.seh_proc	_ZSt14__relocate_a_1IPN3cpr4PairES2_SaIS1_EET0_T_S5_S4_RT1_
_ZSt14__relocate_a_1IPN3cpr4PairES2_SaIS1_EET0_T_S5_S4_RT1_:
.LFB10354:
	pushq	%rbp
	.seh_pushreg	%rbp
	pushq	%rbx
	.seh_pushreg	%rbx
	subq	$56, %rsp
	.seh_stackalloc	56
	leaq	48(%rsp), %rbp
	.seh_setframe	%rbp, 48
	.seh_endprologue
	movq	%rcx, 32(%rbp)
	movq	%rdx, 40(%rbp)
	movq	%r8, 48(%rbp)
	movq	%r9, 56(%rbp)
	movq	48(%rbp), %rax
	movq	%rax, -8(%rbp)
	jmp	.L400
.L401:
	movq	32(%rbp), %rax
	movq	%rax, %rcx
	call	_ZSt11__addressofIN3cpr4PairEEPT_RS2_
	movq	%rax, %rbx
	movq	-8(%rbp), %rax
	movq	%rax, %rcx
	call	_ZSt11__addressofIN3cpr4PairEEPT_RS2_
	movq	56(%rbp), %rdx
	movq	%rdx, %r8
	movq	%rbx, %rdx
	movq	%rax, %rcx
	call	_ZSt19__relocate_object_aIN3cpr4PairES1_SaIS1_EEvPT_PT0_RT1_
	addq	$64, 32(%rbp)
	addq	$64, -8(%rbp)
.L400:
	movq	32(%rbp), %rax
	cmpq	40(%rbp), %rax
	jne	.L401
	movq	-8(%rbp), %rax
	addq	$56, %rsp
	popq	%rbx
	popq	%rbp
	ret
	.seh_endproc
	.section	.text$_ZNSt15__new_allocatorIN3cpr9ParameterEE8allocateEyPKv,"x"
	.linkonce discard
	.align 2
	.globl	_ZNSt15__new_allocatorIN3cpr9ParameterEE8allocateEyPKv
	.def	_ZNSt15__new_allocatorIN3cpr9ParameterEE8allocateEyPKv;	.scl	2;	.type	32;	.endef
	.seh_proc	_ZNSt15__new_allocatorIN3cpr9ParameterEE8allocateEyPKv
_ZNSt15__new_allocatorIN3cpr9ParameterEE8allocateEyPKv:
.LFB10359:
	pushq	%rbp
	.seh_pushreg	%rbp
	movq	%rsp, %rbp
	.seh_setframe	%rbp, 0
	subq	$48, %rsp
	.seh_stackalloc	48
	.seh_endprologue
	movq	%rcx, 16(%rbp)
	movq	%rdx, 24(%rbp)
	movq	%r8, 32(%rbp)
	movq	16(%rbp), %rax
	movq	%rax, -8(%rbp)
	movabsq	$144115188075855871, %rax
	cmpq	24(%rbp), %rax
	setb	%al
	movzbl	%al, %eax
	testl	%eax, %eax
	setne	%al
	testb	%al, %al
	je	.L405
	movabsq	$288230376151711743, %rax
	cmpq	24(%rbp), %rax
	jnb	.L406
	call	_ZSt28__throw_bad_array_new_lengthv
.L406:
	call	_ZSt17__throw_bad_allocv
.L405:
	movq	24(%rbp), %rax
	salq	$6, %rax
	movq	%rax, %rcx
	call	_Znwy
	nop
	addq	$48, %rsp
	popq	%rbp
	ret
	.seh_endproc
	.section	.text$_ZNSt20__uninitialized_copyILb0EE13__uninit_copyIPKN3cpr9ParameterEPS3_EET0_T_S8_S7_,"x"
	.linkonce discard
	.globl	_ZNSt20__uninitialized_copyILb0EE13__uninit_copyIPKN3cpr9ParameterEPS3_EET0_T_S8_S7_
	.def	_ZNSt20__uninitialized_copyILb0EE13__uninit_copyIPKN3cpr9ParameterEPS3_EET0_T_S8_S7_;	.scl	2;	.type	32;	.endef
	.seh_proc	_ZNSt20__uninitialized_copyILb0EE13__uninit_copyIPKN3cpr9ParameterEPS3_EET0_T_S8_S7_
_ZNSt20__uninitialized_copyILb0EE13__uninit_copyIPKN3cpr9ParameterEPS3_EET0_T_S8_S7_:
.LFB10361:
	pushq	%rbp
	.seh_pushreg	%rbp
	movq	%rsp, %rbp
	.seh_setframe	%rbp, 0
	subq	$32, %rsp
	.seh_stackalloc	32
	.seh_endprologue
	movq	%rcx, 16(%rbp)
	movq	%rdx, 24(%rbp)
	movq	%r8, 32(%rbp)
	movq	32(%rbp), %rcx
	movq	24(%rbp), %rdx
	movq	16(%rbp), %rax
	movq	%rcx, %r8
	movq	%rax, %rcx
	call	_ZSt16__do_uninit_copyIPKN3cpr9ParameterEPS1_ET0_T_S6_S5_
	addq	$32, %rsp
	popq	%rbp
	ret
	.seh_endproc
	.section	.text$_ZSt11__addressofIN3cpr9ParameterEEPT_RS2_,"x"
	.linkonce discard
	.globl	_ZSt11__addressofIN3cpr9ParameterEEPT_RS2_
	.def	_ZSt11__addressofIN3cpr9ParameterEEPT_RS2_;	.scl	2;	.type	32;	.endef
	.seh_proc	_ZSt11__addressofIN3cpr9ParameterEEPT_RS2_
_ZSt11__addressofIN3cpr9ParameterEEPT_RS2_:
.LFB10362:
	pushq	%rbp
	.seh_pushreg	%rbp
	movq	%rsp, %rbp
	.seh_setframe	%rbp, 0
	.seh_endprologue
	movq	%rcx, 16(%rbp)
	movq	16(%rbp), %rax
	popq	%rbp
	ret
	.seh_endproc
	.section	.text$_ZSt8_DestroyIN3cpr9ParameterEEvPT_,"x"
	.linkonce discard
	.globl	_ZSt8_DestroyIN3cpr9ParameterEEvPT_
	.def	_ZSt8_DestroyIN3cpr9ParameterEEvPT_;	.scl	2;	.type	32;	.endef
	.seh_proc	_ZSt8_DestroyIN3cpr9ParameterEEvPT_
_ZSt8_DestroyIN3cpr9ParameterEEvPT_:
.LFB10363:
	pushq	%rbp
	.seh_pushreg	%rbp
	movq	%rsp, %rbp
	.seh_setframe	%rbp, 0
	subq	$32, %rsp
	.seh_stackalloc	32
	.seh_endprologue
	movq	%rcx, 16(%rbp)
	movq	16(%rbp), %rax
	movq	%rax, %rcx
	call	_ZN3cpr9ParameterD1Ev
	nop
	addq	$32, %rsp
	popq	%rbp
	ret
	.seh_endproc
	.section	.text$_ZSt7forwardIN3cpr9ParameterEEOT_RNSt16remove_referenceIS2_E4typeE,"x"
	.linkonce discard
	.globl	_ZSt7forwardIN3cpr9ParameterEEOT_RNSt16remove_referenceIS2_E4typeE
	.def	_ZSt7forwardIN3cpr9ParameterEEOT_RNSt16remove_referenceIS2_E4typeE;	.scl	2;	.type	32;	.endef
	.seh_proc	_ZSt7forwardIN3cpr9ParameterEEOT_RNSt16remove_referenceIS2_E4typeE
_ZSt7forwardIN3cpr9ParameterEEOT_RNSt16remove_referenceIS2_E4typeE:
.LFB10364:
	pushq	%rbp
	.seh_pushreg	%rbp
	movq	%rsp, %rbp
	.seh_setframe	%rbp, 0
	.seh_endprologue
	movq	%rcx, 16(%rbp)
	movq	16(%rbp), %rax
	popq	%rbp
	ret
	.seh_endproc
	.section	.text$_ZZNSt6vectorIN3cpr9ParameterESaIS1_EE17_M_realloc_appendIJS1_EEEvDpOT_EN6_GuardC1EPS1_yRS2_,"x"
	.linkonce discard
	.align 2
	.globl	_ZZNSt6vectorIN3cpr9ParameterESaIS1_EE17_M_realloc_appendIJS1_EEEvDpOT_EN6_GuardC1EPS1_yRS2_
	.def	_ZZNSt6vectorIN3cpr9ParameterESaIS1_EE17_M_realloc_appendIJS1_EEEvDpOT_EN6_GuardC1EPS1_yRS2_;	.scl	2;	.type	32;	.endef
	.seh_proc	_ZZNSt6vectorIN3cpr9ParameterESaIS1_EE17_M_realloc_appendIJS1_EEEvDpOT_EN6_GuardC1EPS1_yRS2_
_ZZNSt6vectorIN3cpr9ParameterESaIS1_EE17_M_realloc_appendIJS1_EEEvDpOT_EN6_GuardC1EPS1_yRS2_:
.LFB10369:
	pushq	%rbp
	.seh_pushreg	%rbp
	movq	%rsp, %rbp
	.seh_setframe	%rbp, 0
	.seh_endprologue
	movq	%rcx, 16(%rbp)
	movq	%rdx, 24(%rbp)
	movq	%r8, 32(%rbp)
	movq	%r9, 40(%rbp)
	movq	16(%rbp), %rax
	movq	24(%rbp), %rdx
	movq	%rdx, (%rax)
	movq	16(%rbp), %rax
	movq	32(%rbp), %rdx
	movq	%rdx, 8(%rax)
	movq	16(%rbp), %rax
	movq	40(%rbp), %rdx
	movq	%rdx, 16(%rax)
	nop
	popq	%rbp
	ret
	.seh_endproc
	.section	.text$_ZZNSt6vectorIN3cpr9ParameterESaIS1_EE17_M_realloc_appendIJS1_EEEvDpOT_EN6_GuardD1Ev,"x"
	.linkonce discard
	.align 2
	.globl	_ZZNSt6vectorIN3cpr9ParameterESaIS1_EE17_M_realloc_appendIJS1_EEEvDpOT_EN6_GuardD1Ev
	.def	_ZZNSt6vectorIN3cpr9ParameterESaIS1_EE17_M_realloc_appendIJS1_EEEvDpOT_EN6_GuardD1Ev;	.scl	2;	.type	32;	.endef
	.seh_proc	_ZZNSt6vectorIN3cpr9ParameterESaIS1_EE17_M_realloc_appendIJS1_EEEvDpOT_EN6_GuardD1Ev
_ZZNSt6vectorIN3cpr9ParameterESaIS1_EE17_M_realloc_appendIJS1_EEEvDpOT_EN6_GuardD1Ev:
.LFB10372:
	pushq	%rbp
	.seh_pushreg	%rbp
	movq	%rsp, %rbp
	.seh_setframe	%rbp, 0
	subq	$64, %rsp
	.seh_stackalloc	64
	.seh_endprologue
	movq	%rcx, 16(%rbp)
	movq	16(%rbp), %rax
	movq	(%rax), %rax
	testq	%rax, %rax
	je	.L418
	movq	16(%rbp), %rax
	movq	8(%rax), %rax
	movq	16(%rbp), %rdx
	movq	(%rdx), %rdx
	movq	16(%rbp), %rcx
	movq	16(%rcx), %rcx
	movq	%rcx, -8(%rbp)
	movq	%rdx, -16(%rbp)
	movq	%rax, -24(%rbp)
	movq	-24(%rbp), %rcx
	movq	-16(%rbp), %rdx
	movq	-8(%rbp), %rax
	movq	%rcx, %r8
	movq	%rax, %rcx
	call	_ZNSt15__new_allocatorIN3cpr9ParameterEE10deallocateEPS1_y
	nop
.L418:
	nop
	addq	$64, %rsp
	popq	%rbp
	ret
	.seh_endproc
	.section	.text$_ZNSt6vectorIN3cpr9ParameterESaIS1_EE17_M_realloc_appendIJS1_EEEvDpOT_,"x"
	.linkonce discard
	.align 2
	.globl	_ZNSt6vectorIN3cpr9ParameterESaIS1_EE17_M_realloc_appendIJS1_EEEvDpOT_
	.def	_ZNSt6vectorIN3cpr9ParameterESaIS1_EE17_M_realloc_appendIJS1_EEEvDpOT_;	.scl	2;	.type	32;	.endef
	.seh_proc	_ZNSt6vectorIN3cpr9ParameterESaIS1_EE17_M_realloc_appendIJS1_EEEvDpOT_
_ZNSt6vectorIN3cpr9ParameterESaIS1_EE17_M_realloc_appendIJS1_EEEvDpOT_:
.LFB10366:
	pushq	%rbp
	.seh_pushreg	%rbp
	pushq	%rbx
	.seh_pushreg	%rbx
	subq	$184, %rsp
	.seh_stackalloc	184
	leaq	176(%rsp), %rbp
	.seh_setframe	%rbp, 176
	.seh_endprologue
	movq	%rcx, 32(%rbp)
	movq	%rdx, 40(%rbp)
	movq	32(%rbp), %rax
	leaq	.LC2(%rip), %r8
	movl	$1, %edx
	movq	%rax, %rcx
	call	_ZNKSt6vectorIN3cpr9ParameterESaIS1_EE12_M_check_lenEyPKc
	movq	%rax, -8(%rbp)
	cmpq	$0, -8(%rbp)
	movq	32(%rbp), %rax
	movq	(%rax), %rax
	movq	%rax, -16(%rbp)
	movq	32(%rbp), %rax
	movq	8(%rax), %rax
	movq	%rax, -24(%rbp)
	movq	32(%rbp), %rax
	movq	%rax, %rcx
	call	_ZNSt6vectorIN3cpr9ParameterESaIS1_EE5beginEv
	movq	%rax, -112(%rbp)
	movq	32(%rbp), %rax
	movq	%rax, %rcx
	call	_ZNSt6vectorIN3cpr9ParameterESaIS1_EE3endEv
	movq	%rax, -104(%rbp)
	leaq	-112(%rbp), %rdx
	leaq	-104(%rbp), %rax
	movq	%rax, %rcx
	call	_ZN9__gnu_cxxmiIPN3cpr9ParameterESt6vectorIS2_SaIS2_EEEENS_17__normal_iteratorIT_T0_E15difference_typeERKSA_SD_
	movq	%rax, -32(%rbp)
	movq	32(%rbp), %rax
	movq	-8(%rbp), %rdx
	movq	%rax, %rcx
	call	_ZNSt12_Vector_baseIN3cpr9ParameterESaIS1_EE11_M_allocateEy
	movq	%rax, -40(%rbp)
	movq	-40(%rbp), %rax
	movq	%rax, -48(%rbp)
	movq	32(%rbp), %r8
	movq	-8(%rbp), %rcx
	movq	-40(%rbp), %rdx
	leaq	-144(%rbp), %rax
	movq	%r8, %r9
	movq	%rcx, %r8
	movq	%rax, %rcx
	call	_ZZNSt6vectorIN3cpr9ParameterESaIS1_EE17_M_realloc_appendIJS1_EEEvDpOT_EN6_GuardC1EPS1_yRS2_
	movq	40(%rbp), %rax
	movq	%rax, %rcx
	call	_ZSt7forwardIN3cpr9ParameterEEOT_RNSt16remove_referenceIS2_E4typeE
	movq	%rax, %rbx
	movq	-32(%rbp), %rax
	salq	$6, %rax
	movq	%rax, %rdx
	movq	-40(%rbp), %rax
	addq	%rdx, %rax
	movq	%rax, %rcx
	call	_ZSt12__to_addressIN3cpr9ParameterEEPT_S3_
	movq	32(%rbp), %rdx
	movq	%rdx, -56(%rbp)
	movq	%rax, -64(%rbp)
	movq	%rbx, -72(%rbp)
	movq	-72(%rbp), %rax
	movq	%rax, %rcx
	call	_ZSt7forwardIN3cpr9ParameterEEOT_RNSt16remove_referenceIS2_E4typeE
	movq	-64(%rbp), %rdx
	movq	%rdx, -80(%rbp)
	movq	%rax, -88(%rbp)
	movq	-56(%rbp), %rax
	movq	%rax, -96(%rbp)
	movq	-80(%rbp), %rax
	movq	%rax, %rdx
	movl	$64, %ecx
	call	_ZnwyPv
	movq	%rax, %rbx
	movq	-88(%rbp), %rax
	movq	%rax, %rcx
	call	_ZSt7forwardIN3cpr9ParameterEEOT_RNSt16remove_referenceIS2_E4typeE
	movq	%rax, %rdx
	movq	%rbx, %rcx
	call	_ZN3cpr9ParameterC1EOS0_
	nop
	nop
	movq	32(%rbp), %rax
	movq	%rax, %rcx
	call	_ZNSt12_Vector_baseIN3cpr9ParameterESaIS1_EE19_M_get_Tp_allocatorEv
	movq	%rax, %rcx
	movq	-40(%rbp), %r8
	movq	-24(%rbp), %rdx
	movq	-16(%rbp), %rax
	movq	%rcx, %r9
	movq	%rax, %rcx
	call	_ZNSt6vectorIN3cpr9ParameterESaIS1_EE11_S_relocateEPS1_S4_S4_RS2_
	movq	%rax, -48(%rbp)
	addq	$64, -48(%rbp)
	movq	-16(%rbp), %rax
	movq	%rax, -144(%rbp)
	movq	32(%rbp), %rax
	movq	16(%rax), %rax
	subq	-16(%rbp), %rax
	sarq	$6, %rax
	movq	%rax, -136(%rbp)
	leaq	-144(%rbp), %rax
	movq	%rax, %rcx
	call	_ZZNSt6vectorIN3cpr9ParameterESaIS1_EE17_M_realloc_appendIJS1_EEEvDpOT_EN6_GuardD1Ev
	movq	32(%rbp), %rax
	movq	-40(%rbp), %rdx
	movq	%rdx, (%rax)
	movq	32(%rbp), %rax
	movq	-48(%rbp), %rdx
	movq	%rdx, 8(%rax)
	movq	-8(%rbp), %rax
	salq	$6, %rax
	movq	%rax, %rdx
	movq	-40(%rbp), %rax
	addq	%rax, %rdx
	movq	32(%rbp), %rax
	movq	%rdx, 16(%rax)
	nop
	addq	$184, %rsp
	popq	%rbx
	popq	%rbp
	ret
	.seh_endproc
	.section	.text$_ZNSt6vectorIN3cpr9ParameterESaIS1_EE4backEv,"x"
	.linkonce discard
	.align 2
	.globl	_ZNSt6vectorIN3cpr9ParameterESaIS1_EE4backEv
	.def	_ZNSt6vectorIN3cpr9ParameterESaIS1_EE4backEv;	.scl	2;	.type	32;	.endef
	.seh_proc	_ZNSt6vectorIN3cpr9ParameterESaIS1_EE4backEv
_ZNSt6vectorIN3cpr9ParameterESaIS1_EE4backEv:
.LFB10373:
	pushq	%rbp
	.seh_pushreg	%rbp
	movq	%rsp, %rbp
	.seh_setframe	%rbp, 0
	subq	$48, %rsp
	.seh_stackalloc	48
	.seh_endprologue
	movq	%rcx, 16(%rbp)
	movq	16(%rbp), %rax
	movq	%rax, %rcx
	call	_ZNSt6vectorIN3cpr9ParameterESaIS1_EE3endEv
	movq	%rax, -8(%rbp)
	leaq	-8(%rbp), %rax
	movl	$1, %edx
	movq	%rax, %rcx
	call	_ZNK9__gnu_cxx17__normal_iteratorIPN3cpr9ParameterESt6vectorIS2_SaIS2_EEEmiEx
	movq	%rax, -16(%rbp)
	leaq	-16(%rbp), %rax
	movq	%rax, %rcx
	call	_ZNK9__gnu_cxx17__normal_iteratorIPN3cpr9ParameterESt6vectorIS2_SaIS2_EEEdeEv
	addq	$48, %rsp
	popq	%rbp
	ret
	.seh_endproc
	.section	.text$_ZNKSt12_Vector_baseIN3cpr9ParameterESaIS1_EE19_M_get_Tp_allocatorEv,"x"
	.linkonce discard
	.align 2
	.globl	_ZNKSt12_Vector_baseIN3cpr9ParameterESaIS1_EE19_M_get_Tp_allocatorEv
	.def	_ZNKSt12_Vector_baseIN3cpr9ParameterESaIS1_EE19_M_get_Tp_allocatorEv;	.scl	2;	.type	32;	.endef
	.seh_proc	_ZNKSt12_Vector_baseIN3cpr9ParameterESaIS1_EE19_M_get_Tp_allocatorEv
_ZNKSt12_Vector_baseIN3cpr9ParameterESaIS1_EE19_M_get_Tp_allocatorEv:
.LFB10374:
	pushq	%rbp
	.seh_pushreg	%rbp
	movq	%rsp, %rbp
	.seh_setframe	%rbp, 0
	.seh_endprologue
	movq	%rcx, 16(%rbp)
	movq	16(%rbp), %rax
	popq	%rbp
	ret
	.seh_endproc
	.section	.text$_ZSt12__niter_baseIPN3cpr9ParameterEET_S3_,"x"
	.linkonce discard
	.globl	_ZSt12__niter_baseIPN3cpr9ParameterEET_S3_
	.def	_ZSt12__niter_baseIPN3cpr9ParameterEET_S3_;	.scl	2;	.type	32;	.endef
	.seh_proc	_ZSt12__niter_baseIPN3cpr9ParameterEET_S3_
_ZSt12__niter_baseIPN3cpr9ParameterEET_S3_:
.LFB10375:
	pushq	%rbp
	.seh_pushreg	%rbp
	movq	%rsp, %rbp
	.seh_setframe	%rbp, 0
	.seh_endprologue
	movq	%rcx, 16(%rbp)
	movq	16(%rbp), %rax
	popq	%rbp
	ret
	.seh_endproc
	.section	.text$_ZSt14__relocate_a_1IPN3cpr9ParameterES2_SaIS1_EET0_T_S5_S4_RT1_,"x"
	.linkonce discard
	.globl	_ZSt14__relocate_a_1IPN3cpr9ParameterES2_SaIS1_EET0_T_S5_S4_RT1_
	.def	_ZSt14__relocate_a_1IPN3cpr9ParameterES2_SaIS1_EET0_T_S5_S4_RT1_;	.scl	2;	.type	32;	.endef
	.seh_proc	_ZSt14__relocate_a_1IPN3cpr9ParameterES2_SaIS1_EET0_T_S5_S4_RT1_
_ZSt14__relocate_a_1IPN3cpr9ParameterES2_SaIS1_EET0_T_S5_S4_RT1_:
.LFB10376:
	pushq	%rbp
	.seh_pushreg	%rbp
	pushq	%rbx
	.seh_pushreg	%rbx
	subq	$56, %rsp
	.seh_stackalloc	56
	leaq	48(%rsp), %rbp
	.seh_setframe	%rbp, 48
	.seh_endprologue
	movq	%rcx, 32(%rbp)
	movq	%rdx, 40(%rbp)
	movq	%r8, 48(%rbp)
	movq	%r9, 56(%rbp)
	movq	48(%rbp), %rax
	movq	%rax, -8(%rbp)
	jmp	.L428
.L429:
	movq	32(%rbp), %rax
	movq	%rax, %rcx
	call	_ZSt11__addressofIN3cpr9ParameterEEPT_RS2_
	movq	%rax, %rbx
	movq	-8(%rbp), %rax
	movq	%rax, %rcx
	call	_ZSt11__addressofIN3cpr9ParameterEEPT_RS2_
	movq	56(%rbp), %rdx
	movq	%rdx, %r8
	movq	%rbx, %rdx
	movq	%rax, %rcx
	call	_ZSt19__relocate_object_aIN3cpr9ParameterES1_SaIS1_EEvPT_PT0_RT1_
	addq	$64, 32(%rbp)
	addq	$64, -8(%rbp)
.L428:
	movq	32(%rbp), %rax
	cmpq	40(%rbp), %rax
	jne	.L429
	movq	-8(%rbp), %rax
	addq	$56, %rsp
	popq	%rbx
	popq	%rbp
	ret
	.seh_endproc
	.section	.text$_ZSt16__do_uninit_copyIPKN3cpr4PairEPS1_ET0_T_S6_S5_,"x"
	.linkonce discard
	.globl	_ZSt16__do_uninit_copyIPKN3cpr4PairEPS1_ET0_T_S6_S5_
	.def	_ZSt16__do_uninit_copyIPKN3cpr4PairEPS1_ET0_T_S6_S5_;	.scl	2;	.type	32;	.endef
	.seh_proc	_ZSt16__do_uninit_copyIPKN3cpr4PairEPS1_ET0_T_S6_S5_
_ZSt16__do_uninit_copyIPKN3cpr4PairEPS1_ET0_T_S6_S5_:
.LFB10382:
	pushq	%rbp
	.seh_pushreg	%rbp
	pushq	%rbx
	.seh_pushreg	%rbx
	subq	$56, %rsp
	.seh_stackalloc	56
	leaq	48(%rsp), %rbp
	.seh_setframe	%rbp, 48
	.seh_endprologue
	movq	%rcx, 32(%rbp)
	movq	%rdx, 40(%rbp)
	movq	%r8, 48(%rbp)
	movq	48(%rbp), %rax
	movq	%rax, -8(%rbp)
	jmp	.L432
.L433:
	movq	-8(%rbp), %rax
	movq	%rax, %rcx
	call	_ZSt11__addressofIN3cpr4PairEEPT_RS2_
	movq	%rax, %rcx
	movq	32(%rbp), %rax
	movq	%rax, %rdx
.LEHB49:
	call	_ZSt10_ConstructIN3cpr4PairEJRKS1_EEvPT_DpOT0_
.LEHE49:
	addq	$64, 32(%rbp)
	addq	$64, -8(%rbp)
.L432:
	movq	32(%rbp), %rax
	cmpq	40(%rbp), %rax
	jne	.L433
	movq	-8(%rbp), %rax
	jmp	.L439
.L437:
	movq	%rax, %rcx
	call	__cxa_begin_catch
	movq	-8(%rbp), %rdx
	movq	48(%rbp), %rax
	movq	%rax, %rcx
.LEHB50:
	call	_ZSt8_DestroyIPN3cpr4PairEEvT_S3_
	call	__cxa_rethrow
.LEHE50:
.L438:
	movq	%rax, %rbx
	call	__cxa_end_catch
	movq	%rbx, %rax
	movq	%rax, %rcx
.LEHB51:
	call	_Unwind_Resume
.LEHE51:
.L439:
	addq	$56, %rsp
	popq	%rbx
	popq	%rbp
	ret
	.seh_handler	__gxx_personality_seh0, @unwind, @except
	.seh_handlerdata
	.align 4
.LLSDA10382:
	.byte	0xff
	.byte	0x9b
	.uleb128 .LLSDATT10382-.LLSDATTD10382
.LLSDATTD10382:
	.byte	0x1
	.uleb128 .LLSDACSE10382-.LLSDACSB10382
.LLSDACSB10382:
	.uleb128 .LEHB49-.LFB10382
	.uleb128 .LEHE49-.LEHB49
	.uleb128 .L437-.LFB10382
	.uleb128 0x1
	.uleb128 .LEHB50-.LFB10382
	.uleb128 .LEHE50-.LEHB50
	.uleb128 .L438-.LFB10382
	.uleb128 0
	.uleb128 .LEHB51-.LFB10382
	.uleb128 .LEHE51-.LEHB51
	.uleb128 0
	.uleb128 0
.LLSDACSE10382:
	.byte	0x1
	.byte	0
	.align 4
	.long	0

.LLSDATT10382:
	.section	.text$_ZSt16__do_uninit_copyIPKN3cpr4PairEPS1_ET0_T_S6_S5_,"x"
	.linkonce discard
	.seh_endproc
	.section	.text$_ZN3cpr4PairC1EOS0_,"x"
	.linkonce discard
	.align 2
	.globl	_ZN3cpr4PairC1EOS0_
	.def	_ZN3cpr4PairC1EOS0_;	.scl	2;	.type	32;	.endef
	.seh_proc	_ZN3cpr4PairC1EOS0_
_ZN3cpr4PairC1EOS0_:
.LFB10386:
	pushq	%rbp
	.seh_pushreg	%rbp
	movq	%rsp, %rbp
	.seh_setframe	%rbp, 0
	subq	$32, %rsp
	.seh_stackalloc	32
	.seh_endprologue
	movq	%rcx, 16(%rbp)
	movq	%rdx, 24(%rbp)
	movq	16(%rbp), %rax
	movq	24(%rbp), %rdx
	movq	%rax, %rcx
	call	_ZNSt7__cxx1112basic_stringIcSt11char_traitsIcESaIcEEC1EOS4_
	movq	16(%rbp), %rax
	addq	$32, %rax
	movq	24(%rbp), %rdx
	addq	$32, %rdx
	movq	%rax, %rcx
	call	_ZNSt7__cxx1112basic_stringIcSt11char_traitsIcESaIcEEC1EOS4_
	nop
	addq	$32, %rsp
	popq	%rbp
	ret
	.seh_endproc
	.section	.text$_ZNK9__gnu_cxx17__normal_iteratorIPN3cpr4PairESt6vectorIS2_SaIS2_EEEmiEx,"x"
	.linkonce discard
	.align 2
	.globl	_ZNK9__gnu_cxx17__normal_iteratorIPN3cpr4PairESt6vectorIS2_SaIS2_EEEmiEx
	.def	_ZNK9__gnu_cxx17__normal_iteratorIPN3cpr4PairESt6vectorIS2_SaIS2_EEEmiEx;	.scl	2;	.type	32;	.endef
	.seh_proc	_ZNK9__gnu_cxx17__normal_iteratorIPN3cpr4PairESt6vectorIS2_SaIS2_EEEmiEx
_ZNK9__gnu_cxx17__normal_iteratorIPN3cpr4PairESt6vectorIS2_SaIS2_EEEmiEx:
.LFB10387:
	pushq	%rbp
	.seh_pushreg	%rbp
	movq	%rsp, %rbp
	.seh_setframe	%rbp, 0
	subq	$48, %rsp
	.seh_stackalloc	48
	.seh_endprologue
	movq	%rcx, 16(%rbp)
	movq	%rdx, 24(%rbp)
	movq	16(%rbp), %rax
	movq	(%rax), %rax
	movq	24(%rbp), %rdx
	salq	$6, %rdx
	negq	%rdx
	addq	%rdx, %rax
	movq	%rax, -8(%rbp)
	leaq	-8(%rbp), %rdx
	leaq	-16(%rbp), %rax
	movq	%rax, %rcx
	call	_ZN9__gnu_cxx17__normal_iteratorIPN3cpr4PairESt6vectorIS2_SaIS2_EEEC1ERKS3_
	movq	-16(%rbp), %rax
	addq	$48, %rsp
	popq	%rbp
	ret
	.seh_endproc
	.section	.text$_ZNK9__gnu_cxx17__normal_iteratorIPN3cpr4PairESt6vectorIS2_SaIS2_EEEdeEv,"x"
	.linkonce discard
	.align 2
	.globl	_ZNK9__gnu_cxx17__normal_iteratorIPN3cpr4PairESt6vectorIS2_SaIS2_EEEdeEv
	.def	_ZNK9__gnu_cxx17__normal_iteratorIPN3cpr4PairESt6vectorIS2_SaIS2_EEEdeEv;	.scl	2;	.type	32;	.endef
	.seh_proc	_ZNK9__gnu_cxx17__normal_iteratorIPN3cpr4PairESt6vectorIS2_SaIS2_EEEdeEv
_ZNK9__gnu_cxx17__normal_iteratorIPN3cpr4PairESt6vectorIS2_SaIS2_EEEdeEv:
.LFB10388:
	pushq	%rbp
	.seh_pushreg	%rbp
	movq	%rsp, %rbp
	.seh_setframe	%rbp, 0
	.seh_endprologue
	movq	%rcx, 16(%rbp)
	movq	16(%rbp), %rax
	movq	(%rax), %rax
	popq	%rbp
	ret
	.seh_endproc
	.section	.text$_ZSt19__relocate_object_aIN3cpr4PairES1_SaIS1_EEvPT_PT0_RT1_,"x"
	.linkonce discard
	.globl	_ZSt19__relocate_object_aIN3cpr4PairES1_SaIS1_EEvPT_PT0_RT1_
	.def	_ZSt19__relocate_object_aIN3cpr4PairES1_SaIS1_EEvPT_PT0_RT1_;	.scl	2;	.type	32;	.endef
	.seh_proc	_ZSt19__relocate_object_aIN3cpr4PairES1_SaIS1_EEvPT_PT0_RT1_
_ZSt19__relocate_object_aIN3cpr4PairES1_SaIS1_EEvPT_PT0_RT1_:
.LFB10389:
	pushq	%rbp
	.seh_pushreg	%rbp
	pushq	%rbx
	.seh_pushreg	%rbx
	subq	$120, %rsp
	.seh_stackalloc	120
	leaq	112(%rsp), %rbp
	.seh_setframe	%rbp, 112
	.seh_endprologue
	movq	%rcx, 32(%rbp)
	movq	%rdx, 40(%rbp)
	movq	%r8, 48(%rbp)
	movq	40(%rbp), %rax
	movq	%rax, %rcx
	call	_ZSt4moveIRN3cpr4PairEEONSt16remove_referenceIT_E4typeEOS4_
	movq	48(%rbp), %rdx
	movq	%rdx, -40(%rbp)
	movq	32(%rbp), %rdx
	movq	%rdx, -48(%rbp)
	movq	%rax, -56(%rbp)
	movq	-56(%rbp), %rax
	movq	%rax, %rcx
	call	_ZSt7forwardIN3cpr4PairEEOT_RNSt16remove_referenceIS2_E4typeE
	movq	-48(%rbp), %rdx
	movq	%rdx, -64(%rbp)
	movq	%rax, -72(%rbp)
	movq	-40(%rbp), %rax
	movq	%rax, -80(%rbp)
	movq	-64(%rbp), %rax
	movq	%rax, %rdx
	movl	$64, %ecx
	call	_ZnwyPv
	movq	%rax, %rbx
	movq	-72(%rbp), %rax
	movq	%rax, %rcx
	call	_ZSt7forwardIN3cpr4PairEEOT_RNSt16remove_referenceIS2_E4typeE
	movq	%rax, %rdx
	movq	%rbx, %rcx
	call	_ZN3cpr4PairC1EOS0_
	nop
	nop
	movq	40(%rbp), %rax
	movq	%rax, %rcx
	call	_ZSt11__addressofIN3cpr4PairEEPT_RS2_
	movq	48(%rbp), %rdx
	movq	%rdx, -8(%rbp)
	movq	%rax, -16(%rbp)
	movq	-16(%rbp), %rax
	movq	%rax, -24(%rbp)
	movq	-8(%rbp), %rax
	movq	%rax, -32(%rbp)
	movq	-24(%rbp), %rax
	movq	%rax, %rcx
	call	_ZN3cpr4PairD1Ev
	nop
	nop
	nop
	addq	$120, %rsp
	popq	%rbx
	popq	%rbp
	ret
	.seh_endproc
	.section	.text$_ZSt16__do_uninit_copyIPKN3cpr9ParameterEPS1_ET0_T_S6_S5_,"x"
	.linkonce discard
	.globl	_ZSt16__do_uninit_copyIPKN3cpr9ParameterEPS1_ET0_T_S6_S5_
	.def	_ZSt16__do_uninit_copyIPKN3cpr9ParameterEPS1_ET0_T_S6_S5_;	.scl	2;	.type	32;	.endef
	.seh_proc	_ZSt16__do_uninit_copyIPKN3cpr9ParameterEPS1_ET0_T_S6_S5_
_ZSt16__do_uninit_copyIPKN3cpr9ParameterEPS1_ET0_T_S6_S5_:
.LFB10391:
	pushq	%rbp
	.seh_pushreg	%rbp
	pushq	%rbx
	.seh_pushreg	%rbx
	subq	$56, %rsp
	.seh_stackalloc	56
	leaq	48(%rsp), %rbp
	.seh_setframe	%rbp, 48
	.seh_endprologue
	movq	%rcx, 32(%rbp)
	movq	%rdx, 40(%rbp)
	movq	%r8, 48(%rbp)
	movq	48(%rbp), %rax
	movq	%rax, -8(%rbp)
	jmp	.L447
.L448:
	movq	-8(%rbp), %rax
	movq	%rax, %rcx
	call	_ZSt11__addressofIN3cpr9ParameterEEPT_RS2_
	movq	%rax, %rcx
	movq	32(%rbp), %rax
	movq	%rax, %rdx
.LEHB52:
	call	_ZSt10_ConstructIN3cpr9ParameterEJRKS1_EEvPT_DpOT0_
.LEHE52:
	addq	$64, 32(%rbp)
	addq	$64, -8(%rbp)
.L447:
	movq	32(%rbp), %rax
	cmpq	40(%rbp), %rax
	jne	.L448
	movq	-8(%rbp), %rax
	jmp	.L454
.L452:
	movq	%rax, %rcx
	call	__cxa_begin_catch
	movq	-8(%rbp), %rdx
	movq	48(%rbp), %rax
	movq	%rax, %rcx
.LEHB53:
	call	_ZSt8_DestroyIPN3cpr9ParameterEEvT_S3_
	call	__cxa_rethrow
.LEHE53:
.L453:
	movq	%rax, %rbx
	call	__cxa_end_catch
	movq	%rbx, %rax
	movq	%rax, %rcx
.LEHB54:
	call	_Unwind_Resume
.LEHE54:
.L454:
	addq	$56, %rsp
	popq	%rbx
	popq	%rbp
	ret
	.seh_handler	__gxx_personality_seh0, @unwind, @except
	.seh_handlerdata
	.align 4
.LLSDA10391:
	.byte	0xff
	.byte	0x9b
	.uleb128 .LLSDATT10391-.LLSDATTD10391
.LLSDATTD10391:
	.byte	0x1
	.uleb128 .LLSDACSE10391-.LLSDACSB10391
.LLSDACSB10391:
	.uleb128 .LEHB52-.LFB10391
	.uleb128 .LEHE52-.LEHB52
	.uleb128 .L452-.LFB10391
	.uleb128 0x1
	.uleb128 .LEHB53-.LFB10391
	.uleb128 .LEHE53-.LEHB53
	.uleb128 .L453-.LFB10391
	.uleb128 0
	.uleb128 .LEHB54-.LFB10391
	.uleb128 .LEHE54-.LEHB54
	.uleb128 0
	.uleb128 0
.LLSDACSE10391:
	.byte	0x1
	.byte	0
	.align 4
	.long	0

.LLSDATT10391:
	.section	.text$_ZSt16__do_uninit_copyIPKN3cpr9ParameterEPS1_ET0_T_S6_S5_,"x"
	.linkonce discard
	.seh_endproc
	.section	.text$_ZN3cpr9ParameterC1EOS0_,"x"
	.linkonce discard
	.align 2
	.globl	_ZN3cpr9ParameterC1EOS0_
	.def	_ZN3cpr9ParameterC1EOS0_;	.scl	2;	.type	32;	.endef
	.seh_proc	_ZN3cpr9ParameterC1EOS0_
_ZN3cpr9ParameterC1EOS0_:
.LFB10395:
	pushq	%rbp
	.seh_pushreg	%rbp
	movq	%rsp, %rbp
	.seh_setframe	%rbp, 0
	subq	$32, %rsp
	.seh_stackalloc	32
	.seh_endprologue
	movq	%rcx, 16(%rbp)
	movq	%rdx, 24(%rbp)
	movq	16(%rbp), %rax
	movq	24(%rbp), %rdx
	movq	%rax, %rcx
	call	_ZNSt7__cxx1112basic_stringIcSt11char_traitsIcESaIcEEC1EOS4_
	movq	16(%rbp), %rax
	addq	$32, %rax
	movq	24(%rbp), %rdx
	addq	$32, %rdx
	movq	%rax, %rcx
	call	_ZNSt7__cxx1112basic_stringIcSt11char_traitsIcESaIcEEC1EOS4_
	nop
	addq	$32, %rsp
	popq	%rbp
	ret
	.seh_endproc
	.section	.text$_ZNK9__gnu_cxx17__normal_iteratorIPN3cpr9ParameterESt6vectorIS2_SaIS2_EEEmiEx,"x"
	.linkonce discard
	.align 2
	.globl	_ZNK9__gnu_cxx17__normal_iteratorIPN3cpr9ParameterESt6vectorIS2_SaIS2_EEEmiEx
	.def	_ZNK9__gnu_cxx17__normal_iteratorIPN3cpr9ParameterESt6vectorIS2_SaIS2_EEEmiEx;	.scl	2;	.type	32;	.endef
	.seh_proc	_ZNK9__gnu_cxx17__normal_iteratorIPN3cpr9ParameterESt6vectorIS2_SaIS2_EEEmiEx
_ZNK9__gnu_cxx17__normal_iteratorIPN3cpr9ParameterESt6vectorIS2_SaIS2_EEEmiEx:
.LFB10396:
	pushq	%rbp
	.seh_pushreg	%rbp
	movq	%rsp, %rbp
	.seh_setframe	%rbp, 0
	subq	$48, %rsp
	.seh_stackalloc	48
	.seh_endprologue
	movq	%rcx, 16(%rbp)
	movq	%rdx, 24(%rbp)
	movq	16(%rbp), %rax
	movq	(%rax), %rax
	movq	24(%rbp), %rdx
	salq	$6, %rdx
	negq	%rdx
	addq	%rdx, %rax
	movq	%rax, -8(%rbp)
	leaq	-8(%rbp), %rdx
	leaq	-16(%rbp), %rax
	movq	%rax, %rcx
	call	_ZN9__gnu_cxx17__normal_iteratorIPN3cpr9ParameterESt6vectorIS2_SaIS2_EEEC1ERKS3_
	movq	-16(%rbp), %rax
	addq	$48, %rsp
	popq	%rbp
	ret
	.seh_endproc
	.section	.text$_ZNK9__gnu_cxx17__normal_iteratorIPN3cpr9ParameterESt6vectorIS2_SaIS2_EEEdeEv,"x"
	.linkonce discard
	.align 2
	.globl	_ZNK9__gnu_cxx17__normal_iteratorIPN3cpr9ParameterESt6vectorIS2_SaIS2_EEEdeEv
	.def	_ZNK9__gnu_cxx17__normal_iteratorIPN3cpr9ParameterESt6vectorIS2_SaIS2_EEEdeEv;	.scl	2;	.type	32;	.endef
	.seh_proc	_ZNK9__gnu_cxx17__normal_iteratorIPN3cpr9ParameterESt6vectorIS2_SaIS2_EEEdeEv
_ZNK9__gnu_cxx17__normal_iteratorIPN3cpr9ParameterESt6vectorIS2_SaIS2_EEEdeEv:
.LFB10397:
	pushq	%rbp
	.seh_pushreg	%rbp
	movq	%rsp, %rbp
	.seh_setframe	%rbp, 0
	.seh_endprologue
	movq	%rcx, 16(%rbp)
	movq	16(%rbp), %rax
	movq	(%rax), %rax
	popq	%rbp
	ret
	.seh_endproc
	.section	.text$_ZSt19__relocate_object_aIN3cpr9ParameterES1_SaIS1_EEvPT_PT0_RT1_,"x"
	.linkonce discard
	.globl	_ZSt19__relocate_object_aIN3cpr9ParameterES1_SaIS1_EEvPT_PT0_RT1_
	.def	_ZSt19__relocate_object_aIN3cpr9ParameterES1_SaIS1_EEvPT_PT0_RT1_;	.scl	2;	.type	32;	.endef
	.seh_proc	_ZSt19__relocate_object_aIN3cpr9ParameterES1_SaIS1_EEvPT_PT0_RT1_
_ZSt19__relocate_object_aIN3cpr9ParameterES1_SaIS1_EEvPT_PT0_RT1_:
.LFB10398:
	pushq	%rbp
	.seh_pushreg	%rbp
	pushq	%rbx
	.seh_pushreg	%rbx
	subq	$120, %rsp
	.seh_stackalloc	120
	leaq	112(%rsp), %rbp
	.seh_setframe	%rbp, 112
	.seh_endprologue
	movq	%rcx, 32(%rbp)
	movq	%rdx, 40(%rbp)
	movq	%r8, 48(%rbp)
	movq	40(%rbp), %rax
	movq	%rax, %rcx
	call	_ZSt4moveIRN3cpr9ParameterEEONSt16remove_referenceIT_E4typeEOS4_
	movq	48(%rbp), %rdx
	movq	%rdx, -40(%rbp)
	movq	32(%rbp), %rdx
	movq	%rdx, -48(%rbp)
	movq	%rax, -56(%rbp)
	movq	-56(%rbp), %rax
	movq	%rax, %rcx
	call	_ZSt7forwardIN3cpr9ParameterEEOT_RNSt16remove_referenceIS2_E4typeE
	movq	-48(%rbp), %rdx
	movq	%rdx, -64(%rbp)
	movq	%rax, -72(%rbp)
	movq	-40(%rbp), %rax
	movq	%rax, -80(%rbp)
	movq	-64(%rbp), %rax
	movq	%rax, %rdx
	movl	$64, %ecx
	call	_ZnwyPv
	movq	%rax, %rbx
	movq	-72(%rbp), %rax
	movq	%rax, %rcx
	call	_ZSt7forwardIN3cpr9ParameterEEOT_RNSt16remove_referenceIS2_E4typeE
	movq	%rax, %rdx
	movq	%rbx, %rcx
	call	_ZN3cpr9ParameterC1EOS0_
	nop
	nop
	movq	40(%rbp), %rax
	movq	%rax, %rcx
	call	_ZSt11__addressofIN3cpr9ParameterEEPT_RS2_
	movq	48(%rbp), %rdx
	movq	%rdx, -8(%rbp)
	movq	%rax, -16(%rbp)
	movq	-16(%rbp), %rax
	movq	%rax, -24(%rbp)
	movq	-8(%rbp), %rax
	movq	%rax, -32(%rbp)
	movq	-24(%rbp), %rax
	movq	%rax, %rcx
	call	_ZN3cpr9ParameterD1Ev
	nop
	nop
	nop
	addq	$120, %rsp
	popq	%rbx
	popq	%rbp
	ret
	.seh_endproc
	.section	.text$_ZSt10_ConstructIN3cpr4PairEJRKS1_EEvPT_DpOT0_,"x"
	.linkonce discard
	.globl	_ZSt10_ConstructIN3cpr4PairEJRKS1_EEvPT_DpOT0_
	.def	_ZSt10_ConstructIN3cpr4PairEJRKS1_EEvPT_DpOT0_;	.scl	2;	.type	32;	.endef
	.seh_proc	_ZSt10_ConstructIN3cpr4PairEJRKS1_EEvPT_DpOT0_
_ZSt10_ConstructIN3cpr4PairEJRKS1_EEvPT_DpOT0_:
.LFB10399:
	pushq	%rbp
	.seh_pushreg	%rbp
	pushq	%r12
	.seh_pushreg	%r12
	pushq	%rdi
	.seh_pushreg	%rdi
	pushq	%rsi
	.seh_pushreg	%rsi
	pushq	%rbx
	.seh_pushreg	%rbx
	subq	$32, %rsp
	.seh_stackalloc	32
	leaq	32(%rsp), %rbp
	.seh_setframe	%rbp, 32
	.seh_endprologue
	movq	%rcx, 48(%rbp)
	movq	%rdx, 56(%rbp)
	movq	48(%rbp), %rbx
	movq	%rbx, %rdx
	movl	$64, %ecx
	call	_ZnwyPv
	movq	%rax, %rsi
	movl	$1, %r12d
	movq	56(%rbp), %rax
	movq	%rax, %rcx
	call	_ZSt7forwardIRKN3cpr4PairEEOT_RNSt16remove_referenceIS4_E4typeE
	movq	%rax, %rdx
	movq	%rsi, %rcx
.LEHB55:
	call	_ZN3cpr4PairC1ERKS0_
.LEHE55:
	jmp	.L465
.L464:
	movq	%rax, %rdi
	testb	%r12b, %r12b
	je	.L463
	movq	%rbx, %rdx
	movq	%rsi, %rcx
	call	_ZdlPvS_
.L463:
	movq	%rdi, %rax
	movq	%rax, %rcx
.LEHB56:
	call	_Unwind_Resume
	nop
.LEHE56:
.L465:
	addq	$32, %rsp
	popq	%rbx
	popq	%rsi
	popq	%rdi
	popq	%r12
	popq	%rbp
	ret
	.seh_handler	__gxx_personality_seh0, @unwind, @except
	.seh_handlerdata
.LLSDA10399:
	.byte	0xff
	.byte	0xff
	.byte	0x1
	.uleb128 .LLSDACSE10399-.LLSDACSB10399
.LLSDACSB10399:
	.uleb128 .LEHB55-.LFB10399
	.uleb128 .LEHE55-.LEHB55
	.uleb128 .L464-.LFB10399
	.uleb128 0
	.uleb128 .LEHB56-.LFB10399
	.uleb128 .LEHE56-.LEHB56
	.uleb128 0
	.uleb128 0
.LLSDACSE10399:
	.section	.text$_ZSt10_ConstructIN3cpr4PairEJRKS1_EEvPT_DpOT0_,"x"
	.linkonce discard
	.seh_endproc
	.section	.text$_ZSt10_ConstructIN3cpr9ParameterEJRKS1_EEvPT_DpOT0_,"x"
	.linkonce discard
	.globl	_ZSt10_ConstructIN3cpr9ParameterEJRKS1_EEvPT_DpOT0_
	.def	_ZSt10_ConstructIN3cpr9ParameterEJRKS1_EEvPT_DpOT0_;	.scl	2;	.type	32;	.endef
	.seh_proc	_ZSt10_ConstructIN3cpr9ParameterEJRKS1_EEvPT_DpOT0_
_ZSt10_ConstructIN3cpr9ParameterEJRKS1_EEvPT_DpOT0_:
.LFB10401:
	pushq	%rbp
	.seh_pushreg	%rbp
	pushq	%r12
	.seh_pushreg	%r12
	pushq	%rdi
	.seh_pushreg	%rdi
	pushq	%rsi
	.seh_pushreg	%rsi
	pushq	%rbx
	.seh_pushreg	%rbx
	subq	$32, %rsp
	.seh_stackalloc	32
	leaq	32(%rsp), %rbp
	.seh_setframe	%rbp, 32
	.seh_endprologue
	movq	%rcx, 48(%rbp)
	movq	%rdx, 56(%rbp)
	movq	48(%rbp), %rbx
	movq	%rbx, %rdx
	movl	$64, %ecx
	call	_ZnwyPv
	movq	%rax, %rsi
	movl	$1, %r12d
	movq	56(%rbp), %rax
	movq	%rax, %rcx
	call	_ZSt7forwardIRKN3cpr9ParameterEEOT_RNSt16remove_referenceIS4_E4typeE
	movq	%rax, %rdx
	movq	%rsi, %rcx
.LEHB57:
	call	_ZN3cpr9ParameterC1ERKS0_
.LEHE57:
	jmp	.L470
.L469:
	movq	%rax, %rdi
	testb	%r12b, %r12b
	je	.L468
	movq	%rbx, %rdx
	movq	%rsi, %rcx
	call	_ZdlPvS_
.L468:
	movq	%rdi, %rax
	movq	%rax, %rcx
.LEHB58:
	call	_Unwind_Resume
	nop
.LEHE58:
.L470:
	addq	$32, %rsp
	popq	%rbx
	popq	%rsi
	popq	%rdi
	popq	%r12
	popq	%rbp
	ret
	.seh_handler	__gxx_personality_seh0, @unwind, @except
	.seh_handlerdata
.LLSDA10401:
	.byte	0xff
	.byte	0xff
	.byte	0x1
	.uleb128 .LLSDACSE10401-.LLSDACSB10401
.LLSDACSB10401:
	.uleb128 .LEHB57-.LFB10401
	.uleb128 .LEHE57-.LEHB57
	.uleb128 .L469-.LFB10401
	.uleb128 0
	.uleb128 .LEHB58-.LFB10401
	.uleb128 .LEHE58-.LEHB58
	.uleb128 0
	.uleb128 0
.LLSDACSE10401:
	.section	.text$_ZSt10_ConstructIN3cpr9ParameterEJRKS1_EEvPT_DpOT0_,"x"
	.linkonce discard
	.seh_endproc
	.section .rdata,"dr"
_ZNSt8__detail30__integer_to_chars_is_unsignedIjEE:
	.byte	1
_ZNSt8__detail30__integer_to_chars_is_unsignedImEE:
	.byte	1
_ZNSt8__detail30__integer_to_chars_is_unsignedIyEE:
	.byte	1
_ZSt12__is_ratio_vISt5ratioILx1ELx1000000000EEE:
	.byte	1
_ZSt12__is_ratio_vISt5ratioILx1ELx1EEE:
	.byte	1
_ZSt12__is_ratio_vISt5ratioILx1000000000ELx1EEE:
	.byte	1
	.def	__gxx_personality_seh0;	.scl	2;	.type	32;	.endef
	.ident	"GCC: (MinGW-W64 x86_64-ucrt-posix-seh, built by Brecht Sanders, r1) 14.2.0"
	.def	strlen;	.scl	2;	.type	32;	.endef
	.def	_ZNSt7__cxx1112basic_stringIcSt11char_traitsIcESaIcEEC1Ev;	.scl	2;	.type	32;	.endef
	.def	_ZNKSt7__cxx1112basic_stringIcSt11char_traitsIcESaIcEE5emptyEv;	.scl	2;	.type	32;	.endef
	.def	_ZNSt7__cxx1112basic_stringIcSt11char_traitsIcESaIcEEpLEPKc;	.scl	2;	.type	32;	.endef
	.def	_ZNK3cpr10CurlHolder9urlEncodeERKNSt7__cxx1112basic_stringIcSt11char_traitsIcESaIcEEE;	.scl	2;	.type	32;	.endef
	.def	_ZNSt7__cxx1112basic_stringIcSt11char_traitsIcESaIcEEC1ERKS4_;	.scl	2;	.type	32;	.endef
	.def	_ZNSt7__cxx1112basic_stringIcSt11char_traitsIcESaIcEEpLERKS4_;	.scl	2;	.type	32;	.endef
	.def	_ZNSt7__cxx1112basic_stringIcSt11char_traitsIcESaIcEED1Ev;	.scl	2;	.type	32;	.endef
	.def	_Unwind_Resume;	.scl	2;	.type	32;	.endef
	.def	_ZNKSt7__cxx1112basic_stringIcSt11char_traitsIcESaIcEE13get_allocatorEv;	.scl	2;	.type	32;	.endef
	.def	_ZNKSt7__cxx1112basic_stringIcSt11char_traitsIcESaIcEE4sizeEv;	.scl	2;	.type	32;	.endef
	.def	_ZNKSt7__cxx1112basic_stringIcSt11char_traitsIcESaIcEE5c_strEv;	.scl	2;	.type	32;	.endef
	.def	_ZNSt7__cxx1112basic_stringIcSt11char_traitsIcESaIcEE6appendERKS4_;	.scl	2;	.type	32;	.endef
	.def	_ZNSt7__cxx1112basic_stringIcSt11char_traitsIcESaIcEEC1EOS4_;	.scl	2;	.type	32;	.endef
	.def	_ZNSt7__cxx1112basic_stringIcSt11char_traitsIcESaIcEEC1ERKS3_;	.scl	2;	.type	32;	.endef
	.def	_ZNSt7__cxx1112basic_stringIcSt11char_traitsIcESaIcEE7reserveEy;	.scl	2;	.type	32;	.endef
	.def	_ZNSt7__cxx1112basic_stringIcSt11char_traitsIcESaIcEE6appendEPKcy;	.scl	2;	.type	32;	.endef
	.def	_ZSt20__throw_length_errorPKc;	.scl	2;	.type	32;	.endef
	.def	_ZdlPvy;	.scl	2;	.type	32;	.endef
	.def	_ZSt28__throw_bad_array_new_lengthv;	.scl	2;	.type	32;	.endef
	.def	_ZSt17__throw_bad_allocv;	.scl	2;	.type	32;	.endef
	.def	_Znwy;	.scl	2;	.type	32;	.endef
	.def	__cxa_begin_catch;	.scl	2;	.type	32;	.endef
	.def	__cxa_rethrow;	.scl	2;	.type	32;	.endef
	.def	__cxa_end_catch;	.scl	2;	.type	32;	.endef
