	.file	"interceptor.cpp"
	.text
	.section	.text$_ZnwyPv,"x"
	.linkonce discard
	.globl	_ZnwyPv
	.def	_ZnwyPv;	.scl	2;	.type	32;	.endef
	.seh_proc	_ZnwyPv
_ZnwyPv:
.LFB6037:
	pushq	%rbp
	.seh_pushreg	%rbp
	movq	%rsp, %rbp
	.seh_setframe	%rbp, 0
	.seh_endprologue
	movq	%rcx, 16(%rbp)
	movq	%rdx, 24(%rbp)
	movq	24(%rbp), %rax
	popq	%rbp
	ret
	.seh_endproc
	.section	.text$_ZdlPvS_,"x"
	.linkonce discard
	.globl	_ZdlPvS_
	.def	_ZdlPvS_;	.scl	2;	.type	32;	.endef
	.seh_proc	_ZdlPvS_
_ZdlPvS_:
.LFB6039:
	pushq	%rbp
	.seh_pushreg	%rbp
	movq	%rsp, %rbp
	.seh_setframe	%rbp, 0
	.seh_endprologue
	movq	%rcx, 16(%rbp)
	movq	%rdx, 24(%rbp)
	nop
	popq	%rbp
	ret
	.seh_endproc
	.section	.text$_ZNSt11char_traitsIcE6lengthEPKc,"x"
	.linkonce discard
	.globl	_ZNSt11char_traitsIcE6lengthEPKc
	.def	_ZNSt11char_traitsIcE6lengthEPKc;	.scl	2;	.type	32;	.endef
	.seh_proc	_ZNSt11char_traitsIcE6lengthEPKc
_ZNSt11char_traitsIcE6lengthEPKc:
.LFB7604:
	pushq	%rbp
	.seh_pushreg	%rbp
	movq	%rsp, %rbp
	.seh_setframe	%rbp, 0
	subq	$32, %rsp
	.seh_stackalloc	32
	.seh_endprologue
	movq	%rcx, 16(%rbp)
	movl	$0, %eax
	testb	%al, %al
	je	.L6
	movq	16(%rbp), %rax
	movq	%rax, %rcx
	call	_ZN9__gnu_cxx11char_traitsIcE6lengthEPKc
	jmp	.L7
.L6:
	movq	16(%rbp), %rax
	movq	%rax, %rcx
	call	strlen
	nop
.L7:
	addq	$32, %rsp
	popq	%rbp
	ret
	.seh_endproc
	.section .rdata,"dr"
	.align 8
_ZN3cprL19EXPIRES_STRING_SIZEE:
	.quad	100
	.section	.text$_ZNSt15_Rb_tree_headerC2Ev,"x"
	.linkonce discard
	.align 2
	.globl	_ZNSt15_Rb_tree_headerC2Ev
	.def	_ZNSt15_Rb_tree_headerC2Ev;	.scl	2;	.type	32;	.endef
	.seh_proc	_ZNSt15_Rb_tree_headerC2Ev
_ZNSt15_Rb_tree_headerC2Ev:
.LFB9570:
	pushq	%rbp
	.seh_pushreg	%rbp
	movq	%rsp, %rbp
	.seh_setframe	%rbp, 0
	subq	$32, %rsp
	.seh_stackalloc	32
	.seh_endprologue
	movq	%rcx, 16(%rbp)
	movq	16(%rbp), %rax
	movl	$0, (%rax)
	movq	16(%rbp), %rax
	movq	%rax, %rcx
	call	_ZNSt15_Rb_tree_header8_M_resetEv
	nop
	addq	$32, %rsp
	popq	%rbp
	ret
	.seh_endproc
	.section	.text$_ZNSt15_Rb_tree_header8_M_resetEv,"x"
	.linkonce discard
	.align 2
	.globl	_ZNSt15_Rb_tree_header8_M_resetEv
	.def	_ZNSt15_Rb_tree_header8_M_resetEv;	.scl	2;	.type	32;	.endef
	.seh_proc	_ZNSt15_Rb_tree_header8_M_resetEv
_ZNSt15_Rb_tree_header8_M_resetEv:
.LFB9576:
	pushq	%rbp
	.seh_pushreg	%rbp
	movq	%rsp, %rbp
	.seh_setframe	%rbp, 0
	.seh_endprologue
	movq	%rcx, 16(%rbp)
	movq	16(%rbp), %rax
	movq	$0, 8(%rax)
	movq	16(%rbp), %rdx
	movq	16(%rbp), %rax
	movq	%rdx, 16(%rax)
	movq	16(%rbp), %rdx
	movq	16(%rbp), %rax
	movq	%rdx, 24(%rax)
	movq	16(%rbp), %rax
	movq	$0, 32(%rax)
	nop
	popq	%rbp
	ret
	.seh_endproc
	.section	.text$_ZNSt14_Function_baseD2Ev,"x"
	.linkonce discard
	.align 2
	.globl	_ZNSt14_Function_baseD2Ev
	.def	_ZNSt14_Function_baseD2Ev;	.scl	2;	.type	32;	.endef
	.seh_proc	_ZNSt14_Function_baseD2Ev
_ZNSt14_Function_baseD2Ev:
.LFB10906:
	pushq	%rbp
	.seh_pushreg	%rbp
	movq	%rsp, %rbp
	.seh_setframe	%rbp, 0
	subq	$32, %rsp
	.seh_stackalloc	32
	.seh_endprologue
	movq	%rcx, 16(%rbp)
	movq	16(%rbp), %rax
	movq	16(%rax), %rax
	testq	%rax, %rax
	je	.L12
	movq	16(%rbp), %rax
	movq	16(%rax), %r9
	movq	16(%rbp), %rdx
	movq	16(%rbp), %rax
	movl	$3, %r8d
	movq	%rax, %rcx
	call	*%r9
.L12:
	nop
	addq	$32, %rsp
	popq	%rbp
	ret
	.seh_handler	__gxx_personality_seh0, @unwind, @except
	.seh_handlerdata
.LLSDA10906:
	.byte	0xff
	.byte	0xff
	.byte	0x1
	.uleb128 .LLSDACSE10906-.LLSDACSB10906
.LLSDACSB10906:
.LLSDACSE10906:
	.section	.text$_ZNSt14_Function_baseD2Ev,"x"
	.linkonce discard
	.seh_endproc
	.section	.text$_ZNKSt14_Function_base8_M_emptyEv,"x"
	.linkonce discard
	.align 2
	.globl	_ZNKSt14_Function_base8_M_emptyEv
	.def	_ZNKSt14_Function_base8_M_emptyEv;	.scl	2;	.type	32;	.endef
	.seh_proc	_ZNKSt14_Function_base8_M_emptyEv
_ZNKSt14_Function_base8_M_emptyEv:
.LFB10908:
	pushq	%rbp
	.seh_pushreg	%rbp
	movq	%rsp, %rbp
	.seh_setframe	%rbp, 0
	.seh_endprologue
	movq	%rcx, 16(%rbp)
	movq	16(%rbp), %rax
	movq	16(%rax), %rax
	testq	%rax, %rax
	sete	%al
	popq	%rbp
	ret
	.seh_endproc
	.section	.text$_ZNSt8functionIFbNSt7__cxx1112basic_stringIcSt11char_traitsIcESaIcEEExEED1Ev,"x"
	.linkonce discard
	.align 2
	.globl	_ZNSt8functionIFbNSt7__cxx1112basic_stringIcSt11char_traitsIcESaIcEEExEED1Ev
	.def	_ZNSt8functionIFbNSt7__cxx1112basic_stringIcSt11char_traitsIcESaIcEEExEED1Ev;	.scl	2;	.type	32;	.endef
	.seh_proc	_ZNSt8functionIFbNSt7__cxx1112basic_stringIcSt11char_traitsIcESaIcEEExEED1Ev
_ZNSt8functionIFbNSt7__cxx1112basic_stringIcSt11char_traitsIcESaIcEEExEED1Ev:
.LFB11576:
	pushq	%rbp
	.seh_pushreg	%rbp
	movq	%rsp, %rbp
	.seh_setframe	%rbp, 0
	subq	$32, %rsp
	.seh_stackalloc	32
	.seh_endprologue
	movq	%rcx, 16(%rbp)
	movq	16(%rbp), %rax
	movq	%rax, %rcx
	call	_ZNSt14_Function_baseD2Ev
	nop
	addq	$32, %rsp
	popq	%rbp
	ret
	.seh_endproc
	.section	.text$_ZNSt4pairIKN3cpr21AcceptEncodingMethodsENSt7__cxx1112basic_stringIcSt11char_traitsIcESaIcEEEED1Ev,"x"
	.linkonce discard
	.align 2
	.globl	_ZNSt4pairIKN3cpr21AcceptEncodingMethodsENSt7__cxx1112basic_stringIcSt11char_traitsIcESaIcEEEED1Ev
	.def	_ZNSt4pairIKN3cpr21AcceptEncodingMethodsENSt7__cxx1112basic_stringIcSt11char_traitsIcESaIcEEEED1Ev;	.scl	2;	.type	32;	.endef
	.seh_proc	_ZNSt4pairIKN3cpr21AcceptEncodingMethodsENSt7__cxx1112basic_stringIcSt11char_traitsIcESaIcEEEED1Ev
_ZNSt4pairIKN3cpr21AcceptEncodingMethodsENSt7__cxx1112basic_stringIcSt11char_traitsIcESaIcEEEED1Ev:
.LFB12520:
	pushq	%rbp
	.seh_pushreg	%rbp
	movq	%rsp, %rbp
	.seh_setframe	%rbp, 0
	subq	$32, %rsp
	.seh_stackalloc	32
	.seh_endprologue
	movq	%rcx, 16(%rbp)
	movq	16(%rbp), %rax
	addq	$8, %rax
	movq	%rax, %rcx
	call	_ZNSt7__cxx1112basic_stringIcSt11char_traitsIcESaIcEED1Ev
	nop
	addq	$32, %rsp
	popq	%rbp
	ret
	.seh_endproc
	.section	.text$_ZNSt4pairIKN3cpr21AcceptEncodingMethodsENSt7__cxx1112basic_stringIcSt11char_traitsIcESaIcEEEEC1IS1_RA9_KcLb1EEEOT_OT0_,"x"
	.linkonce discard
	.align 2
	.globl	_ZNSt4pairIKN3cpr21AcceptEncodingMethodsENSt7__cxx1112basic_stringIcSt11char_traitsIcESaIcEEEEC1IS1_RA9_KcLb1EEEOT_OT0_
	.def	_ZNSt4pairIKN3cpr21AcceptEncodingMethodsENSt7__cxx1112basic_stringIcSt11char_traitsIcESaIcEEEEC1IS1_RA9_KcLb1EEEOT_OT0_;	.scl	2;	.type	32;	.endef
	.seh_proc	_ZNSt4pairIKN3cpr21AcceptEncodingMethodsENSt7__cxx1112basic_stringIcSt11char_traitsIcESaIcEEEEC1IS1_RA9_KcLb1EEEOT_OT0_
_ZNSt4pairIKN3cpr21AcceptEncodingMethodsENSt7__cxx1112basic_stringIcSt11char_traitsIcESaIcEEEEC1IS1_RA9_KcLb1EEEOT_OT0_:
.LFB12523:
	pushq	%rbp
	.seh_pushreg	%rbp
	pushq	%rbx
	.seh_pushreg	%rbx
	subq	$56, %rsp
	.seh_stackalloc	56
	leaq	48(%rsp), %rbp
	.seh_setframe	%rbp, 48
	.seh_endprologue
	movq	%rcx, 32(%rbp)
	movq	%rdx, 40(%rbp)
	movq	%r8, 48(%rbp)
	movq	40(%rbp), %rax
	movq	%rax, %rcx
	call	_ZSt7forwardIN3cpr21AcceptEncodingMethodsEEOT_RNSt16remove_referenceIS2_E4typeE
	movl	(%rax), %edx
	movq	32(%rbp), %rax
	movl	%edx, (%rax)
	movq	32(%rbp), %rax
	leaq	8(%rax), %rbx
	leaq	-9(%rbp), %rax
	movq	%rax, -8(%rbp)
	nop
	nop
	movq	48(%rbp), %rax
	movq	%rax, %rcx
	call	_ZSt7forwardIRA9_KcEOT_RNSt16remove_referenceIS3_E4typeE
	leaq	-9(%rbp), %rdx
	movq	%rdx, %r8
	movq	%rax, %rdx
	movq	%rbx, %rcx
.LEHB0:
	call	_ZNSt7__cxx1112basic_stringIcSt11char_traitsIcESaIcEEC1IS3_EEPKcRKS3_
.LEHE0:
	leaq	-9(%rbp), %rax
	movq	%rax, %rcx
	call	_ZNSt15__new_allocatorIcED2Ev
	nop
	jmp	.L20
.L19:
	movq	%rax, %rbx
	leaq	-9(%rbp), %rax
	movq	%rax, %rcx
	call	_ZNSt15__new_allocatorIcED2Ev
	nop
	movq	%rbx, %rax
	movq	%rax, %rcx
.LEHB1:
	call	_Unwind_Resume
	nop
.LEHE1:
.L20:
	addq	$56, %rsp
	popq	%rbx
	popq	%rbp
	ret
	.seh_handler	__gxx_personality_seh0, @unwind, @except
	.seh_handlerdata
.LLSDA12523:
	.byte	0xff
	.byte	0xff
	.byte	0x1
	.uleb128 .LLSDACSE12523-.LLSDACSB12523
.LLSDACSB12523:
	.uleb128 .LEHB0-.LFB12523
	.uleb128 .LEHE0-.LEHB0
	.uleb128 .L19-.LFB12523
	.uleb128 0
	.uleb128 .LEHB1-.LFB12523
	.uleb128 .LEHE1-.LEHB1
	.uleb128 0
	.uleb128 0
.LLSDACSE12523:
	.section	.text$_ZNSt4pairIKN3cpr21AcceptEncodingMethodsENSt7__cxx1112basic_stringIcSt11char_traitsIcESaIcEEEEC1IS1_RA9_KcLb1EEEOT_OT0_,"x"
	.linkonce discard
	.seh_endproc
	.section	.text$_ZNSt4pairIKN3cpr21AcceptEncodingMethodsENSt7__cxx1112basic_stringIcSt11char_traitsIcESaIcEEEEC1IS1_RA8_KcLb1EEEOT_OT0_,"x"
	.linkonce discard
	.align 2
	.globl	_ZNSt4pairIKN3cpr21AcceptEncodingMethodsENSt7__cxx1112basic_stringIcSt11char_traitsIcESaIcEEEEC1IS1_RA8_KcLb1EEEOT_OT0_
	.def	_ZNSt4pairIKN3cpr21AcceptEncodingMethodsENSt7__cxx1112basic_stringIcSt11char_traitsIcESaIcEEEEC1IS1_RA8_KcLb1EEEOT_OT0_;	.scl	2;	.type	32;	.endef
	.seh_proc	_ZNSt4pairIKN3cpr21AcceptEncodingMethodsENSt7__cxx1112basic_stringIcSt11char_traitsIcESaIcEEEEC1IS1_RA8_KcLb1EEEOT_OT0_
_ZNSt4pairIKN3cpr21AcceptEncodingMethodsENSt7__cxx1112basic_stringIcSt11char_traitsIcESaIcEEEEC1IS1_RA8_KcLb1EEEOT_OT0_:
.LFB12526:
	pushq	%rbp
	.seh_pushreg	%rbp
	pushq	%rbx
	.seh_pushreg	%rbx
	subq	$56, %rsp
	.seh_stackalloc	56
	leaq	48(%rsp), %rbp
	.seh_setframe	%rbp, 48
	.seh_endprologue
	movq	%rcx, 32(%rbp)
	movq	%rdx, 40(%rbp)
	movq	%r8, 48(%rbp)
	movq	40(%rbp), %rax
	movq	%rax, %rcx
	call	_ZSt7forwardIN3cpr21AcceptEncodingMethodsEEOT_RNSt16remove_referenceIS2_E4typeE
	movl	(%rax), %edx
	movq	32(%rbp), %rax
	movl	%edx, (%rax)
	movq	32(%rbp), %rax
	leaq	8(%rax), %rbx
	leaq	-9(%rbp), %rax
	movq	%rax, -8(%rbp)
	nop
	nop
	movq	48(%rbp), %rax
	movq	%rax, %rcx
	call	_ZSt7forwardIRA8_KcEOT_RNSt16remove_referenceIS3_E4typeE
	leaq	-9(%rbp), %rdx
	movq	%rdx, %r8
	movq	%rax, %rdx
	movq	%rbx, %rcx
.LEHB2:
	call	_ZNSt7__cxx1112basic_stringIcSt11char_traitsIcESaIcEEC1IS3_EEPKcRKS3_
.LEHE2:
	leaq	-9(%rbp), %rax
	movq	%rax, %rcx
	call	_ZNSt15__new_allocatorIcED2Ev
	nop
	jmp	.L24
.L23:
	movq	%rax, %rbx
	leaq	-9(%rbp), %rax
	movq	%rax, %rcx
	call	_ZNSt15__new_allocatorIcED2Ev
	nop
	movq	%rbx, %rax
	movq	%rax, %rcx
.LEHB3:
	call	_Unwind_Resume
	nop
.LEHE3:
.L24:
	addq	$56, %rsp
	popq	%rbx
	popq	%rbp
	ret
	.seh_handler	__gxx_personality_seh0, @unwind, @except
	.seh_handlerdata
.LLSDA12526:
	.byte	0xff
	.byte	0xff
	.byte	0x1
	.uleb128 .LLSDACSE12526-.LLSDACSB12526
.LLSDACSB12526:
	.uleb128 .LEHB2-.LFB12526
	.uleb128 .LEHE2-.LEHB2
	.uleb128 .L23-.LFB12526
	.uleb128 0
	.uleb128 .LEHB3-.LFB12526
	.uleb128 .LEHE3-.LEHB3
	.uleb128 0
	.uleb128 0
.LLSDACSE12526:
	.section	.text$_ZNSt4pairIKN3cpr21AcceptEncodingMethodsENSt7__cxx1112basic_stringIcSt11char_traitsIcESaIcEEEEC1IS1_RA8_KcLb1EEEOT_OT0_,"x"
	.linkonce discard
	.seh_endproc
	.section	.text$_ZNSt4pairIKN3cpr21AcceptEncodingMethodsENSt7__cxx1112basic_stringIcSt11char_traitsIcESaIcEEEEC1IS1_RA5_KcLb1EEEOT_OT0_,"x"
	.linkonce discard
	.align 2
	.globl	_ZNSt4pairIKN3cpr21AcceptEncodingMethodsENSt7__cxx1112basic_stringIcSt11char_traitsIcESaIcEEEEC1IS1_RA5_KcLb1EEEOT_OT0_
	.def	_ZNSt4pairIKN3cpr21AcceptEncodingMethodsENSt7__cxx1112basic_stringIcSt11char_traitsIcESaIcEEEEC1IS1_RA5_KcLb1EEEOT_OT0_;	.scl	2;	.type	32;	.endef
	.seh_proc	_ZNSt4pairIKN3cpr21AcceptEncodingMethodsENSt7__cxx1112basic_stringIcSt11char_traitsIcESaIcEEEEC1IS1_RA5_KcLb1EEEOT_OT0_
_ZNSt4pairIKN3cpr21AcceptEncodingMethodsENSt7__cxx1112basic_stringIcSt11char_traitsIcESaIcEEEEC1IS1_RA5_KcLb1EEEOT_OT0_:
.LFB12529:
	pushq	%rbp
	.seh_pushreg	%rbp
	pushq	%rbx
	.seh_pushreg	%rbx
	subq	$56, %rsp
	.seh_stackalloc	56
	leaq	48(%rsp), %rbp
	.seh_setframe	%rbp, 48
	.seh_endprologue
	movq	%rcx, 32(%rbp)
	movq	%rdx, 40(%rbp)
	movq	%r8, 48(%rbp)
	movq	40(%rbp), %rax
	movq	%rax, %rcx
	call	_ZSt7forwardIN3cpr21AcceptEncodingMethodsEEOT_RNSt16remove_referenceIS2_E4typeE
	movl	(%rax), %edx
	movq	32(%rbp), %rax
	movl	%edx, (%rax)
	movq	32(%rbp), %rax
	leaq	8(%rax), %rbx
	leaq	-9(%rbp), %rax
	movq	%rax, -8(%rbp)
	nop
	nop
	movq	48(%rbp), %rax
	movq	%rax, %rcx
	call	_ZSt7forwardIRA5_KcEOT_RNSt16remove_referenceIS3_E4typeE
	leaq	-9(%rbp), %rdx
	movq	%rdx, %r8
	movq	%rax, %rdx
	movq	%rbx, %rcx
.LEHB4:
	call	_ZNSt7__cxx1112basic_stringIcSt11char_traitsIcESaIcEEC1IS3_EEPKcRKS3_
.LEHE4:
	leaq	-9(%rbp), %rax
	movq	%rax, %rcx
	call	_ZNSt15__new_allocatorIcED2Ev
	nop
	jmp	.L28
.L27:
	movq	%rax, %rbx
	leaq	-9(%rbp), %rax
	movq	%rax, %rcx
	call	_ZNSt15__new_allocatorIcED2Ev
	nop
	movq	%rbx, %rax
	movq	%rax, %rcx
.LEHB5:
	call	_Unwind_Resume
	nop
.LEHE5:
.L28:
	addq	$56, %rsp
	popq	%rbx
	popq	%rbp
	ret
	.seh_handler	__gxx_personality_seh0, @unwind, @except
	.seh_handlerdata
.LLSDA12529:
	.byte	0xff
	.byte	0xff
	.byte	0x1
	.uleb128 .LLSDACSE12529-.LLSDACSB12529
.LLSDACSB12529:
	.uleb128 .LEHB4-.LFB12529
	.uleb128 .LEHE4-.LEHB4
	.uleb128 .L27-.LFB12529
	.uleb128 0
	.uleb128 .LEHB5-.LFB12529
	.uleb128 .LEHE5-.LEHB5
	.uleb128 0
	.uleb128 0
.LLSDACSE12529:
	.section	.text$_ZNSt4pairIKN3cpr21AcceptEncodingMethodsENSt7__cxx1112basic_stringIcSt11char_traitsIcESaIcEEEEC1IS1_RA5_KcLb1EEEOT_OT0_,"x"
	.linkonce discard
	.seh_endproc
.lcomm _ZN3cprL30AcceptEncodingMethodsStringMapE,48,32
	.text
	.align 2
	.globl	_ZN3cpr11Interceptor7proceedERNS_7SessionE
	.def	_ZN3cpr11Interceptor7proceedERNS_7SessionE;	.scl	2;	.type	32;	.endef
	.seh_proc	_ZN3cpr11Interceptor7proceedERNS_7SessionE
_ZN3cpr11Interceptor7proceedERNS_7SessionE:
.LFB12940:
	pushq	%rbp
	.seh_pushreg	%rbp
	movq	%rsp, %rbp
	.seh_setframe	%rbp, 0
	subq	$32, %rsp
	.seh_stackalloc	32
	.seh_endprologue
	movq	%rcx, 16(%rbp)
	movq	%rdx, 24(%rbp)
	movq	16(%rbp), %rax
	movq	24(%rbp), %rdx
	movq	%rax, %rcx
	call	_ZN3cpr7Session7proceedEv
	movq	16(%rbp), %rax
	addq	$32, %rsp
	popq	%rbp
	ret
	.seh_endproc
	.section .rdata,"dr"
	.align 8
.LC0:
	.ascii "Can't proceed the session with the provided http method!\0"
	.text
	.align 2
	.globl	_ZN3cpr11Interceptor7proceedERNS_7SessionENS0_17ProceedHttpMethodE
	.def	_ZN3cpr11Interceptor7proceedERNS_7SessionENS0_17ProceedHttpMethodE;	.scl	2;	.type	32;	.endef
	.seh_proc	_ZN3cpr11Interceptor7proceedERNS_7SessionENS0_17ProceedHttpMethodE
_ZN3cpr11Interceptor7proceedERNS_7SessionENS0_17ProceedHttpMethodE:
.LFB12963:
	pushq	%rbp
	.seh_pushreg	%rbp
	pushq	%rsi
	.seh_pushreg	%rsi
	pushq	%rbx
	.seh_pushreg	%rbx
	subq	$32, %rsp
	.seh_stackalloc	32
	leaq	32(%rsp), %rbp
	.seh_setframe	%rbp, 32
	.seh_endprologue
	movq	%rcx, 32(%rbp)
	movq	%rdx, 40(%rbp)
	movl	%r8d, 48(%rbp)
	cmpl	$6, 48(%rbp)
	ja	.L32
	movl	48(%rbp), %eax
	leaq	0(,%rax,4), %rdx
	leaq	.L34(%rip), %rax
	movl	(%rdx,%rax), %eax
	cltq
	leaq	.L34(%rip), %rdx
	addq	%rdx, %rax
	jmp	*%rax
	.section .rdata,"dr"
	.align 4
.L34:
	.long	.L40-.L34
	.long	.L39-.L34
	.long	.L38-.L34
	.long	.L37-.L34
	.long	.L36-.L34
	.long	.L35-.L34
	.long	.L33-.L34
	.text
.L37:
	movq	32(%rbp), %rax
	movq	40(%rbp), %rdx
	movq	%rax, %rcx
.LEHB6:
	call	_ZN3cpr7Session6DeleteEv
	jmp	.L44
.L40:
	movq	32(%rbp), %rax
	movq	40(%rbp), %rdx
	movq	%rax, %rcx
	call	_ZN3cpr7Session3GetEv
	jmp	.L44
.L35:
	movq	32(%rbp), %rax
	movq	40(%rbp), %rdx
	movq	%rax, %rcx
	call	_ZN3cpr7Session4HeadEv
	jmp	.L44
.L33:
	movq	32(%rbp), %rax
	movq	40(%rbp), %rdx
	movq	%rax, %rcx
	call	_ZN3cpr7Session7OptionsEv
	jmp	.L44
.L36:
	movq	32(%rbp), %rax
	movq	40(%rbp), %rdx
	movq	%rax, %rcx
	call	_ZN3cpr7Session5PatchEv
	jmp	.L44
.L39:
	movq	32(%rbp), %rax
	movq	40(%rbp), %rdx
	movq	%rax, %rcx
	call	_ZN3cpr7Session4PostEv
	jmp	.L44
.L38:
	movq	32(%rbp), %rax
	movq	40(%rbp), %rdx
	movq	%rax, %rcx
	call	_ZN3cpr7Session3PutEv
.LEHE6:
	jmp	.L44
.L32:
	movl	$16, %ecx
	call	__cxa_allocate_exception
	movq	%rax, %rbx
	leaq	.LC0(%rip), %rax
	movq	%rax, %rdx
	movq	%rbx, %rcx
.LEHB7:
	call	_ZNSt16invalid_argumentC1EPKc
.LEHE7:
	movq	.refptr._ZNSt16invalid_argumentD1Ev(%rip), %r8
	leaq	_ZTISt16invalid_argument(%rip), %rax
	movq	%rax, %rdx
	movq	%rbx, %rcx
.LEHB8:
	call	__cxa_throw
.L43:
	movq	%rax, %rsi
	movq	%rbx, %rcx
	call	__cxa_free_exception
	movq	%rsi, %rax
	movq	%rax, %rcx
	call	_Unwind_Resume
.LEHE8:
.L44:
	movq	32(%rbp), %rax
	addq	$32, %rsp
	popq	%rbx
	popq	%rsi
	popq	%rbp
	ret
	.seh_handler	__gxx_personality_seh0, @unwind, @except
	.seh_handlerdata
.LLSDA12963:
	.byte	0xff
	.byte	0xff
	.byte	0x1
	.uleb128 .LLSDACSE12963-.LLSDACSB12963
.LLSDACSB12963:
	.uleb128 .LEHB6-.LFB12963
	.uleb128 .LEHE6-.LEHB6
	.uleb128 0
	.uleb128 0
	.uleb128 .LEHB7-.LFB12963
	.uleb128 .LEHE7-.LEHB7
	.uleb128 .L43-.LFB12963
	.uleb128 0
	.uleb128 .LEHB8-.LFB12963
	.uleb128 .LEHE8-.LEHB8
	.uleb128 0
	.uleb128 0
.LLSDACSE12963:
	.text
	.seh_endproc
	.section .rdata,"dr"
	.align 8
.LC1:
	.ascii "std::ofstream argument is only valid for ProceedHttpMethod::DOWNLOAD_FILE!\0"
	.text
	.align 2
	.globl	_ZN3cpr11Interceptor7proceedERNS_7SessionENS0_17ProceedHttpMethodERSt14basic_ofstreamIcSt11char_traitsIcEE
	.def	_ZN3cpr11Interceptor7proceedERNS_7SessionENS0_17ProceedHttpMethodERSt14basic_ofstreamIcSt11char_traitsIcEE;	.scl	2;	.type	32;	.endef
	.seh_proc	_ZN3cpr11Interceptor7proceedERNS_7SessionENS0_17ProceedHttpMethodERSt14basic_ofstreamIcSt11char_traitsIcEE
_ZN3cpr11Interceptor7proceedERNS_7SessionENS0_17ProceedHttpMethodERSt14basic_ofstreamIcSt11char_traitsIcEE:
.LFB12964:
	pushq	%rbp
	.seh_pushreg	%rbp
	pushq	%rsi
	.seh_pushreg	%rsi
	pushq	%rbx
	.seh_pushreg	%rbx
	subq	$32, %rsp
	.seh_stackalloc	32
	leaq	32(%rsp), %rbp
	.seh_setframe	%rbp, 32
	.seh_endprologue
	movq	%rcx, 32(%rbp)
	movq	%rdx, 40(%rbp)
	movl	%r8d, 48(%rbp)
	movq	%r9, 56(%rbp)
	cmpl	$8, 48(%rbp)
	jne	.L46
	movq	32(%rbp), %rax
	movq	56(%rbp), %rcx
	movq	40(%rbp), %rdx
	movq	%rcx, %r8
	movq	%rax, %rcx
.LEHB9:
	call	_ZN3cpr7Session8DownloadERSt14basic_ofstreamIcSt11char_traitsIcEE
.LEHE9:
	jmp	.L50
.L46:
	movl	$16, %ecx
	call	__cxa_allocate_exception
	movq	%rax, %rbx
	leaq	.LC1(%rip), %rax
	movq	%rax, %rdx
	movq	%rbx, %rcx
.LEHB10:
	call	_ZNSt16invalid_argumentC1EPKc
.LEHE10:
	movq	.refptr._ZNSt16invalid_argumentD1Ev(%rip), %r8
	leaq	_ZTISt16invalid_argument(%rip), %rax
	movq	%rax, %rdx
	movq	%rbx, %rcx
.LEHB11:
	call	__cxa_throw
.L49:
	movq	%rax, %rsi
	movq	%rbx, %rcx
	call	__cxa_free_exception
	movq	%rsi, %rax
	movq	%rax, %rcx
	call	_Unwind_Resume
.LEHE11:
.L50:
	movq	32(%rbp), %rax
	addq	$32, %rsp
	popq	%rbx
	popq	%rsi
	popq	%rbp
	ret
	.seh_handler	__gxx_personality_seh0, @unwind, @except
	.seh_handlerdata
.LLSDA12964:
	.byte	0xff
	.byte	0xff
	.byte	0x1
	.uleb128 .LLSDACSE12964-.LLSDACSB12964
.LLSDACSB12964:
	.uleb128 .LEHB9-.LFB12964
	.uleb128 .LEHE9-.LEHB9
	.uleb128 0
	.uleb128 0
	.uleb128 .LEHB10-.LFB12964
	.uleb128 .LEHE10-.LEHB10
	.uleb128 .L49-.LFB12964
	.uleb128 0
	.uleb128 .LEHB11-.LFB12964
	.uleb128 .LEHE11-.LEHB11
	.uleb128 0
	.uleb128 0
.LLSDACSE12964:
	.text
	.seh_endproc
	.section .rdata,"dr"
	.align 8
.LC2:
	.ascii "WriteCallback argument is only valid for ProceedHttpMethod::DOWNLOAD_CALLBACK!\0"
	.text
	.align 2
	.globl	_ZN3cpr11Interceptor7proceedERNS_7SessionENS0_17ProceedHttpMethodERKNS_13WriteCallbackE
	.def	_ZN3cpr11Interceptor7proceedERNS_7SessionENS0_17ProceedHttpMethodERKNS_13WriteCallbackE;	.scl	2;	.type	32;	.endef
	.seh_proc	_ZN3cpr11Interceptor7proceedERNS_7SessionENS0_17ProceedHttpMethodERKNS_13WriteCallbackE
_ZN3cpr11Interceptor7proceedERNS_7SessionENS0_17ProceedHttpMethodERKNS_13WriteCallbackE:
.LFB12965:
	pushq	%rbp
	.seh_pushreg	%rbp
	pushq	%rsi
	.seh_pushreg	%rsi
	pushq	%rbx
	.seh_pushreg	%rbx
	subq	$32, %rsp
	.seh_stackalloc	32
	leaq	32(%rsp), %rbp
	.seh_setframe	%rbp, 32
	.seh_endprologue
	movq	%rcx, 32(%rbp)
	movq	%rdx, 40(%rbp)
	movl	%r8d, 48(%rbp)
	movq	%r9, 56(%rbp)
	cmpl	$7, 48(%rbp)
	jne	.L52
	movq	32(%rbp), %rax
	movq	56(%rbp), %rcx
	movq	40(%rbp), %rdx
	movq	%rcx, %r8
	movq	%rax, %rcx
.LEHB12:
	call	_ZN3cpr7Session8DownloadERKNS_13WriteCallbackE
.LEHE12:
	jmp	.L56
.L52:
	movl	$16, %ecx
	call	__cxa_allocate_exception
	movq	%rax, %rbx
	leaq	.LC2(%rip), %rax
	movq	%rax, %rdx
	movq	%rbx, %rcx
.LEHB13:
	call	_ZNSt16invalid_argumentC1EPKc
.LEHE13:
	movq	.refptr._ZNSt16invalid_argumentD1Ev(%rip), %r8
	leaq	_ZTISt16invalid_argument(%rip), %rax
	movq	%rax, %rdx
	movq	%rbx, %rcx
.LEHB14:
	call	__cxa_throw
.L55:
	movq	%rax, %rsi
	movq	%rbx, %rcx
	call	__cxa_free_exception
	movq	%rsi, %rax
	movq	%rax, %rcx
	call	_Unwind_Resume
.LEHE14:
.L56:
	movq	32(%rbp), %rax
	addq	$32, %rsp
	popq	%rbx
	popq	%rsi
	popq	%rbp
	ret
	.seh_handler	__gxx_personality_seh0, @unwind, @except
	.seh_handlerdata
.LLSDA12965:
	.byte	0xff
	.byte	0xff
	.byte	0x1
	.uleb128 .LLSDACSE12965-.LLSDACSB12965
.LLSDACSB12965:
	.uleb128 .LEHB12-.LFB12965
	.uleb128 .LEHE12-.LEHB12
	.uleb128 0
	.uleb128 0
	.uleb128 .LEHB13-.LFB12965
	.uleb128 .LEHE13-.LEHB13
	.uleb128 .L55-.LFB12965
	.uleb128 0
	.uleb128 .LEHB14-.LFB12965
	.uleb128 .LEHE14-.LEHB14
	.uleb128 0
	.uleb128 0
.LLSDACSE12965:
	.text
	.seh_endproc
	.align 2
	.globl	_ZN3cpr16InterceptorMulti7proceedERNS_12MultiPerformE
	.def	_ZN3cpr16InterceptorMulti7proceedERNS_12MultiPerformE;	.scl	2;	.type	32;	.endef
	.seh_proc	_ZN3cpr16InterceptorMulti7proceedERNS_12MultiPerformE
_ZN3cpr16InterceptorMulti7proceedERNS_12MultiPerformE:
.LFB12966:
	pushq	%rbp
	.seh_pushreg	%rbp
	movq	%rsp, %rbp
	.seh_setframe	%rbp, 0
	subq	$32, %rsp
	.seh_stackalloc	32
	.seh_endprologue
	movq	%rcx, 16(%rbp)
	movq	%rdx, 24(%rbp)
	movq	16(%rbp), %rax
	movq	24(%rbp), %rdx
	movq	%rax, %rcx
	call	_ZN3cpr12MultiPerform7proceedEv
	movq	16(%rbp), %rax
	addq	$32, %rsp
	popq	%rbp
	ret
	.seh_endproc
	.section	.text$_ZN3cpr13WriteCallbackC1ERKS0_,"x"
	.linkonce discard
	.align 2
	.globl	_ZN3cpr13WriteCallbackC1ERKS0_
	.def	_ZN3cpr13WriteCallbackC1ERKS0_;	.scl	2;	.type	32;	.endef
	.seh_proc	_ZN3cpr13WriteCallbackC1ERKS0_
_ZN3cpr13WriteCallbackC1ERKS0_:
.LFB12970:
	pushq	%rbp
	.seh_pushreg	%rbp
	movq	%rsp, %rbp
	.seh_setframe	%rbp, 0
	subq	$32, %rsp
	.seh_stackalloc	32
	.seh_endprologue
	movq	%rcx, 16(%rbp)
	movq	%rdx, 24(%rbp)
	movq	24(%rbp), %rax
	movq	(%rax), %rdx
	movq	16(%rbp), %rax
	movq	%rdx, (%rax)
	movq	16(%rbp), %rax
	addq	$8, %rax
	movq	24(%rbp), %rdx
	addq	$8, %rdx
	movq	%rax, %rcx
	call	_ZNSt8functionIFbNSt7__cxx1112basic_stringIcSt11char_traitsIcESaIcEEExEEC1ERKS7_
	nop
	addq	$32, %rsp
	popq	%rbp
	ret
	.seh_endproc
	.section	.text$_ZN3cpr13WriteCallbackD1Ev,"x"
	.linkonce discard
	.align 2
	.globl	_ZN3cpr13WriteCallbackD1Ev
	.def	_ZN3cpr13WriteCallbackD1Ev;	.scl	2;	.type	32;	.endef
	.seh_proc	_ZN3cpr13WriteCallbackD1Ev
_ZN3cpr13WriteCallbackD1Ev:
.LFB12973:
	pushq	%rbp
	.seh_pushreg	%rbp
	movq	%rsp, %rbp
	.seh_setframe	%rbp, 0
	subq	$32, %rsp
	.seh_stackalloc	32
	.seh_endprologue
	movq	%rcx, 16(%rbp)
	movq	16(%rbp), %rax
	addq	$8, %rax
	movq	%rax, %rcx
	call	_ZNSt8functionIFbNSt7__cxx1112basic_stringIcSt11char_traitsIcESaIcEEExEED1Ev
	nop
	addq	$32, %rsp
	popq	%rbp
	ret
	.seh_endproc
	.text
	.align 2
	.globl	_ZN3cpr16InterceptorMulti22PrepareDownloadSessionERNS_12MultiPerformEyRKNS_13WriteCallbackE
	.def	_ZN3cpr16InterceptorMulti22PrepareDownloadSessionERNS_12MultiPerformEyRKNS_13WriteCallbackE;	.scl	2;	.type	32;	.endef
	.seh_proc	_ZN3cpr16InterceptorMulti22PrepareDownloadSessionERNS_12MultiPerformEyRKNS_13WriteCallbackE
_ZN3cpr16InterceptorMulti22PrepareDownloadSessionERNS_12MultiPerformEyRKNS_13WriteCallbackE:
.LFB12967:
	pushq	%rbp
	.seh_pushreg	%rbp
	pushq	%rbx
	.seh_pushreg	%rbx
	subq	$88, %rsp
	.seh_stackalloc	88
	leaq	80(%rsp), %rbp
	.seh_setframe	%rbp, 80
	.seh_endprologue
	movq	%rcx, 32(%rbp)
	movq	%rdx, 40(%rbp)
	movq	%r8, 48(%rbp)
	movq	48(%rbp), %rdx
	leaq	-48(%rbp), %rax
	movq	%rax, %rcx
.LEHB15:
	call	_ZN3cpr13WriteCallbackC1ERKS0_
.LEHE15:
	leaq	-48(%rbp), %rcx
	movq	40(%rbp), %rdx
	movq	32(%rbp), %rax
	movq	%rcx, %r8
	movq	%rax, %rcx
.LEHB16:
	call	_ZN3cpr12MultiPerform23PrepareDownloadSessionsINS_13WriteCallbackEEEvyT_
.LEHE16:
	leaq	-48(%rbp), %rax
	movq	%rax, %rcx
	call	_ZN3cpr13WriteCallbackD1Ev
	jmp	.L64
.L63:
	movq	%rax, %rbx
	leaq	-48(%rbp), %rax
	movq	%rax, %rcx
	call	_ZN3cpr13WriteCallbackD1Ev
	movq	%rbx, %rax
	movq	%rax, %rcx
.LEHB17:
	call	_Unwind_Resume
	nop
.LEHE17:
.L64:
	addq	$88, %rsp
	popq	%rbx
	popq	%rbp
	ret
	.seh_handler	__gxx_personality_seh0, @unwind, @except
	.seh_handlerdata
.LLSDA12967:
	.byte	0xff
	.byte	0xff
	.byte	0x1
	.uleb128 .LLSDACSE12967-.LLSDACSB12967
.LLSDACSB12967:
	.uleb128 .LEHB15-.LFB12967
	.uleb128 .LEHE15-.LEHB15
	.uleb128 0
	.uleb128 0
	.uleb128 .LEHB16-.LFB12967
	.uleb128 .LEHE16-.LEHB16
	.uleb128 .L63-.LFB12967
	.uleb128 0
	.uleb128 .LEHB17-.LFB12967
	.uleb128 .LEHE17-.LEHB17
	.uleb128 0
	.uleb128 0
.LLSDACSE12967:
	.text
	.seh_endproc
	.section	.text$_ZN9__gnu_cxx11char_traitsIcE6lengthEPKc,"x"
	.linkonce discard
	.align 2
	.globl	_ZN9__gnu_cxx11char_traitsIcE6lengthEPKc
	.def	_ZN9__gnu_cxx11char_traitsIcE6lengthEPKc;	.scl	2;	.type	32;	.endef
	.seh_proc	_ZN9__gnu_cxx11char_traitsIcE6lengthEPKc
_ZN9__gnu_cxx11char_traitsIcE6lengthEPKc:
.LFB12981:
	pushq	%rbp
	.seh_pushreg	%rbp
	movq	%rsp, %rbp
	.seh_setframe	%rbp, 0
	subq	$48, %rsp
	.seh_stackalloc	48
	.seh_endprologue
	movq	%rcx, 16(%rbp)
	movq	$0, -8(%rbp)
	jmp	.L66
.L67:
	addq	$1, -8(%rbp)
.L66:
	movb	$0, -9(%rbp)
	movq	16(%rbp), %rdx
	movq	-8(%rbp), %rax
	leaq	(%rdx,%rax), %rcx
	leaq	-9(%rbp), %rax
	movq	%rax, %rdx
	call	_ZN9__gnu_cxx11char_traitsIcE2eqERKcS3_
	xorl	$1, %eax
	testb	%al, %al
	jne	.L67
	movq	-8(%rbp), %rax
	addq	$48, %rsp
	popq	%rbp
	ret
	.seh_endproc
	.section	.text$_ZNSt7__cxx1112basic_stringIcSt11char_traitsIcESaIcEE12_Alloc_hiderD1Ev,"x"
	.linkonce discard
	.align 2
	.globl	_ZNSt7__cxx1112basic_stringIcSt11char_traitsIcESaIcEE12_Alloc_hiderD1Ev
	.def	_ZNSt7__cxx1112basic_stringIcSt11char_traitsIcESaIcEE12_Alloc_hiderD1Ev;	.scl	2;	.type	32;	.endef
	.seh_proc	_ZNSt7__cxx1112basic_stringIcSt11char_traitsIcESaIcEE12_Alloc_hiderD1Ev
_ZNSt7__cxx1112basic_stringIcSt11char_traitsIcESaIcEE12_Alloc_hiderD1Ev:
.LFB13078:
	pushq	%rbp
	.seh_pushreg	%rbp
	movq	%rsp, %rbp
	.seh_setframe	%rbp, 0
	subq	$48, %rsp
	.seh_stackalloc	48
	.seh_endprologue
	movq	%rcx, 16(%rbp)
	movq	16(%rbp), %rax
	movq	%rax, -8(%rbp)
	movq	-8(%rbp), %rax
	movq	%rax, %rcx
	call	_ZNSt15__new_allocatorIcED2Ev
	nop
	nop
	addq	$48, %rsp
	popq	%rbp
	ret
	.seh_endproc
	.section .rdata,"dr"
	.align 8
.LC3:
	.ascii "basic_string: construction from null is not valid\0"
	.section	.text$_ZNSt7__cxx1112basic_stringIcSt11char_traitsIcESaIcEEC1IS3_EEPKcRKS3_,"x"
	.linkonce discard
	.align 2
	.globl	_ZNSt7__cxx1112basic_stringIcSt11char_traitsIcESaIcEEC1IS3_EEPKcRKS3_
	.def	_ZNSt7__cxx1112basic_stringIcSt11char_traitsIcESaIcEEC1IS3_EEPKcRKS3_;	.scl	2;	.type	32;	.endef
	.seh_proc	_ZNSt7__cxx1112basic_stringIcSt11char_traitsIcESaIcEEC1IS3_EEPKcRKS3_
_ZNSt7__cxx1112basic_stringIcSt11char_traitsIcESaIcEEC1IS3_EEPKcRKS3_:
.LFB13371:
	pushq	%rbp
	.seh_pushreg	%rbp
	pushq	%rsi
	.seh_pushreg	%rsi
	pushq	%rbx
	.seh_pushreg	%rbx
	subq	$48, %rsp
	.seh_stackalloc	48
	leaq	48(%rsp), %rbp
	.seh_setframe	%rbp, 48
	.seh_endprologue
	movq	%rcx, 32(%rbp)
	movq	%rdx, 40(%rbp)
	movq	%r8, 48(%rbp)
	movq	32(%rbp), %rbx
	movq	32(%rbp), %rax
	movq	%rax, %rcx
	call	_ZNSt7__cxx1112basic_stringIcSt11char_traitsIcESaIcEE13_M_local_dataEv
	movq	48(%rbp), %rdx
	movq	%rdx, %r8
	movq	%rax, %rdx
	movq	%rbx, %rcx
	call	_ZNSt7__cxx1112basic_stringIcSt11char_traitsIcESaIcEE12_Alloc_hiderC1EPcRKS3_
	cmpq	$0, 40(%rbp)
	jne	.L71
	leaq	.LC3(%rip), %rax
	movq	%rax, %rcx
.LEHB18:
	call	_ZSt19__throw_logic_errorPKc
.L71:
	movq	40(%rbp), %rax
	movq	%rax, %rcx
	call	_ZNSt11char_traitsIcE6lengthEPKc
	movq	40(%rbp), %rdx
	addq	%rdx, %rax
	movq	%rax, -8(%rbp)
	movq	-8(%rbp), %rcx
	movq	40(%rbp), %rdx
	movq	32(%rbp), %rax
	movl	%esi, %r9d
	movq	%rcx, %r8
	movq	%rax, %rcx
	call	_ZNSt7__cxx1112basic_stringIcSt11char_traitsIcESaIcEE12_M_constructIPKcEEvT_S8_St20forward_iterator_tag
.LEHE18:
	jmp	.L74
.L73:
	movq	%rax, %rbx
	movq	32(%rbp), %rax
	movq	%rax, %rcx
	call	_ZNSt7__cxx1112basic_stringIcSt11char_traitsIcESaIcEE12_Alloc_hiderD1Ev
	movq	%rbx, %rax
	movq	%rax, %rcx
.LEHB19:
	call	_Unwind_Resume
	nop
.LEHE19:
.L74:
	addq	$48, %rsp
	popq	%rbx
	popq	%rsi
	popq	%rbp
	ret
	.seh_handler	__gxx_personality_seh0, @unwind, @except
	.seh_handlerdata
.LLSDA13371:
	.byte	0xff
	.byte	0xff
	.byte	0x1
	.uleb128 .LLSDACSE13371-.LLSDACSB13371
.LLSDACSB13371:
	.uleb128 .LEHB18-.LFB13371
	.uleb128 .LEHE18-.LEHB18
	.uleb128 .L73-.LFB13371
	.uleb128 0
	.uleb128 .LEHB19-.LFB13371
	.uleb128 .LEHE19-.LEHB19
	.uleb128 0
	.uleb128 0
.LLSDACSE13371:
	.section	.text$_ZNSt7__cxx1112basic_stringIcSt11char_traitsIcESaIcEEC1IS3_EEPKcRKS3_,"x"
	.linkonce discard
	.seh_endproc
	.section	.text$_ZNSt14_Function_baseC2Ev,"x"
	.linkonce discard
	.align 2
	.globl	_ZNSt14_Function_baseC2Ev
	.def	_ZNSt14_Function_baseC2Ev;	.scl	2;	.type	32;	.endef
	.seh_proc	_ZNSt14_Function_baseC2Ev
_ZNSt14_Function_baseC2Ev:
.LFB13491:
	pushq	%rbp
	.seh_pushreg	%rbp
	movq	%rsp, %rbp
	.seh_setframe	%rbp, 0
	.seh_endprologue
	movq	%rcx, 16(%rbp)
	movq	16(%rbp), %rax
	movq	$0, (%rax)
	movq	$0, 8(%rax)
	movq	16(%rbp), %rax
	movq	$0, 16(%rax)
	nop
	popq	%rbp
	ret
	.seh_endproc
	.section	.text$_ZSt7forwardIN3cpr21AcceptEncodingMethodsEEOT_RNSt16remove_referenceIS2_E4typeE,"x"
	.linkonce discard
	.globl	_ZSt7forwardIN3cpr21AcceptEncodingMethodsEEOT_RNSt16remove_referenceIS2_E4typeE
	.def	_ZSt7forwardIN3cpr21AcceptEncodingMethodsEEOT_RNSt16remove_referenceIS2_E4typeE;	.scl	2;	.type	32;	.endef
	.seh_proc	_ZSt7forwardIN3cpr21AcceptEncodingMethodsEEOT_RNSt16remove_referenceIS2_E4typeE
_ZSt7forwardIN3cpr21AcceptEncodingMethodsEEOT_RNSt16remove_referenceIS2_E4typeE:
.LFB13717:
	pushq	%rbp
	.seh_pushreg	%rbp
	movq	%rsp, %rbp
	.seh_setframe	%rbp, 0
	.seh_endprologue
	movq	%rcx, 16(%rbp)
	movq	16(%rbp), %rax
	popq	%rbp
	ret
	.seh_endproc
	.section	.text$_ZSt7forwardIRA9_KcEOT_RNSt16remove_referenceIS3_E4typeE,"x"
	.linkonce discard
	.globl	_ZSt7forwardIRA9_KcEOT_RNSt16remove_referenceIS3_E4typeE
	.def	_ZSt7forwardIRA9_KcEOT_RNSt16remove_referenceIS3_E4typeE;	.scl	2;	.type	32;	.endef
	.seh_proc	_ZSt7forwardIRA9_KcEOT_RNSt16remove_referenceIS3_E4typeE
_ZSt7forwardIRA9_KcEOT_RNSt16remove_referenceIS3_E4typeE:
.LFB13718:
	pushq	%rbp
	.seh_pushreg	%rbp
	movq	%rsp, %rbp
	.seh_setframe	%rbp, 0
	.seh_endprologue
	movq	%rcx, 16(%rbp)
	movq	16(%rbp), %rax
	popq	%rbp
	ret
	.seh_endproc
	.section	.text$_ZSt7forwardIRA8_KcEOT_RNSt16remove_referenceIS3_E4typeE,"x"
	.linkonce discard
	.globl	_ZSt7forwardIRA8_KcEOT_RNSt16remove_referenceIS3_E4typeE
	.def	_ZSt7forwardIRA8_KcEOT_RNSt16remove_referenceIS3_E4typeE;	.scl	2;	.type	32;	.endef
	.seh_proc	_ZSt7forwardIRA8_KcEOT_RNSt16remove_referenceIS3_E4typeE
_ZSt7forwardIRA8_KcEOT_RNSt16remove_referenceIS3_E4typeE:
.LFB13719:
	pushq	%rbp
	.seh_pushreg	%rbp
	movq	%rsp, %rbp
	.seh_setframe	%rbp, 0
	.seh_endprologue
	movq	%rcx, 16(%rbp)
	movq	16(%rbp), %rax
	popq	%rbp
	ret
	.seh_endproc
	.section	.text$_ZSt7forwardIRA5_KcEOT_RNSt16remove_referenceIS3_E4typeE,"x"
	.linkonce discard
	.globl	_ZSt7forwardIRA5_KcEOT_RNSt16remove_referenceIS3_E4typeE
	.def	_ZSt7forwardIRA5_KcEOT_RNSt16remove_referenceIS3_E4typeE;	.scl	2;	.type	32;	.endef
	.seh_proc	_ZSt7forwardIRA5_KcEOT_RNSt16remove_referenceIS3_E4typeE
_ZSt7forwardIRA5_KcEOT_RNSt16remove_referenceIS3_E4typeE:
.LFB13720:
	pushq	%rbp
	.seh_pushreg	%rbp
	movq	%rsp, %rbp
	.seh_setframe	%rbp, 0
	.seh_endprologue
	movq	%rcx, 16(%rbp)
	movq	16(%rbp), %rax
	popq	%rbp
	ret
	.seh_endproc
	.section	.text$_ZNSt3mapIN3cpr21AcceptEncodingMethodsENSt7__cxx1112basic_stringIcSt11char_traitsIcESaIcEEESt4lessIS1_ESaISt4pairIKS1_S7_EEEC1ESt16initializer_listISC_ERKS9_RKSD_,"x"
	.linkonce discard
	.align 2
	.globl	_ZNSt3mapIN3cpr21AcceptEncodingMethodsENSt7__cxx1112basic_stringIcSt11char_traitsIcESaIcEEESt4lessIS1_ESaISt4pairIKS1_S7_EEEC1ESt16initializer_listISC_ERKS9_RKSD_
	.def	_ZNSt3mapIN3cpr21AcceptEncodingMethodsENSt7__cxx1112basic_stringIcSt11char_traitsIcESaIcEEESt4lessIS1_ESaISt4pairIKS1_S7_EEEC1ESt16initializer_listISC_ERKS9_RKSD_;	.scl	2;	.type	32;	.endef
	.seh_proc	_ZNSt3mapIN3cpr21AcceptEncodingMethodsENSt7__cxx1112basic_stringIcSt11char_traitsIcESaIcEEESt4lessIS1_ESaISt4pairIKS1_S7_EEEC1ESt16initializer_listISC_ERKS9_RKSD_
_ZNSt3mapIN3cpr21AcceptEncodingMethodsENSt7__cxx1112basic_stringIcSt11char_traitsIcESaIcEEESt4lessIS1_ESaISt4pairIKS1_S7_EEEC1ESt16initializer_listISC_ERKS9_RKSD_:
.LFB13729:
	pushq	%rbp
	.seh_pushreg	%rbp
	pushq	%rsi
	.seh_pushreg	%rsi
	pushq	%rbx
	.seh_pushreg	%rbx
	subq	$80, %rsp
	.seh_stackalloc	80
	leaq	80(%rsp), %rbp
	.seh_setframe	%rbp, 80
	.seh_endprologue
	movq	%rcx, 32(%rbp)
	movq	%rdx, %rbx
	movq	(%rbx), %rax
	movq	8(%rbx), %rdx
	movq	%rax, -48(%rbp)
	movq	%rdx, -40(%rbp)
	movq	%r8, 48(%rbp)
	movq	%r9, 56(%rbp)
	movq	32(%rbp), %rax
	movq	56(%rbp), %rdx
	movq	%rdx, -8(%rbp)
	leaq	-25(%rbp), %rdx
	movq	%rdx, -16(%rbp)
	movq	-8(%rbp), %rdx
	movq	%rdx, -24(%rbp)
	nop
	nop
	leaq	-25(%rbp), %rcx
	movq	48(%rbp), %rdx
	movq	%rcx, %r8
	movq	%rax, %rcx
.LEHB20:
	call	_ZNSt8_Rb_treeIN3cpr21AcceptEncodingMethodsESt4pairIKS1_NSt7__cxx1112basic_stringIcSt11char_traitsIcESaIcEEEESt10_Select1stISA_ESt4lessIS1_ESaISA_EEC1ERKSE_RKSF_
.LEHE20:
	leaq	-25(%rbp), %rax
	movq	%rax, %rcx
	call	_ZNSt15__new_allocatorISt4pairIKN3cpr21AcceptEncodingMethodsENSt7__cxx1112basic_stringIcSt11char_traitsIcESaIcEEEEED2Ev
	nop
	movq	32(%rbp), %rbx
	leaq	-48(%rbp), %rax
	movq	%rax, %rcx
	call	_ZNKSt16initializer_listISt4pairIKN3cpr21AcceptEncodingMethodsENSt7__cxx1112basic_stringIcSt11char_traitsIcESaIcEEEEE3endEv
	movq	%rax, %rsi
	leaq	-48(%rbp), %rax
	movq	%rax, %rcx
	call	_ZNKSt16initializer_listISt4pairIKN3cpr21AcceptEncodingMethodsENSt7__cxx1112basic_stringIcSt11char_traitsIcESaIcEEEEE5beginEv
	movq	%rsi, %r8
	movq	%rax, %rdx
	movq	%rbx, %rcx
.LEHB21:
	call	_ZNSt8_Rb_treeIN3cpr21AcceptEncodingMethodsESt4pairIKS1_NSt7__cxx1112basic_stringIcSt11char_traitsIcESaIcEEEESt10_Select1stISA_ESt4lessIS1_ESaISA_EE22_M_insert_range_uniqueIPKSA_EENSt9enable_ifIXsrSt7is_sameISA_NSt15iterator_traitsIT_E10value_typeEE5valueEvE4typeESN_SN_
.LEHE21:
	jmp	.L89
.L87:
	movq	%rax, %rbx
	leaq	-25(%rbp), %rax
	movq	%rax, %rcx
	call	_ZNSt15__new_allocatorISt4pairIKN3cpr21AcceptEncodingMethodsENSt7__cxx1112basic_stringIcSt11char_traitsIcESaIcEEEEED2Ev
	nop
	movq	%rbx, %rax
	movq	%rax, %rcx
.LEHB22:
	call	_Unwind_Resume
.L88:
	movq	%rax, %rbx
	movq	32(%rbp), %rax
	movq	%rax, %rcx
	call	_ZNSt8_Rb_treeIN3cpr21AcceptEncodingMethodsESt4pairIKS1_NSt7__cxx1112basic_stringIcSt11char_traitsIcESaIcEEEESt10_Select1stISA_ESt4lessIS1_ESaISA_EED1Ev
	movq	%rbx, %rax
	movq	%rax, %rcx
	call	_Unwind_Resume
	nop
.LEHE22:
.L89:
	addq	$80, %rsp
	popq	%rbx
	popq	%rsi
	popq	%rbp
	ret
	.seh_handler	__gxx_personality_seh0, @unwind, @except
	.seh_handlerdata
.LLSDA13729:
	.byte	0xff
	.byte	0xff
	.byte	0x1
	.uleb128 .LLSDACSE13729-.LLSDACSB13729
.LLSDACSB13729:
	.uleb128 .LEHB20-.LFB13729
	.uleb128 .LEHE20-.LEHB20
	.uleb128 .L87-.LFB13729
	.uleb128 0
	.uleb128 .LEHB21-.LFB13729
	.uleb128 .LEHE21-.LEHB21
	.uleb128 .L88-.LFB13729
	.uleb128 0
	.uleb128 .LEHB22-.LFB13729
	.uleb128 .LEHE22-.LEHB22
	.uleb128 0
	.uleb128 0
.LLSDACSE13729:
	.section	.text$_ZNSt3mapIN3cpr21AcceptEncodingMethodsENSt7__cxx1112basic_stringIcSt11char_traitsIcESaIcEEESt4lessIS1_ESaISt4pairIKS1_S7_EEEC1ESt16initializer_listISC_ERKS9_RKSD_,"x"
	.linkonce discard
	.seh_endproc
	.section	.text$_ZNSt8functionIFbNSt7__cxx1112basic_stringIcSt11char_traitsIcESaIcEEExEEC1ERKS7_,"x"
	.linkonce discard
	.align 2
	.globl	_ZNSt8functionIFbNSt7__cxx1112basic_stringIcSt11char_traitsIcESaIcEEExEEC1ERKS7_
	.def	_ZNSt8functionIFbNSt7__cxx1112basic_stringIcSt11char_traitsIcESaIcEEExEEC1ERKS7_;	.scl	2;	.type	32;	.endef
	.seh_proc	_ZNSt8functionIFbNSt7__cxx1112basic_stringIcSt11char_traitsIcESaIcEEExEEC1ERKS7_
_ZNSt8functionIFbNSt7__cxx1112basic_stringIcSt11char_traitsIcESaIcEEExEEC1ERKS7_:
.LFB13892:
	pushq	%rbp
	.seh_pushreg	%rbp
	pushq	%rbx
	.seh_pushreg	%rbx
	subq	$40, %rsp
	.seh_stackalloc	40
	leaq	32(%rsp), %rbp
	.seh_setframe	%rbp, 32
	.seh_endprologue
	movq	%rcx, 32(%rbp)
	movq	%rdx, 40(%rbp)
	movq	32(%rbp), %rax
	pxor	%xmm0, %xmm0
	movups	%xmm0, (%rax)
	movq	%xmm0, 16(%rax)
	movq	32(%rbp), %rax
	movq	%rax, %rcx
	call	_ZNSt14_Function_baseC2Ev
	movq	32(%rbp), %rax
	movq	$0, 24(%rax)
	movq	40(%rbp), %rax
	movq	%rax, %rcx
	call	_ZNKSt8functionIFbNSt7__cxx1112basic_stringIcSt11char_traitsIcESaIcEEExEEcvbEv
	testb	%al, %al
	je	.L94
	movq	40(%rbp), %rax
	movq	16(%rax), %r9
	movq	40(%rbp), %rdx
	movq	32(%rbp), %rax
	movl	$2, %r8d
	movq	%rax, %rcx
.LEHB23:
	call	*%r9
.LEHE23:
	movq	40(%rbp), %rax
	movq	24(%rax), %rdx
	movq	32(%rbp), %rax
	movq	%rdx, 24(%rax)
	movq	40(%rbp), %rax
	movq	16(%rax), %rdx
	movq	32(%rbp), %rax
	movq	%rdx, 16(%rax)
	jmp	.L94
.L93:
	movq	%rax, %rbx
	movq	32(%rbp), %rax
	movq	%rax, %rcx
	call	_ZNSt14_Function_baseD2Ev
	movq	%rbx, %rax
	movq	%rax, %rcx
.LEHB24:
	call	_Unwind_Resume
.LEHE24:
.L94:
	nop
	addq	$40, %rsp
	popq	%rbx
	popq	%rbp
	ret
	.seh_handler	__gxx_personality_seh0, @unwind, @except
	.seh_handlerdata
.LLSDA13892:
	.byte	0xff
	.byte	0xff
	.byte	0x1
	.uleb128 .LLSDACSE13892-.LLSDACSB13892
.LLSDACSB13892:
	.uleb128 .LEHB23-.LFB13892
	.uleb128 .LEHE23-.LEHB23
	.uleb128 .L93-.LFB13892
	.uleb128 0
	.uleb128 .LEHB24-.LFB13892
	.uleb128 .LEHE24-.LEHB24
	.uleb128 0
	.uleb128 0
.LLSDACSE13892:
	.section	.text$_ZNSt8functionIFbNSt7__cxx1112basic_stringIcSt11char_traitsIcESaIcEEExEEC1ERKS7_,"x"
	.linkonce discard
	.seh_endproc
	.section	.text$_ZN3cpr12MultiPerform23PrepareDownloadSessionsINS_13WriteCallbackEEEvyT_,"x"
	.linkonce discard
	.align 2
	.globl	_ZN3cpr12MultiPerform23PrepareDownloadSessionsINS_13WriteCallbackEEEvyT_
	.def	_ZN3cpr12MultiPerform23PrepareDownloadSessionsINS_13WriteCallbackEEEvyT_;	.scl	2;	.type	32;	.endef
	.seh_proc	_ZN3cpr12MultiPerform23PrepareDownloadSessionsINS_13WriteCallbackEEEvyT_
_ZN3cpr12MultiPerform23PrepareDownloadSessionsINS_13WriteCallbackEEEvyT_:
.LFB13893:
	pushq	%rbp
	.seh_pushreg	%rbp
	movq	%rsp, %rbp
	.seh_setframe	%rbp, 0
	subq	$32, %rsp
	.seh_stackalloc	32
	.seh_endprologue
	movq	%rcx, 16(%rbp)
	movq	%rdx, 24(%rbp)
	movq	%r8, 32(%rbp)
	movq	32(%rbp), %rcx
	movq	24(%rbp), %rdx
	movq	16(%rbp), %rax
	movq	%rcx, %r8
	movq	%rax, %rcx
	call	_ZN3cpr12MultiPerform22PrepareDownloadSessionEyRKNS_13WriteCallbackE
	nop
	addq	$32, %rsp
	popq	%rbp
	ret
	.seh_endproc
	.section	.text$_ZN9__gnu_cxx11char_traitsIcE2eqERKcS3_,"x"
	.linkonce discard
	.globl	_ZN9__gnu_cxx11char_traitsIcE2eqERKcS3_
	.def	_ZN9__gnu_cxx11char_traitsIcE2eqERKcS3_;	.scl	2;	.type	32;	.endef
	.seh_proc	_ZN9__gnu_cxx11char_traitsIcE2eqERKcS3_
_ZN9__gnu_cxx11char_traitsIcE2eqERKcS3_:
.LFB13904:
	pushq	%rbp
	.seh_pushreg	%rbp
	movq	%rsp, %rbp
	.seh_setframe	%rbp, 0
	.seh_endprologue
	movq	%rcx, 16(%rbp)
	movq	%rdx, 24(%rbp)
	movq	16(%rbp), %rax
	movzbl	(%rax), %edx
	movq	24(%rbp), %rax
	movzbl	(%rax), %eax
	cmpb	%al, %dl
	sete	%al
	popq	%rbp
	ret
	.seh_endproc
	.section	.text$_ZNSt15__new_allocatorIcED2Ev,"x"
	.linkonce discard
	.align 2
	.globl	_ZNSt15__new_allocatorIcED2Ev
	.def	_ZNSt15__new_allocatorIcED2Ev;	.scl	2;	.type	32;	.endef
	.seh_proc	_ZNSt15__new_allocatorIcED2Ev
_ZNSt15__new_allocatorIcED2Ev:
.LFB13958:
	pushq	%rbp
	.seh_pushreg	%rbp
	movq	%rsp, %rbp
	.seh_setframe	%rbp, 0
	.seh_endprologue
	movq	%rcx, 16(%rbp)
	nop
	popq	%rbp
	ret
	.seh_endproc
	.section	.text$_ZZNSt7__cxx1112basic_stringIcSt11char_traitsIcESaIcEE12_M_constructIPKcEEvT_S8_St20forward_iterator_tagEN6_GuardC1EPS4_,"x"
	.linkonce discard
	.align 2
	.globl	_ZZNSt7__cxx1112basic_stringIcSt11char_traitsIcESaIcEE12_M_constructIPKcEEvT_S8_St20forward_iterator_tagEN6_GuardC1EPS4_
	.def	_ZZNSt7__cxx1112basic_stringIcSt11char_traitsIcESaIcEE12_M_constructIPKcEEvT_S8_St20forward_iterator_tagEN6_GuardC1EPS4_;	.scl	2;	.type	32;	.endef
	.seh_proc	_ZZNSt7__cxx1112basic_stringIcSt11char_traitsIcESaIcEE12_M_constructIPKcEEvT_S8_St20forward_iterator_tagEN6_GuardC1EPS4_
_ZZNSt7__cxx1112basic_stringIcSt11char_traitsIcESaIcEE12_M_constructIPKcEEvT_S8_St20forward_iterator_tagEN6_GuardC1EPS4_:
.LFB13966:
	pushq	%rbp
	.seh_pushreg	%rbp
	movq	%rsp, %rbp
	.seh_setframe	%rbp, 0
	.seh_endprologue
	movq	%rcx, 16(%rbp)
	movq	%rdx, 24(%rbp)
	movq	16(%rbp), %rax
	movq	24(%rbp), %rdx
	movq	%rdx, (%rax)
	nop
	popq	%rbp
	ret
	.seh_endproc
	.section	.text$_ZZNSt7__cxx1112basic_stringIcSt11char_traitsIcESaIcEE12_M_constructIPKcEEvT_S8_St20forward_iterator_tagEN6_GuardD1Ev,"x"
	.linkonce discard
	.align 2
	.globl	_ZZNSt7__cxx1112basic_stringIcSt11char_traitsIcESaIcEE12_M_constructIPKcEEvT_S8_St20forward_iterator_tagEN6_GuardD1Ev
	.def	_ZZNSt7__cxx1112basic_stringIcSt11char_traitsIcESaIcEE12_M_constructIPKcEEvT_S8_St20forward_iterator_tagEN6_GuardD1Ev;	.scl	2;	.type	32;	.endef
	.seh_proc	_ZZNSt7__cxx1112basic_stringIcSt11char_traitsIcESaIcEE12_M_constructIPKcEEvT_S8_St20forward_iterator_tagEN6_GuardD1Ev
_ZZNSt7__cxx1112basic_stringIcSt11char_traitsIcESaIcEE12_M_constructIPKcEEvT_S8_St20forward_iterator_tagEN6_GuardD1Ev:
.LFB13969:
	pushq	%rbp
	.seh_pushreg	%rbp
	movq	%rsp, %rbp
	.seh_setframe	%rbp, 0
	subq	$32, %rsp
	.seh_stackalloc	32
	.seh_endprologue
	movq	%rcx, 16(%rbp)
	movq	16(%rbp), %rax
	movq	(%rax), %rax
	testq	%rax, %rax
	je	.L102
	movq	16(%rbp), %rax
	movq	(%rax), %rax
	movq	%rax, %rcx
	call	_ZNSt7__cxx1112basic_stringIcSt11char_traitsIcESaIcEE10_M_disposeEv
.L102:
	nop
	addq	$32, %rsp
	popq	%rbp
	ret
	.seh_handler	__gxx_personality_seh0, @unwind, @except
	.seh_handlerdata
.LLSDA13969:
	.byte	0xff
	.byte	0xff
	.byte	0x1
	.uleb128 .LLSDACSE13969-.LLSDACSB13969
.LLSDACSB13969:
.LLSDACSE13969:
	.section	.text$_ZZNSt7__cxx1112basic_stringIcSt11char_traitsIcESaIcEE12_M_constructIPKcEEvT_S8_St20forward_iterator_tagEN6_GuardD1Ev,"x"
	.linkonce discard
	.seh_endproc
	.section	.text$_ZNSt7__cxx1112basic_stringIcSt11char_traitsIcESaIcEE12_M_constructIPKcEEvT_S8_St20forward_iterator_tag,"x"
	.linkonce discard
	.align 2
	.globl	_ZNSt7__cxx1112basic_stringIcSt11char_traitsIcESaIcEE12_M_constructIPKcEEvT_S8_St20forward_iterator_tag
	.def	_ZNSt7__cxx1112basic_stringIcSt11char_traitsIcESaIcEE12_M_constructIPKcEEvT_S8_St20forward_iterator_tag;	.scl	2;	.type	32;	.endef
	.seh_proc	_ZNSt7__cxx1112basic_stringIcSt11char_traitsIcESaIcEE12_M_constructIPKcEEvT_S8_St20forward_iterator_tag
_ZNSt7__cxx1112basic_stringIcSt11char_traitsIcESaIcEE12_M_constructIPKcEEvT_S8_St20forward_iterator_tag:
.LFB13963:
	pushq	%rbp
	.seh_pushreg	%rbp
	pushq	%rbx
	.seh_pushreg	%rbx
	subq	$104, %rsp
	.seh_stackalloc	104
	leaq	96(%rsp), %rbp
	.seh_setframe	%rbp, 96
	.seh_endprologue
	movq	%rcx, 32(%rbp)
	movq	%rdx, 40(%rbp)
	movq	%r8, 48(%rbp)
	movq	40(%rbp), %rax
	movq	%rax, -56(%rbp)
	movq	48(%rbp), %rax
	movq	%rax, -8(%rbp)
	nop
	movq	-56(%rbp), %rax
	movq	%rax, -16(%rbp)
	movq	-8(%rbp), %rax
	movq	%rax, -24(%rbp)
	movq	-24(%rbp), %rax
	subq	-16(%rbp), %rax
	nop
	movq	%rax, -40(%rbp)
	movq	-40(%rbp), %rax
	cmpq	$15, %rax
	jbe	.L107
	leaq	-40(%rbp), %rdx
	movq	32(%rbp), %rax
	movl	$0, %r8d
	movq	%rax, %rcx
.LEHB25:
	call	_ZNSt7__cxx1112basic_stringIcSt11char_traitsIcESaIcEE9_M_createERyy
.LEHE25:
	movq	%rax, %rdx
	movq	32(%rbp), %rax
	movq	%rax, %rcx
	call	_ZNSt7__cxx1112basic_stringIcSt11char_traitsIcESaIcEE7_M_dataEPc
	movq	-40(%rbp), %rdx
	movq	32(%rbp), %rax
	movq	%rax, %rcx
	call	_ZNSt7__cxx1112basic_stringIcSt11char_traitsIcESaIcEE11_M_capacityEy
	jmp	.L108
.L107:
	movq	32(%rbp), %rax
	movq	%rax, -32(%rbp)
	nop
.L108:
	movq	32(%rbp), %rdx
	leaq	-48(%rbp), %rax
	movq	%rax, %rcx
	call	_ZZNSt7__cxx1112basic_stringIcSt11char_traitsIcESaIcEE12_M_constructIPKcEEvT_S8_St20forward_iterator_tagEN6_GuardC1EPS4_
	movq	32(%rbp), %rax
	movq	%rax, %rcx
	call	_ZNKSt7__cxx1112basic_stringIcSt11char_traitsIcESaIcEE7_M_dataEv
	movq	%rax, %rcx
	movq	48(%rbp), %rdx
	movq	40(%rbp), %rax
	movq	%rdx, %r8
	movq	%rax, %rdx
	call	_ZNSt7__cxx1112basic_stringIcSt11char_traitsIcESaIcEE13_S_copy_charsEPcPKcS7_
	movq	$0, -48(%rbp)
	movq	-40(%rbp), %rdx
	movq	32(%rbp), %rax
	movq	%rax, %rcx
.LEHB26:
	call	_ZNSt7__cxx1112basic_stringIcSt11char_traitsIcESaIcEE13_M_set_lengthEy
.LEHE26:
	leaq	-48(%rbp), %rax
	movq	%rax, %rcx
	call	_ZZNSt7__cxx1112basic_stringIcSt11char_traitsIcESaIcEE12_M_constructIPKcEEvT_S8_St20forward_iterator_tagEN6_GuardD1Ev
	jmp	.L111
.L110:
	movq	%rax, %rbx
	leaq	-48(%rbp), %rax
	movq	%rax, %rcx
	call	_ZZNSt7__cxx1112basic_stringIcSt11char_traitsIcESaIcEE12_M_constructIPKcEEvT_S8_St20forward_iterator_tagEN6_GuardD1Ev
	movq	%rbx, %rax
	movq	%rax, %rcx
.LEHB27:
	call	_Unwind_Resume
	nop
.LEHE27:
.L111:
	addq	$104, %rsp
	popq	%rbx
	popq	%rbp
	ret
	.seh_handler	__gxx_personality_seh0, @unwind, @except
	.seh_handlerdata
.LLSDA13963:
	.byte	0xff
	.byte	0xff
	.byte	0x1
	.uleb128 .LLSDACSE13963-.LLSDACSB13963
.LLSDACSB13963:
	.uleb128 .LEHB25-.LFB13963
	.uleb128 .LEHE25-.LEHB25
	.uleb128 0
	.uleb128 0
	.uleb128 .LEHB26-.LFB13963
	.uleb128 .LEHE26-.LEHB26
	.uleb128 .L110-.LFB13963
	.uleb128 0
	.uleb128 .LEHB27-.LFB13963
	.uleb128 .LEHE27-.LEHB27
	.uleb128 0
	.uleb128 0
.LLSDACSE13963:
	.section	.text$_ZNSt7__cxx1112basic_stringIcSt11char_traitsIcESaIcEE12_M_constructIPKcEEvT_S8_St20forward_iterator_tag,"x"
	.linkonce discard
	.seh_endproc
	.section	.text$_ZNKSt8functionIFbNSt7__cxx1112basic_stringIcSt11char_traitsIcESaIcEEExEEcvbEv,"x"
	.linkonce discard
	.align 2
	.globl	_ZNKSt8functionIFbNSt7__cxx1112basic_stringIcSt11char_traitsIcESaIcEEExEEcvbEv
	.def	_ZNKSt8functionIFbNSt7__cxx1112basic_stringIcSt11char_traitsIcESaIcEEExEEcvbEv;	.scl	2;	.type	32;	.endef
	.seh_proc	_ZNKSt8functionIFbNSt7__cxx1112basic_stringIcSt11char_traitsIcESaIcEEExEEcvbEv
_ZNKSt8functionIFbNSt7__cxx1112basic_stringIcSt11char_traitsIcESaIcEEExEEcvbEv:
.LFB14170:
	pushq	%rbp
	.seh_pushreg	%rbp
	movq	%rsp, %rbp
	.seh_setframe	%rbp, 0
	subq	$32, %rsp
	.seh_stackalloc	32
	.seh_endprologue
	movq	%rcx, 16(%rbp)
	movq	16(%rbp), %rax
	movq	%rax, %rcx
	call	_ZNKSt14_Function_base8_M_emptyEv
	xorl	$1, %eax
	addq	$32, %rsp
	popq	%rbp
	ret
	.seh_endproc
	.section	.text$_ZNSt15__new_allocatorISt4pairIKN3cpr21AcceptEncodingMethodsENSt7__cxx1112basic_stringIcSt11char_traitsIcESaIcEEEEED2Ev,"x"
	.linkonce discard
	.align 2
	.globl	_ZNSt15__new_allocatorISt4pairIKN3cpr21AcceptEncodingMethodsENSt7__cxx1112basic_stringIcSt11char_traitsIcESaIcEEEEED2Ev
	.def	_ZNSt15__new_allocatorISt4pairIKN3cpr21AcceptEncodingMethodsENSt7__cxx1112basic_stringIcSt11char_traitsIcESaIcEEEEED2Ev;	.scl	2;	.type	32;	.endef
	.seh_proc	_ZNSt15__new_allocatorISt4pairIKN3cpr21AcceptEncodingMethodsENSt7__cxx1112basic_stringIcSt11char_traitsIcESaIcEEEEED2Ev
_ZNSt15__new_allocatorISt4pairIKN3cpr21AcceptEncodingMethodsENSt7__cxx1112basic_stringIcSt11char_traitsIcESaIcEEEEED2Ev:
.LFB14335:
	pushq	%rbp
	.seh_pushreg	%rbp
	movq	%rsp, %rbp
	.seh_setframe	%rbp, 0
	.seh_endprologue
	movq	%rcx, 16(%rbp)
	nop
	popq	%rbp
	ret
	.seh_endproc
	.section	.text$_ZNSt8_Rb_treeIN3cpr21AcceptEncodingMethodsESt4pairIKS1_NSt7__cxx1112basic_stringIcSt11char_traitsIcESaIcEEEESt10_Select1stISA_ESt4lessIS1_ESaISA_EE13_Rb_tree_implISE_Lb1EED1Ev,"x"
	.linkonce discard
	.align 2
	.globl	_ZNSt8_Rb_treeIN3cpr21AcceptEncodingMethodsESt4pairIKS1_NSt7__cxx1112basic_stringIcSt11char_traitsIcESaIcEEEESt10_Select1stISA_ESt4lessIS1_ESaISA_EE13_Rb_tree_implISE_Lb1EED1Ev
	.def	_ZNSt8_Rb_treeIN3cpr21AcceptEncodingMethodsESt4pairIKS1_NSt7__cxx1112basic_stringIcSt11char_traitsIcESaIcEEEESt10_Select1stISA_ESt4lessIS1_ESaISA_EE13_Rb_tree_implISE_Lb1EED1Ev;	.scl	2;	.type	32;	.endef
	.seh_proc	_ZNSt8_Rb_treeIN3cpr21AcceptEncodingMethodsESt4pairIKS1_NSt7__cxx1112basic_stringIcSt11char_traitsIcESaIcEEEESt10_Select1stISA_ESt4lessIS1_ESaISA_EE13_Rb_tree_implISE_Lb1EED1Ev
_ZNSt8_Rb_treeIN3cpr21AcceptEncodingMethodsESt4pairIKS1_NSt7__cxx1112basic_stringIcSt11char_traitsIcESaIcEEEESt10_Select1stISA_ESt4lessIS1_ESaISA_EE13_Rb_tree_implISE_Lb1EED1Ev:
.LFB14343:
	pushq	%rbp
	.seh_pushreg	%rbp
	movq	%rsp, %rbp
	.seh_setframe	%rbp, 0
	subq	$48, %rsp
	.seh_stackalloc	48
	.seh_endprologue
	movq	%rcx, 16(%rbp)
	movq	16(%rbp), %rax
	movq	%rax, -8(%rbp)
	movq	-8(%rbp), %rax
	movq	%rax, %rcx
	call	_ZNSt15__new_allocatorISt13_Rb_tree_nodeISt4pairIKN3cpr21AcceptEncodingMethodsENSt7__cxx1112basic_stringIcSt11char_traitsIcESaIcEEEEEED2Ev
	nop
	nop
	addq	$48, %rsp
	popq	%rbp
	ret
	.seh_endproc
	.section	.text$_ZNSt8_Rb_treeIN3cpr21AcceptEncodingMethodsESt4pairIKS1_NSt7__cxx1112basic_stringIcSt11char_traitsIcESaIcEEEESt10_Select1stISA_ESt4lessIS1_ESaISA_EEC1ERKSE_RKSF_,"x"
	.linkonce discard
	.align 2
	.globl	_ZNSt8_Rb_treeIN3cpr21AcceptEncodingMethodsESt4pairIKS1_NSt7__cxx1112basic_stringIcSt11char_traitsIcESaIcEEEESt10_Select1stISA_ESt4lessIS1_ESaISA_EEC1ERKSE_RKSF_
	.def	_ZNSt8_Rb_treeIN3cpr21AcceptEncodingMethodsESt4pairIKS1_NSt7__cxx1112basic_stringIcSt11char_traitsIcESaIcEEEESt10_Select1stISA_ESt4lessIS1_ESaISA_EEC1ERKSE_RKSF_;	.scl	2;	.type	32;	.endef
	.seh_proc	_ZNSt8_Rb_treeIN3cpr21AcceptEncodingMethodsESt4pairIKS1_NSt7__cxx1112basic_stringIcSt11char_traitsIcESaIcEEEESt10_Select1stISA_ESt4lessIS1_ESaISA_EEC1ERKSE_RKSF_
_ZNSt8_Rb_treeIN3cpr21AcceptEncodingMethodsESt4pairIKS1_NSt7__cxx1112basic_stringIcSt11char_traitsIcESaIcEEEESt10_Select1stISA_ESt4lessIS1_ESaISA_EEC1ERKSE_RKSF_:
.LFB14345:
	pushq	%rbp
	.seh_pushreg	%rbp
	pushq	%rbx
	.seh_pushreg	%rbx
	subq	$72, %rsp
	.seh_stackalloc	72
	leaq	64(%rsp), %rbp
	.seh_setframe	%rbp, 64
	.seh_endprologue
	movq	%rcx, 32(%rbp)
	movq	%rdx, 40(%rbp)
	movq	%r8, 48(%rbp)
	movq	32(%rbp), %rax
	movq	48(%rbp), %rdx
	movq	%rdx, -8(%rbp)
	leaq	-17(%rbp), %rdx
	movq	%rdx, -16(%rbp)
	nop
	nop
	leaq	-17(%rbp), %rcx
	movq	40(%rbp), %rdx
	movq	%rcx, %r8
	movq	%rax, %rcx
.LEHB28:
	call	_ZNSt8_Rb_treeIN3cpr21AcceptEncodingMethodsESt4pairIKS1_NSt7__cxx1112basic_stringIcSt11char_traitsIcESaIcEEEESt10_Select1stISA_ESt4lessIS1_ESaISA_EE13_Rb_tree_implISE_Lb1EEC1ERKSE_OSaISt13_Rb_tree_nodeISA_EE
.LEHE28:
	leaq	-17(%rbp), %rax
	movq	%rax, %rcx
	call	_ZNSt15__new_allocatorISt13_Rb_tree_nodeISt4pairIKN3cpr21AcceptEncodingMethodsENSt7__cxx1112basic_stringIcSt11char_traitsIcESaIcEEEEEED2Ev
	nop
	jmp	.L119
.L118:
	movq	%rax, %rbx
	leaq	-17(%rbp), %rax
	movq	%rax, %rcx
	call	_ZNSt15__new_allocatorISt13_Rb_tree_nodeISt4pairIKN3cpr21AcceptEncodingMethodsENSt7__cxx1112basic_stringIcSt11char_traitsIcESaIcEEEEEED2Ev
	nop
	movq	%rbx, %rax
	movq	%rax, %rcx
.LEHB29:
	call	_Unwind_Resume
	nop
.LEHE29:
.L119:
	addq	$72, %rsp
	popq	%rbx
	popq	%rbp
	ret
	.seh_handler	__gxx_personality_seh0, @unwind, @except
	.seh_handlerdata
.LLSDA14345:
	.byte	0xff
	.byte	0xff
	.byte	0x1
	.uleb128 .LLSDACSE14345-.LLSDACSB14345
.LLSDACSB14345:
	.uleb128 .LEHB28-.LFB14345
	.uleb128 .LEHE28-.LEHB28
	.uleb128 .L118-.LFB14345
	.uleb128 0
	.uleb128 .LEHB29-.LFB14345
	.uleb128 .LEHE29-.LEHB29
	.uleb128 0
	.uleb128 0
.LLSDACSE14345:
	.section	.text$_ZNSt8_Rb_treeIN3cpr21AcceptEncodingMethodsESt4pairIKS1_NSt7__cxx1112basic_stringIcSt11char_traitsIcESaIcEEEESt10_Select1stISA_ESt4lessIS1_ESaISA_EEC1ERKSE_RKSF_,"x"
	.linkonce discard
	.seh_endproc
	.section	.text$_ZNSt8_Rb_treeIN3cpr21AcceptEncodingMethodsESt4pairIKS1_NSt7__cxx1112basic_stringIcSt11char_traitsIcESaIcEEEESt10_Select1stISA_ESt4lessIS1_ESaISA_EED1Ev,"x"
	.linkonce discard
	.align 2
	.globl	_ZNSt8_Rb_treeIN3cpr21AcceptEncodingMethodsESt4pairIKS1_NSt7__cxx1112basic_stringIcSt11char_traitsIcESaIcEEEESt10_Select1stISA_ESt4lessIS1_ESaISA_EED1Ev
	.def	_ZNSt8_Rb_treeIN3cpr21AcceptEncodingMethodsESt4pairIKS1_NSt7__cxx1112basic_stringIcSt11char_traitsIcESaIcEEEESt10_Select1stISA_ESt4lessIS1_ESaISA_EED1Ev;	.scl	2;	.type	32;	.endef
	.seh_proc	_ZNSt8_Rb_treeIN3cpr21AcceptEncodingMethodsESt4pairIKS1_NSt7__cxx1112basic_stringIcSt11char_traitsIcESaIcEEEESt10_Select1stISA_ESt4lessIS1_ESaISA_EED1Ev
_ZNSt8_Rb_treeIN3cpr21AcceptEncodingMethodsESt4pairIKS1_NSt7__cxx1112basic_stringIcSt11char_traitsIcESaIcEEEESt10_Select1stISA_ESt4lessIS1_ESaISA_EED1Ev:
.LFB14348:
	pushq	%rbp
	.seh_pushreg	%rbp
	movq	%rsp, %rbp
	.seh_setframe	%rbp, 0
	subq	$32, %rsp
	.seh_stackalloc	32
	.seh_endprologue
	movq	%rcx, 16(%rbp)
	movq	16(%rbp), %rax
	movq	%rax, %rcx
	call	_ZNSt8_Rb_treeIN3cpr21AcceptEncodingMethodsESt4pairIKS1_NSt7__cxx1112basic_stringIcSt11char_traitsIcESaIcEEEESt10_Select1stISA_ESt4lessIS1_ESaISA_EE8_M_beginEv
	movq	%rax, %rdx
	movq	16(%rbp), %rax
	movq	%rax, %rcx
	call	_ZNSt8_Rb_treeIN3cpr21AcceptEncodingMethodsESt4pairIKS1_NSt7__cxx1112basic_stringIcSt11char_traitsIcESaIcEEEESt10_Select1stISA_ESt4lessIS1_ESaISA_EE8_M_eraseEPSt13_Rb_tree_nodeISA_E
	movq	16(%rbp), %rax
	movq	%rax, %rcx
	call	_ZNSt8_Rb_treeIN3cpr21AcceptEncodingMethodsESt4pairIKS1_NSt7__cxx1112basic_stringIcSt11char_traitsIcESaIcEEEESt10_Select1stISA_ESt4lessIS1_ESaISA_EE13_Rb_tree_implISE_Lb1EED1Ev
	nop
	addq	$32, %rsp
	popq	%rbp
	ret
	.seh_handler	__gxx_personality_seh0, @unwind, @except
	.seh_handlerdata
.LLSDA14348:
	.byte	0xff
	.byte	0xff
	.byte	0x1
	.uleb128 .LLSDACSE14348-.LLSDACSB14348
.LLSDACSB14348:
.LLSDACSE14348:
	.section	.text$_ZNSt8_Rb_treeIN3cpr21AcceptEncodingMethodsESt4pairIKS1_NSt7__cxx1112basic_stringIcSt11char_traitsIcESaIcEEEESt10_Select1stISA_ESt4lessIS1_ESaISA_EED1Ev,"x"
	.linkonce discard
	.seh_endproc
	.section	.text$_ZNKSt16initializer_listISt4pairIKN3cpr21AcceptEncodingMethodsENSt7__cxx1112basic_stringIcSt11char_traitsIcESaIcEEEEE5beginEv,"x"
	.linkonce discard
	.align 2
	.globl	_ZNKSt16initializer_listISt4pairIKN3cpr21AcceptEncodingMethodsENSt7__cxx1112basic_stringIcSt11char_traitsIcESaIcEEEEE5beginEv
	.def	_ZNKSt16initializer_listISt4pairIKN3cpr21AcceptEncodingMethodsENSt7__cxx1112basic_stringIcSt11char_traitsIcESaIcEEEEE5beginEv;	.scl	2;	.type	32;	.endef
	.seh_proc	_ZNKSt16initializer_listISt4pairIKN3cpr21AcceptEncodingMethodsENSt7__cxx1112basic_stringIcSt11char_traitsIcESaIcEEEEE5beginEv
_ZNKSt16initializer_listISt4pairIKN3cpr21AcceptEncodingMethodsENSt7__cxx1112basic_stringIcSt11char_traitsIcESaIcEEEEE5beginEv:
.LFB14349:
	pushq	%rbp
	.seh_pushreg	%rbp
	movq	%rsp, %rbp
	.seh_setframe	%rbp, 0
	.seh_endprologue
	movq	%rcx, 16(%rbp)
	movq	16(%rbp), %rax
	movq	(%rax), %rax
	popq	%rbp
	ret
	.seh_endproc
	.section	.text$_ZNKSt16initializer_listISt4pairIKN3cpr21AcceptEncodingMethodsENSt7__cxx1112basic_stringIcSt11char_traitsIcESaIcEEEEE3endEv,"x"
	.linkonce discard
	.align 2
	.globl	_ZNKSt16initializer_listISt4pairIKN3cpr21AcceptEncodingMethodsENSt7__cxx1112basic_stringIcSt11char_traitsIcESaIcEEEEE3endEv
	.def	_ZNKSt16initializer_listISt4pairIKN3cpr21AcceptEncodingMethodsENSt7__cxx1112basic_stringIcSt11char_traitsIcESaIcEEEEE3endEv;	.scl	2;	.type	32;	.endef
	.seh_proc	_ZNKSt16initializer_listISt4pairIKN3cpr21AcceptEncodingMethodsENSt7__cxx1112basic_stringIcSt11char_traitsIcESaIcEEEEE3endEv
_ZNKSt16initializer_listISt4pairIKN3cpr21AcceptEncodingMethodsENSt7__cxx1112basic_stringIcSt11char_traitsIcESaIcEEEEE3endEv:
.LFB14350:
	pushq	%rbp
	.seh_pushreg	%rbp
	pushq	%rbx
	.seh_pushreg	%rbx
	subq	$40, %rsp
	.seh_stackalloc	40
	leaq	32(%rsp), %rbp
	.seh_setframe	%rbp, 32
	.seh_endprologue
	movq	%rcx, 32(%rbp)
	movq	32(%rbp), %rax
	movq	%rax, %rcx
	call	_ZNKSt16initializer_listISt4pairIKN3cpr21AcceptEncodingMethodsENSt7__cxx1112basic_stringIcSt11char_traitsIcESaIcEEEEE5beginEv
	movq	%rax, %rbx
	movq	32(%rbp), %rax
	movq	%rax, %rcx
	call	_ZNKSt16initializer_listISt4pairIKN3cpr21AcceptEncodingMethodsENSt7__cxx1112basic_stringIcSt11char_traitsIcESaIcEEEEE4sizeEv
	movq	%rax, %rdx
	movq	%rdx, %rax
	salq	$2, %rax
	addq	%rdx, %rax
	salq	$3, %rax
	addq	%rbx, %rax
	addq	$40, %rsp
	popq	%rbx
	popq	%rbp
	ret
	.seh_endproc
	.section	.text$_ZNSt8_Rb_treeIN3cpr21AcceptEncodingMethodsESt4pairIKS1_NSt7__cxx1112basic_stringIcSt11char_traitsIcESaIcEEEESt10_Select1stISA_ESt4lessIS1_ESaISA_EE22_M_insert_range_uniqueIPKSA_EENSt9enable_ifIXsrSt7is_sameISA_NSt15iterator_traitsIT_E10value_typeEE5valueEvE4typeESN_SN_,"x"
	.linkonce discard
	.align 2
	.globl	_ZNSt8_Rb_treeIN3cpr21AcceptEncodingMethodsESt4pairIKS1_NSt7__cxx1112basic_stringIcSt11char_traitsIcESaIcEEEESt10_Select1stISA_ESt4lessIS1_ESaISA_EE22_M_insert_range_uniqueIPKSA_EENSt9enable_ifIXsrSt7is_sameISA_NSt15iterator_traitsIT_E10value_typeEE5valueEvE4typeESN_SN_
	.def	_ZNSt8_Rb_treeIN3cpr21AcceptEncodingMethodsESt4pairIKS1_NSt7__cxx1112basic_stringIcSt11char_traitsIcESaIcEEEESt10_Select1stISA_ESt4lessIS1_ESaISA_EE22_M_insert_range_uniqueIPKSA_EENSt9enable_ifIXsrSt7is_sameISA_NSt15iterator_traitsIT_E10value_typeEE5valueEvE4typeESN_SN_;	.scl	2;	.type	32;	.endef
	.seh_proc	_ZNSt8_Rb_treeIN3cpr21AcceptEncodingMethodsESt4pairIKS1_NSt7__cxx1112basic_stringIcSt11char_traitsIcESaIcEEEESt10_Select1stISA_ESt4lessIS1_ESaISA_EE22_M_insert_range_uniqueIPKSA_EENSt9enable_ifIXsrSt7is_sameISA_NSt15iterator_traitsIT_E10value_typeEE5valueEvE4typeESN_SN_
_ZNSt8_Rb_treeIN3cpr21AcceptEncodingMethodsESt4pairIKS1_NSt7__cxx1112basic_stringIcSt11char_traitsIcESaIcEEEESt10_Select1stISA_ESt4lessIS1_ESaISA_EE22_M_insert_range_uniqueIPKSA_EENSt9enable_ifIXsrSt7is_sameISA_NSt15iterator_traitsIT_E10value_typeEE5valueEvE4typeESN_SN_:
.LFB14351:
	pushq	%rbp
	.seh_pushreg	%rbp
	movq	%rsp, %rbp
	.seh_setframe	%rbp, 0
	subq	$64, %rsp
	.seh_stackalloc	64
	.seh_endprologue
	movq	%rcx, 16(%rbp)
	movq	%rdx, 24(%rbp)
	movq	%r8, 32(%rbp)
	movq	16(%rbp), %rdx
	leaq	-24(%rbp), %rax
	movq	%rax, %rcx
	call	_ZNSt8_Rb_treeIN3cpr21AcceptEncodingMethodsESt4pairIKS1_NSt7__cxx1112basic_stringIcSt11char_traitsIcESaIcEEEESt10_Select1stISA_ESt4lessIS1_ESaISA_EE11_Alloc_nodeC1ERSG_
	jmp	.L126
.L127:
	movq	16(%rbp), %rax
	movq	%rax, %rcx
	call	_ZNSt8_Rb_treeIN3cpr21AcceptEncodingMethodsESt4pairIKS1_NSt7__cxx1112basic_stringIcSt11char_traitsIcESaIcEEEESt10_Select1stISA_ESt4lessIS1_ESaISA_EE3endEv
	movq	%rax, -8(%rbp)
	leaq	-8(%rbp), %rdx
	leaq	-16(%rbp), %rax
	movq	%rax, %rcx
	call	_ZNSt23_Rb_tree_const_iteratorISt4pairIKN3cpr21AcceptEncodingMethodsENSt7__cxx1112basic_stringIcSt11char_traitsIcESaIcEEEEEC1ERKSt17_Rb_tree_iteratorISA_E
	leaq	-24(%rbp), %r8
	movq	24(%rbp), %rcx
	movq	-16(%rbp), %rdx
	movq	16(%rbp), %rax
	movq	%r8, %r9
	movq	%rcx, %r8
	movq	%rax, %rcx
	call	_ZNSt8_Rb_treeIN3cpr21AcceptEncodingMethodsESt4pairIKS1_NSt7__cxx1112basic_stringIcSt11char_traitsIcESaIcEEEESt10_Select1stISA_ESt4lessIS1_ESaISA_EE17_M_insert_unique_IRKSA_NSG_11_Alloc_nodeEEESt17_Rb_tree_iteratorISA_ESt23_Rb_tree_const_iteratorISA_EOT_RT0_
	addq	$40, 24(%rbp)
.L126:
	movq	24(%rbp), %rax
	cmpq	32(%rbp), %rax
	jne	.L127
	nop
	nop
	addq	$64, %rsp
	popq	%rbp
	ret
	.seh_endproc
	.section	.text$_ZNSt8_Rb_treeIN3cpr21AcceptEncodingMethodsESt4pairIKS1_NSt7__cxx1112basic_stringIcSt11char_traitsIcESaIcEEEESt10_Select1stISA_ESt4lessIS1_ESaISA_EE13_Rb_tree_implISE_Lb1EEC1ERKSE_OSaISt13_Rb_tree_nodeISA_EE,"x"
	.linkonce discard
	.align 2
	.globl	_ZNSt8_Rb_treeIN3cpr21AcceptEncodingMethodsESt4pairIKS1_NSt7__cxx1112basic_stringIcSt11char_traitsIcESaIcEEEESt10_Select1stISA_ESt4lessIS1_ESaISA_EE13_Rb_tree_implISE_Lb1EEC1ERKSE_OSaISt13_Rb_tree_nodeISA_EE
	.def	_ZNSt8_Rb_treeIN3cpr21AcceptEncodingMethodsESt4pairIKS1_NSt7__cxx1112basic_stringIcSt11char_traitsIcESaIcEEEESt10_Select1stISA_ESt4lessIS1_ESaISA_EE13_Rb_tree_implISE_Lb1EEC1ERKSE_OSaISt13_Rb_tree_nodeISA_EE;	.scl	2;	.type	32;	.endef
	.seh_proc	_ZNSt8_Rb_treeIN3cpr21AcceptEncodingMethodsESt4pairIKS1_NSt7__cxx1112basic_stringIcSt11char_traitsIcESaIcEEEESt10_Select1stISA_ESt4lessIS1_ESaISA_EE13_Rb_tree_implISE_Lb1EEC1ERKSE_OSaISt13_Rb_tree_nodeISA_EE
_ZNSt8_Rb_treeIN3cpr21AcceptEncodingMethodsESt4pairIKS1_NSt7__cxx1112basic_stringIcSt11char_traitsIcESaIcEEEESt10_Select1stISA_ESt4lessIS1_ESaISA_EE13_Rb_tree_implISE_Lb1EEC1ERKSE_OSaISt13_Rb_tree_nodeISA_EE:
.LFB14719:
	pushq	%rbp
	.seh_pushreg	%rbp
	movq	%rsp, %rbp
	.seh_setframe	%rbp, 0
	subq	$64, %rsp
	.seh_stackalloc	64
	.seh_endprologue
	movq	%rcx, 16(%rbp)
	movq	%rdx, 24(%rbp)
	movq	%r8, 32(%rbp)
	movq	32(%rbp), %rax
	movq	%rax, %rcx
	call	_ZSt4moveIRSaISt13_Rb_tree_nodeISt4pairIKN3cpr21AcceptEncodingMethodsENSt7__cxx1112basic_stringIcSt11char_traitsIcESaIcEEEEEEEONSt16remove_referenceIT_E4typeEOSG_
	movq	16(%rbp), %rdx
	movq	%rdx, -8(%rbp)
	movq	%rax, -16(%rbp)
	movq	-8(%rbp), %rax
	movq	%rax, -24(%rbp)
	movq	-16(%rbp), %rax
	movq	%rax, -32(%rbp)
	nop
	nop
	movq	16(%rbp), %rax
	movq	24(%rbp), %rdx
	movq	%rax, %rcx
	call	_ZNSt20_Rb_tree_key_compareISt4lessIN3cpr21AcceptEncodingMethodsEEEC2ERKS3_
	movq	16(%rbp), %rax
	addq	$8, %rax
	movq	%rax, %rcx
	call	_ZNSt15_Rb_tree_headerC2Ev
	nop
	addq	$64, %rsp
	popq	%rbp
	ret
	.seh_endproc
	.section	.text$_ZNSt8_Rb_treeIN3cpr21AcceptEncodingMethodsESt4pairIKS1_NSt7__cxx1112basic_stringIcSt11char_traitsIcESaIcEEEESt10_Select1stISA_ESt4lessIS1_ESaISA_EE8_M_eraseEPSt13_Rb_tree_nodeISA_E,"x"
	.linkonce discard
	.align 2
	.globl	_ZNSt8_Rb_treeIN3cpr21AcceptEncodingMethodsESt4pairIKS1_NSt7__cxx1112basic_stringIcSt11char_traitsIcESaIcEEEESt10_Select1stISA_ESt4lessIS1_ESaISA_EE8_M_eraseEPSt13_Rb_tree_nodeISA_E
	.def	_ZNSt8_Rb_treeIN3cpr21AcceptEncodingMethodsESt4pairIKS1_NSt7__cxx1112basic_stringIcSt11char_traitsIcESaIcEEEESt10_Select1stISA_ESt4lessIS1_ESaISA_EE8_M_eraseEPSt13_Rb_tree_nodeISA_E;	.scl	2;	.type	32;	.endef
	.seh_proc	_ZNSt8_Rb_treeIN3cpr21AcceptEncodingMethodsESt4pairIKS1_NSt7__cxx1112basic_stringIcSt11char_traitsIcESaIcEEEESt10_Select1stISA_ESt4lessIS1_ESaISA_EE8_M_eraseEPSt13_Rb_tree_nodeISA_E
_ZNSt8_Rb_treeIN3cpr21AcceptEncodingMethodsESt4pairIKS1_NSt7__cxx1112basic_stringIcSt11char_traitsIcESaIcEEEESt10_Select1stISA_ESt4lessIS1_ESaISA_EE8_M_eraseEPSt13_Rb_tree_nodeISA_E:
.LFB14720:
	pushq	%rbp
	.seh_pushreg	%rbp
	movq	%rsp, %rbp
	.seh_setframe	%rbp, 0
	subq	$48, %rsp
	.seh_stackalloc	48
	.seh_endprologue
	movq	%rcx, 16(%rbp)
	movq	%rdx, 24(%rbp)
	jmp	.L130
.L131:
	movq	24(%rbp), %rax
	movq	%rax, %rcx
	call	_ZNSt8_Rb_treeIN3cpr21AcceptEncodingMethodsESt4pairIKS1_NSt7__cxx1112basic_stringIcSt11char_traitsIcESaIcEEEESt10_Select1stISA_ESt4lessIS1_ESaISA_EE8_S_rightEPSt18_Rb_tree_node_base
	movq	%rax, %rdx
	movq	16(%rbp), %rax
	movq	%rax, %rcx
	call	_ZNSt8_Rb_treeIN3cpr21AcceptEncodingMethodsESt4pairIKS1_NSt7__cxx1112basic_stringIcSt11char_traitsIcESaIcEEEESt10_Select1stISA_ESt4lessIS1_ESaISA_EE8_M_eraseEPSt13_Rb_tree_nodeISA_E
	movq	24(%rbp), %rax
	movq	%rax, %rcx
	call	_ZNSt8_Rb_treeIN3cpr21AcceptEncodingMethodsESt4pairIKS1_NSt7__cxx1112basic_stringIcSt11char_traitsIcESaIcEEEESt10_Select1stISA_ESt4lessIS1_ESaISA_EE7_S_leftEPSt18_Rb_tree_node_base
	movq	%rax, -8(%rbp)
	movq	24(%rbp), %rdx
	movq	16(%rbp), %rax
	movq	%rax, %rcx
	call	_ZNSt8_Rb_treeIN3cpr21AcceptEncodingMethodsESt4pairIKS1_NSt7__cxx1112basic_stringIcSt11char_traitsIcESaIcEEEESt10_Select1stISA_ESt4lessIS1_ESaISA_EE12_M_drop_nodeEPSt13_Rb_tree_nodeISA_E
	movq	-8(%rbp), %rax
	movq	%rax, 24(%rbp)
.L130:
	cmpq	$0, 24(%rbp)
	jne	.L131
	nop
	nop
	addq	$48, %rsp
	popq	%rbp
	ret
	.seh_endproc
	.section	.text$_ZNSt8_Rb_treeIN3cpr21AcceptEncodingMethodsESt4pairIKS1_NSt7__cxx1112basic_stringIcSt11char_traitsIcESaIcEEEESt10_Select1stISA_ESt4lessIS1_ESaISA_EE8_M_beginEv,"x"
	.linkonce discard
	.align 2
	.globl	_ZNSt8_Rb_treeIN3cpr21AcceptEncodingMethodsESt4pairIKS1_NSt7__cxx1112basic_stringIcSt11char_traitsIcESaIcEEEESt10_Select1stISA_ESt4lessIS1_ESaISA_EE8_M_beginEv
	.def	_ZNSt8_Rb_treeIN3cpr21AcceptEncodingMethodsESt4pairIKS1_NSt7__cxx1112basic_stringIcSt11char_traitsIcESaIcEEEESt10_Select1stISA_ESt4lessIS1_ESaISA_EE8_M_beginEv;	.scl	2;	.type	32;	.endef
	.seh_proc	_ZNSt8_Rb_treeIN3cpr21AcceptEncodingMethodsESt4pairIKS1_NSt7__cxx1112basic_stringIcSt11char_traitsIcESaIcEEEESt10_Select1stISA_ESt4lessIS1_ESaISA_EE8_M_beginEv
_ZNSt8_Rb_treeIN3cpr21AcceptEncodingMethodsESt4pairIKS1_NSt7__cxx1112basic_stringIcSt11char_traitsIcESaIcEEEESt10_Select1stISA_ESt4lessIS1_ESaISA_EE8_M_beginEv:
.LFB14721:
	pushq	%rbp
	.seh_pushreg	%rbp
	movq	%rsp, %rbp
	.seh_setframe	%rbp, 0
	subq	$32, %rsp
	.seh_stackalloc	32
	.seh_endprologue
	movq	%rcx, 16(%rbp)
	movq	16(%rbp), %rax
	movq	%rax, %rcx
	call	_ZNKSt8_Rb_treeIN3cpr21AcceptEncodingMethodsESt4pairIKS1_NSt7__cxx1112basic_stringIcSt11char_traitsIcESaIcEEEESt10_Select1stISA_ESt4lessIS1_ESaISA_EE9_M_mbeginEv
	addq	$32, %rsp
	popq	%rbp
	ret
	.seh_endproc
	.section	.text$_ZNKSt16initializer_listISt4pairIKN3cpr21AcceptEncodingMethodsENSt7__cxx1112basic_stringIcSt11char_traitsIcESaIcEEEEE4sizeEv,"x"
	.linkonce discard
	.align 2
	.globl	_ZNKSt16initializer_listISt4pairIKN3cpr21AcceptEncodingMethodsENSt7__cxx1112basic_stringIcSt11char_traitsIcESaIcEEEEE4sizeEv
	.def	_ZNKSt16initializer_listISt4pairIKN3cpr21AcceptEncodingMethodsENSt7__cxx1112basic_stringIcSt11char_traitsIcESaIcEEEEE4sizeEv;	.scl	2;	.type	32;	.endef
	.seh_proc	_ZNKSt16initializer_listISt4pairIKN3cpr21AcceptEncodingMethodsENSt7__cxx1112basic_stringIcSt11char_traitsIcESaIcEEEEE4sizeEv
_ZNKSt16initializer_listISt4pairIKN3cpr21AcceptEncodingMethodsENSt7__cxx1112basic_stringIcSt11char_traitsIcESaIcEEEEE4sizeEv:
.LFB14722:
	pushq	%rbp
	.seh_pushreg	%rbp
	movq	%rsp, %rbp
	.seh_setframe	%rbp, 0
	.seh_endprologue
	movq	%rcx, 16(%rbp)
	movq	16(%rbp), %rax
	movq	8(%rax), %rax
	popq	%rbp
	ret
	.seh_endproc
	.section	.text$_ZNSt8_Rb_treeIN3cpr21AcceptEncodingMethodsESt4pairIKS1_NSt7__cxx1112basic_stringIcSt11char_traitsIcESaIcEEEESt10_Select1stISA_ESt4lessIS1_ESaISA_EE11_Alloc_nodeC1ERSG_,"x"
	.linkonce discard
	.align 2
	.globl	_ZNSt8_Rb_treeIN3cpr21AcceptEncodingMethodsESt4pairIKS1_NSt7__cxx1112basic_stringIcSt11char_traitsIcESaIcEEEESt10_Select1stISA_ESt4lessIS1_ESaISA_EE11_Alloc_nodeC1ERSG_
	.def	_ZNSt8_Rb_treeIN3cpr21AcceptEncodingMethodsESt4pairIKS1_NSt7__cxx1112basic_stringIcSt11char_traitsIcESaIcEEEESt10_Select1stISA_ESt4lessIS1_ESaISA_EE11_Alloc_nodeC1ERSG_;	.scl	2;	.type	32;	.endef
	.seh_proc	_ZNSt8_Rb_treeIN3cpr21AcceptEncodingMethodsESt4pairIKS1_NSt7__cxx1112basic_stringIcSt11char_traitsIcESaIcEEEESt10_Select1stISA_ESt4lessIS1_ESaISA_EE11_Alloc_nodeC1ERSG_
_ZNSt8_Rb_treeIN3cpr21AcceptEncodingMethodsESt4pairIKS1_NSt7__cxx1112basic_stringIcSt11char_traitsIcESaIcEEEESt10_Select1stISA_ESt4lessIS1_ESaISA_EE11_Alloc_nodeC1ERSG_:
.LFB14725:
	pushq	%rbp
	.seh_pushreg	%rbp
	movq	%rsp, %rbp
	.seh_setframe	%rbp, 0
	.seh_endprologue
	movq	%rcx, 16(%rbp)
	movq	%rdx, 24(%rbp)
	movq	16(%rbp), %rax
	movq	24(%rbp), %rdx
	movq	%rdx, (%rax)
	nop
	popq	%rbp
	ret
	.seh_endproc
	.section	.text$_ZNSt8_Rb_treeIN3cpr21AcceptEncodingMethodsESt4pairIKS1_NSt7__cxx1112basic_stringIcSt11char_traitsIcESaIcEEEESt10_Select1stISA_ESt4lessIS1_ESaISA_EE3endEv,"x"
	.linkonce discard
	.align 2
	.globl	_ZNSt8_Rb_treeIN3cpr21AcceptEncodingMethodsESt4pairIKS1_NSt7__cxx1112basic_stringIcSt11char_traitsIcESaIcEEEESt10_Select1stISA_ESt4lessIS1_ESaISA_EE3endEv
	.def	_ZNSt8_Rb_treeIN3cpr21AcceptEncodingMethodsESt4pairIKS1_NSt7__cxx1112basic_stringIcSt11char_traitsIcESaIcEEEESt10_Select1stISA_ESt4lessIS1_ESaISA_EE3endEv;	.scl	2;	.type	32;	.endef
	.seh_proc	_ZNSt8_Rb_treeIN3cpr21AcceptEncodingMethodsESt4pairIKS1_NSt7__cxx1112basic_stringIcSt11char_traitsIcESaIcEEEESt10_Select1stISA_ESt4lessIS1_ESaISA_EE3endEv
_ZNSt8_Rb_treeIN3cpr21AcceptEncodingMethodsESt4pairIKS1_NSt7__cxx1112basic_stringIcSt11char_traitsIcESaIcEEEESt10_Select1stISA_ESt4lessIS1_ESaISA_EE3endEv:
.LFB14726:
	pushq	%rbp
	.seh_pushreg	%rbp
	movq	%rsp, %rbp
	.seh_setframe	%rbp, 0
	subq	$48, %rsp
	.seh_stackalloc	48
	.seh_endprologue
	movq	%rcx, 16(%rbp)
	movq	16(%rbp), %rax
	leaq	8(%rax), %rdx
	leaq	-8(%rbp), %rax
	movq	%rax, %rcx
	call	_ZNSt17_Rb_tree_iteratorISt4pairIKN3cpr21AcceptEncodingMethodsENSt7__cxx1112basic_stringIcSt11char_traitsIcESaIcEEEEEC1EPSt18_Rb_tree_node_base
	movq	-8(%rbp), %rax
	addq	$48, %rsp
	popq	%rbp
	ret
	.seh_endproc
	.section	.text$_ZNSt23_Rb_tree_const_iteratorISt4pairIKN3cpr21AcceptEncodingMethodsENSt7__cxx1112basic_stringIcSt11char_traitsIcESaIcEEEEEC1ERKSt17_Rb_tree_iteratorISA_E,"x"
	.linkonce discard
	.align 2
	.globl	_ZNSt23_Rb_tree_const_iteratorISt4pairIKN3cpr21AcceptEncodingMethodsENSt7__cxx1112basic_stringIcSt11char_traitsIcESaIcEEEEEC1ERKSt17_Rb_tree_iteratorISA_E
	.def	_ZNSt23_Rb_tree_const_iteratorISt4pairIKN3cpr21AcceptEncodingMethodsENSt7__cxx1112basic_stringIcSt11char_traitsIcESaIcEEEEEC1ERKSt17_Rb_tree_iteratorISA_E;	.scl	2;	.type	32;	.endef
	.seh_proc	_ZNSt23_Rb_tree_const_iteratorISt4pairIKN3cpr21AcceptEncodingMethodsENSt7__cxx1112basic_stringIcSt11char_traitsIcESaIcEEEEEC1ERKSt17_Rb_tree_iteratorISA_E
_ZNSt23_Rb_tree_const_iteratorISt4pairIKN3cpr21AcceptEncodingMethodsENSt7__cxx1112basic_stringIcSt11char_traitsIcESaIcEEEEEC1ERKSt17_Rb_tree_iteratorISA_E:
.LFB14729:
	pushq	%rbp
	.seh_pushreg	%rbp
	movq	%rsp, %rbp
	.seh_setframe	%rbp, 0
	.seh_endprologue
	movq	%rcx, 16(%rbp)
	movq	%rdx, 24(%rbp)
	movq	24(%rbp), %rax
	movq	(%rax), %rdx
	movq	16(%rbp), %rax
	movq	%rdx, (%rax)
	nop
	popq	%rbp
	ret
	.seh_endproc
	.section	.text$_ZNSt8_Rb_treeIN3cpr21AcceptEncodingMethodsESt4pairIKS1_NSt7__cxx1112basic_stringIcSt11char_traitsIcESaIcEEEESt10_Select1stISA_ESt4lessIS1_ESaISA_EE17_M_insert_unique_IRKSA_NSG_11_Alloc_nodeEEESt17_Rb_tree_iteratorISA_ESt23_Rb_tree_const_iteratorISA_EOT_RT0_,"x"
	.linkonce discard
	.align 2
	.globl	_ZNSt8_Rb_treeIN3cpr21AcceptEncodingMethodsESt4pairIKS1_NSt7__cxx1112basic_stringIcSt11char_traitsIcESaIcEEEESt10_Select1stISA_ESt4lessIS1_ESaISA_EE17_M_insert_unique_IRKSA_NSG_11_Alloc_nodeEEESt17_Rb_tree_iteratorISA_ESt23_Rb_tree_const_iteratorISA_EOT_RT0_
	.def	_ZNSt8_Rb_treeIN3cpr21AcceptEncodingMethodsESt4pairIKS1_NSt7__cxx1112basic_stringIcSt11char_traitsIcESaIcEEEESt10_Select1stISA_ESt4lessIS1_ESaISA_EE17_M_insert_unique_IRKSA_NSG_11_Alloc_nodeEEESt17_Rb_tree_iteratorISA_ESt23_Rb_tree_const_iteratorISA_EOT_RT0_;	.scl	2;	.type	32;	.endef
	.seh_proc	_ZNSt8_Rb_treeIN3cpr21AcceptEncodingMethodsESt4pairIKS1_NSt7__cxx1112basic_stringIcSt11char_traitsIcESaIcEEEESt10_Select1stISA_ESt4lessIS1_ESaISA_EE17_M_insert_unique_IRKSA_NSG_11_Alloc_nodeEEESt17_Rb_tree_iteratorISA_ESt23_Rb_tree_const_iteratorISA_EOT_RT0_
_ZNSt8_Rb_treeIN3cpr21AcceptEncodingMethodsESt4pairIKS1_NSt7__cxx1112basic_stringIcSt11char_traitsIcESaIcEEEESt10_Select1stISA_ESt4lessIS1_ESaISA_EE17_M_insert_unique_IRKSA_NSG_11_Alloc_nodeEEESt17_Rb_tree_iteratorISA_ESt23_Rb_tree_const_iteratorISA_EOT_RT0_:
.LFB14730:
	pushq	%rbp
	.seh_pushreg	%rbp
	movq	%rsp, %rbp
	.seh_setframe	%rbp, 0
	subq	$80, %rsp
	.seh_stackalloc	80
	.seh_endprologue
	movq	%rcx, 16(%rbp)
	movq	%rdx, 24(%rbp)
	movq	%r8, 32(%rbp)
	movq	%r9, 40(%rbp)
	movq	32(%rbp), %rdx
	leaq	-9(%rbp), %rax
	movq	%rax, %rcx
	call	_ZNKSt10_Select1stISt4pairIKN3cpr21AcceptEncodingMethodsENSt7__cxx1112basic_stringIcSt11char_traitsIcESaIcEEEEEclERKSA_
	movq	%rax, %rcx
	leaq	-32(%rbp), %rax
	movq	24(%rbp), %r8
	movq	16(%rbp), %rdx
	movq	%rcx, %r9
	movq	%rax, %rcx
	call	_ZNSt8_Rb_treeIN3cpr21AcceptEncodingMethodsESt4pairIKS1_NSt7__cxx1112basic_stringIcSt11char_traitsIcESaIcEEEESt10_Select1stISA_ESt4lessIS1_ESaISA_EE29_M_get_insert_hint_unique_posESt23_Rb_tree_const_iteratorISA_ERS3_
	movq	-24(%rbp), %rax
	testq	%rax, %rax
	je	.L141
	movq	32(%rbp), %rax
	movq	%rax, %rcx
	call	_ZSt7forwardIRKSt4pairIKN3cpr21AcceptEncodingMethodsENSt7__cxx1112basic_stringIcSt11char_traitsIcESaIcEEEEEOT_RNSt16remove_referenceISD_E4typeE
	movq	%rax, %r8
	movq	-24(%rbp), %r10
	movq	-32(%rbp), %rdx
	movq	16(%rbp), %rax
	movq	40(%rbp), %rcx
	movq	%rcx, 32(%rsp)
	movq	%r8, %r9
	movq	%r10, %r8
	movq	%rax, %rcx
	call	_ZNSt8_Rb_treeIN3cpr21AcceptEncodingMethodsESt4pairIKS1_NSt7__cxx1112basic_stringIcSt11char_traitsIcESaIcEEEESt10_Select1stISA_ESt4lessIS1_ESaISA_EE10_M_insert_IRKSA_NSG_11_Alloc_nodeEEESt17_Rb_tree_iteratorISA_EPSt18_Rb_tree_node_baseSO_OT_RT0_
	jmp	.L143
.L141:
	movq	-32(%rbp), %rdx
	leaq	-8(%rbp), %rax
	movq	%rax, %rcx
	call	_ZNSt17_Rb_tree_iteratorISt4pairIKN3cpr21AcceptEncodingMethodsENSt7__cxx1112basic_stringIcSt11char_traitsIcESaIcEEEEEC1EPSt18_Rb_tree_node_base
	movq	-8(%rbp), %rax
.L143:
	addq	$80, %rsp
	popq	%rbp
	ret
	.seh_endproc
	.section	.text$_ZNSt15__new_allocatorISt13_Rb_tree_nodeISt4pairIKN3cpr21AcceptEncodingMethodsENSt7__cxx1112basic_stringIcSt11char_traitsIcESaIcEEEEEED2Ev,"x"
	.linkonce discard
	.align 2
	.globl	_ZNSt15__new_allocatorISt13_Rb_tree_nodeISt4pairIKN3cpr21AcceptEncodingMethodsENSt7__cxx1112basic_stringIcSt11char_traitsIcESaIcEEEEEED2Ev
	.def	_ZNSt15__new_allocatorISt13_Rb_tree_nodeISt4pairIKN3cpr21AcceptEncodingMethodsENSt7__cxx1112basic_stringIcSt11char_traitsIcESaIcEEEEEED2Ev;	.scl	2;	.type	32;	.endef
	.seh_proc	_ZNSt15__new_allocatorISt13_Rb_tree_nodeISt4pairIKN3cpr21AcceptEncodingMethodsENSt7__cxx1112basic_stringIcSt11char_traitsIcESaIcEEEEEED2Ev
_ZNSt15__new_allocatorISt13_Rb_tree_nodeISt4pairIKN3cpr21AcceptEncodingMethodsENSt7__cxx1112basic_stringIcSt11char_traitsIcESaIcEEEEEED2Ev:
.LFB15003:
	pushq	%rbp
	.seh_pushreg	%rbp
	movq	%rsp, %rbp
	.seh_setframe	%rbp, 0
	.seh_endprologue
	movq	%rcx, 16(%rbp)
	nop
	popq	%rbp
	ret
	.seh_endproc
	.section	.text$_ZSt4moveIRSaISt13_Rb_tree_nodeISt4pairIKN3cpr21AcceptEncodingMethodsENSt7__cxx1112basic_stringIcSt11char_traitsIcESaIcEEEEEEEONSt16remove_referenceIT_E4typeEOSG_,"x"
	.linkonce discard
	.globl	_ZSt4moveIRSaISt13_Rb_tree_nodeISt4pairIKN3cpr21AcceptEncodingMethodsENSt7__cxx1112basic_stringIcSt11char_traitsIcESaIcEEEEEEEONSt16remove_referenceIT_E4typeEOSG_
	.def	_ZSt4moveIRSaISt13_Rb_tree_nodeISt4pairIKN3cpr21AcceptEncodingMethodsENSt7__cxx1112basic_stringIcSt11char_traitsIcESaIcEEEEEEEONSt16remove_referenceIT_E4typeEOSG_;	.scl	2;	.type	32;	.endef
	.seh_proc	_ZSt4moveIRSaISt13_Rb_tree_nodeISt4pairIKN3cpr21AcceptEncodingMethodsENSt7__cxx1112basic_stringIcSt11char_traitsIcESaIcEEEEEEEONSt16remove_referenceIT_E4typeEOSG_
_ZSt4moveIRSaISt13_Rb_tree_nodeISt4pairIKN3cpr21AcceptEncodingMethodsENSt7__cxx1112basic_stringIcSt11char_traitsIcESaIcEEEEEEEONSt16remove_referenceIT_E4typeEOSG_:
.LFB15005:
	pushq	%rbp
	.seh_pushreg	%rbp
	movq	%rsp, %rbp
	.seh_setframe	%rbp, 0
	.seh_endprologue
	movq	%rcx, 16(%rbp)
	movq	16(%rbp), %rax
	popq	%rbp
	ret
	.seh_endproc
	.section	.text$_ZNSt20_Rb_tree_key_compareISt4lessIN3cpr21AcceptEncodingMethodsEEEC2ERKS3_,"x"
	.linkonce discard
	.align 2
	.globl	_ZNSt20_Rb_tree_key_compareISt4lessIN3cpr21AcceptEncodingMethodsEEEC2ERKS3_
	.def	_ZNSt20_Rb_tree_key_compareISt4lessIN3cpr21AcceptEncodingMethodsEEEC2ERKS3_;	.scl	2;	.type	32;	.endef
	.seh_proc	_ZNSt20_Rb_tree_key_compareISt4lessIN3cpr21AcceptEncodingMethodsEEEC2ERKS3_
_ZNSt20_Rb_tree_key_compareISt4lessIN3cpr21AcceptEncodingMethodsEEEC2ERKS3_:
.LFB15010:
	pushq	%rbp
	.seh_pushreg	%rbp
	movq	%rsp, %rbp
	.seh_setframe	%rbp, 0
	.seh_endprologue
	movq	%rcx, 16(%rbp)
	movq	%rdx, 24(%rbp)
	nop
	popq	%rbp
	ret
	.seh_endproc
	.section	.text$_ZNSt8_Rb_treeIN3cpr21AcceptEncodingMethodsESt4pairIKS1_NSt7__cxx1112basic_stringIcSt11char_traitsIcESaIcEEEESt10_Select1stISA_ESt4lessIS1_ESaISA_EE8_S_rightEPSt18_Rb_tree_node_base,"x"
	.linkonce discard
	.globl	_ZNSt8_Rb_treeIN3cpr21AcceptEncodingMethodsESt4pairIKS1_NSt7__cxx1112basic_stringIcSt11char_traitsIcESaIcEEEESt10_Select1stISA_ESt4lessIS1_ESaISA_EE8_S_rightEPSt18_Rb_tree_node_base
	.def	_ZNSt8_Rb_treeIN3cpr21AcceptEncodingMethodsESt4pairIKS1_NSt7__cxx1112basic_stringIcSt11char_traitsIcESaIcEEEESt10_Select1stISA_ESt4lessIS1_ESaISA_EE8_S_rightEPSt18_Rb_tree_node_base;	.scl	2;	.type	32;	.endef
	.seh_proc	_ZNSt8_Rb_treeIN3cpr21AcceptEncodingMethodsESt4pairIKS1_NSt7__cxx1112basic_stringIcSt11char_traitsIcESaIcEEEESt10_Select1stISA_ESt4lessIS1_ESaISA_EE8_S_rightEPSt18_Rb_tree_node_base
_ZNSt8_Rb_treeIN3cpr21AcceptEncodingMethodsESt4pairIKS1_NSt7__cxx1112basic_stringIcSt11char_traitsIcESaIcEEEESt10_Select1stISA_ESt4lessIS1_ESaISA_EE8_S_rightEPSt18_Rb_tree_node_base:
.LFB15012:
	pushq	%rbp
	.seh_pushreg	%rbp
	movq	%rsp, %rbp
	.seh_setframe	%rbp, 0
	.seh_endprologue
	movq	%rcx, 16(%rbp)
	movq	16(%rbp), %rax
	movq	24(%rax), %rax
	popq	%rbp
	ret
	.seh_endproc
	.section	.text$_ZNSt8_Rb_treeIN3cpr21AcceptEncodingMethodsESt4pairIKS1_NSt7__cxx1112basic_stringIcSt11char_traitsIcESaIcEEEESt10_Select1stISA_ESt4lessIS1_ESaISA_EE7_S_leftEPSt18_Rb_tree_node_base,"x"
	.linkonce discard
	.globl	_ZNSt8_Rb_treeIN3cpr21AcceptEncodingMethodsESt4pairIKS1_NSt7__cxx1112basic_stringIcSt11char_traitsIcESaIcEEEESt10_Select1stISA_ESt4lessIS1_ESaISA_EE7_S_leftEPSt18_Rb_tree_node_base
	.def	_ZNSt8_Rb_treeIN3cpr21AcceptEncodingMethodsESt4pairIKS1_NSt7__cxx1112basic_stringIcSt11char_traitsIcESaIcEEEESt10_Select1stISA_ESt4lessIS1_ESaISA_EE7_S_leftEPSt18_Rb_tree_node_base;	.scl	2;	.type	32;	.endef
	.seh_proc	_ZNSt8_Rb_treeIN3cpr21AcceptEncodingMethodsESt4pairIKS1_NSt7__cxx1112basic_stringIcSt11char_traitsIcESaIcEEEESt10_Select1stISA_ESt4lessIS1_ESaISA_EE7_S_leftEPSt18_Rb_tree_node_base
_ZNSt8_Rb_treeIN3cpr21AcceptEncodingMethodsESt4pairIKS1_NSt7__cxx1112basic_stringIcSt11char_traitsIcESaIcEEEESt10_Select1stISA_ESt4lessIS1_ESaISA_EE7_S_leftEPSt18_Rb_tree_node_base:
.LFB15013:
	pushq	%rbp
	.seh_pushreg	%rbp
	movq	%rsp, %rbp
	.seh_setframe	%rbp, 0
	.seh_endprologue
	movq	%rcx, 16(%rbp)
	movq	16(%rbp), %rax
	movq	16(%rax), %rax
	popq	%rbp
	ret
	.seh_endproc
	.section	.text$_ZNSt8_Rb_treeIN3cpr21AcceptEncodingMethodsESt4pairIKS1_NSt7__cxx1112basic_stringIcSt11char_traitsIcESaIcEEEESt10_Select1stISA_ESt4lessIS1_ESaISA_EE12_M_drop_nodeEPSt13_Rb_tree_nodeISA_E,"x"
	.linkonce discard
	.align 2
	.globl	_ZNSt8_Rb_treeIN3cpr21AcceptEncodingMethodsESt4pairIKS1_NSt7__cxx1112basic_stringIcSt11char_traitsIcESaIcEEEESt10_Select1stISA_ESt4lessIS1_ESaISA_EE12_M_drop_nodeEPSt13_Rb_tree_nodeISA_E
	.def	_ZNSt8_Rb_treeIN3cpr21AcceptEncodingMethodsESt4pairIKS1_NSt7__cxx1112basic_stringIcSt11char_traitsIcESaIcEEEESt10_Select1stISA_ESt4lessIS1_ESaISA_EE12_M_drop_nodeEPSt13_Rb_tree_nodeISA_E;	.scl	2;	.type	32;	.endef
	.seh_proc	_ZNSt8_Rb_treeIN3cpr21AcceptEncodingMethodsESt4pairIKS1_NSt7__cxx1112basic_stringIcSt11char_traitsIcESaIcEEEESt10_Select1stISA_ESt4lessIS1_ESaISA_EE12_M_drop_nodeEPSt13_Rb_tree_nodeISA_E
_ZNSt8_Rb_treeIN3cpr21AcceptEncodingMethodsESt4pairIKS1_NSt7__cxx1112basic_stringIcSt11char_traitsIcESaIcEEEESt10_Select1stISA_ESt4lessIS1_ESaISA_EE12_M_drop_nodeEPSt13_Rb_tree_nodeISA_E:
.LFB15014:
	pushq	%rbp
	.seh_pushreg	%rbp
	movq	%rsp, %rbp
	.seh_setframe	%rbp, 0
	subq	$32, %rsp
	.seh_stackalloc	32
	.seh_endprologue
	movq	%rcx, 16(%rbp)
	movq	%rdx, 24(%rbp)
	movq	24(%rbp), %rdx
	movq	16(%rbp), %rax
	movq	%rax, %rcx
	call	_ZNSt8_Rb_treeIN3cpr21AcceptEncodingMethodsESt4pairIKS1_NSt7__cxx1112basic_stringIcSt11char_traitsIcESaIcEEEESt10_Select1stISA_ESt4lessIS1_ESaISA_EE15_M_destroy_nodeEPSt13_Rb_tree_nodeISA_E
	movq	24(%rbp), %rdx
	movq	16(%rbp), %rax
	movq	%rax, %rcx
	call	_ZNSt8_Rb_treeIN3cpr21AcceptEncodingMethodsESt4pairIKS1_NSt7__cxx1112basic_stringIcSt11char_traitsIcESaIcEEEESt10_Select1stISA_ESt4lessIS1_ESaISA_EE11_M_put_nodeEPSt13_Rb_tree_nodeISA_E
	nop
	addq	$32, %rsp
	popq	%rbp
	ret
	.seh_endproc
	.section	.text$_ZNKSt8_Rb_treeIN3cpr21AcceptEncodingMethodsESt4pairIKS1_NSt7__cxx1112basic_stringIcSt11char_traitsIcESaIcEEEESt10_Select1stISA_ESt4lessIS1_ESaISA_EE9_M_mbeginEv,"x"
	.linkonce discard
	.align 2
	.globl	_ZNKSt8_Rb_treeIN3cpr21AcceptEncodingMethodsESt4pairIKS1_NSt7__cxx1112basic_stringIcSt11char_traitsIcESaIcEEEESt10_Select1stISA_ESt4lessIS1_ESaISA_EE9_M_mbeginEv
	.def	_ZNKSt8_Rb_treeIN3cpr21AcceptEncodingMethodsESt4pairIKS1_NSt7__cxx1112basic_stringIcSt11char_traitsIcESaIcEEEESt10_Select1stISA_ESt4lessIS1_ESaISA_EE9_M_mbeginEv;	.scl	2;	.type	32;	.endef
	.seh_proc	_ZNKSt8_Rb_treeIN3cpr21AcceptEncodingMethodsESt4pairIKS1_NSt7__cxx1112basic_stringIcSt11char_traitsIcESaIcEEEESt10_Select1stISA_ESt4lessIS1_ESaISA_EE9_M_mbeginEv
_ZNKSt8_Rb_treeIN3cpr21AcceptEncodingMethodsESt4pairIKS1_NSt7__cxx1112basic_stringIcSt11char_traitsIcESaIcEEEESt10_Select1stISA_ESt4lessIS1_ESaISA_EE9_M_mbeginEv:
.LFB15015:
	pushq	%rbp
	.seh_pushreg	%rbp
	movq	%rsp, %rbp
	.seh_setframe	%rbp, 0
	.seh_endprologue
	movq	%rcx, 16(%rbp)
	movq	16(%rbp), %rax
	movq	16(%rax), %rax
	popq	%rbp
	ret
	.seh_endproc
	.section	.text$_ZNSt17_Rb_tree_iteratorISt4pairIKN3cpr21AcceptEncodingMethodsENSt7__cxx1112basic_stringIcSt11char_traitsIcESaIcEEEEEC1EPSt18_Rb_tree_node_base,"x"
	.linkonce discard
	.align 2
	.globl	_ZNSt17_Rb_tree_iteratorISt4pairIKN3cpr21AcceptEncodingMethodsENSt7__cxx1112basic_stringIcSt11char_traitsIcESaIcEEEEEC1EPSt18_Rb_tree_node_base
	.def	_ZNSt17_Rb_tree_iteratorISt4pairIKN3cpr21AcceptEncodingMethodsENSt7__cxx1112basic_stringIcSt11char_traitsIcESaIcEEEEEC1EPSt18_Rb_tree_node_base;	.scl	2;	.type	32;	.endef
	.seh_proc	_ZNSt17_Rb_tree_iteratorISt4pairIKN3cpr21AcceptEncodingMethodsENSt7__cxx1112basic_stringIcSt11char_traitsIcESaIcEEEEEC1EPSt18_Rb_tree_node_base
_ZNSt17_Rb_tree_iteratorISt4pairIKN3cpr21AcceptEncodingMethodsENSt7__cxx1112basic_stringIcSt11char_traitsIcESaIcEEEEEC1EPSt18_Rb_tree_node_base:
.LFB15018:
	pushq	%rbp
	.seh_pushreg	%rbp
	movq	%rsp, %rbp
	.seh_setframe	%rbp, 0
	.seh_endprologue
	movq	%rcx, 16(%rbp)
	movq	%rdx, 24(%rbp)
	movq	16(%rbp), %rax
	movq	24(%rbp), %rdx
	movq	%rdx, (%rax)
	nop
	popq	%rbp
	ret
	.seh_endproc
	.section	.text$_ZNSt8_Rb_treeIN3cpr21AcceptEncodingMethodsESt4pairIKS1_NSt7__cxx1112basic_stringIcSt11char_traitsIcESaIcEEEESt10_Select1stISA_ESt4lessIS1_ESaISA_EE29_M_get_insert_hint_unique_posESt23_Rb_tree_const_iteratorISA_ERS3_,"x"
	.linkonce discard
	.align 2
	.globl	_ZNSt8_Rb_treeIN3cpr21AcceptEncodingMethodsESt4pairIKS1_NSt7__cxx1112basic_stringIcSt11char_traitsIcESaIcEEEESt10_Select1stISA_ESt4lessIS1_ESaISA_EE29_M_get_insert_hint_unique_posESt23_Rb_tree_const_iteratorISA_ERS3_
	.def	_ZNSt8_Rb_treeIN3cpr21AcceptEncodingMethodsESt4pairIKS1_NSt7__cxx1112basic_stringIcSt11char_traitsIcESaIcEEEESt10_Select1stISA_ESt4lessIS1_ESaISA_EE29_M_get_insert_hint_unique_posESt23_Rb_tree_const_iteratorISA_ERS3_;	.scl	2;	.type	32;	.endef
	.seh_proc	_ZNSt8_Rb_treeIN3cpr21AcceptEncodingMethodsESt4pairIKS1_NSt7__cxx1112basic_stringIcSt11char_traitsIcESaIcEEEESt10_Select1stISA_ESt4lessIS1_ESaISA_EE29_M_get_insert_hint_unique_posESt23_Rb_tree_const_iteratorISA_ERS3_
_ZNSt8_Rb_treeIN3cpr21AcceptEncodingMethodsESt4pairIKS1_NSt7__cxx1112basic_stringIcSt11char_traitsIcESaIcEEEESt10_Select1stISA_ESt4lessIS1_ESaISA_EE29_M_get_insert_hint_unique_posESt23_Rb_tree_const_iteratorISA_ERS3_:
.LFB15019:
	pushq	%rbp
	.seh_pushreg	%rbp
	pushq	%rbx
	.seh_pushreg	%rbx
	subq	$104, %rsp
	.seh_stackalloc	104
	leaq	96(%rsp), %rbp
	.seh_setframe	%rbp, 96
	.seh_endprologue
	movq	%rcx, 32(%rbp)
	movq	%rdx, 40(%rbp)
	movq	%r8, 48(%rbp)
	movq	%r9, 56(%rbp)
	leaq	48(%rbp), %rax
	movq	%rax, %rcx
	call	_ZNKSt23_Rb_tree_const_iteratorISt4pairIKN3cpr21AcceptEncodingMethodsENSt7__cxx1112basic_stringIcSt11char_traitsIcESaIcEEEEE13_M_const_castEv
	movq	%rax, -48(%rbp)
	movq	-48(%rbp), %rbx
	movq	40(%rbp), %rax
	movq	%rax, %rcx
	call	_ZNSt8_Rb_treeIN3cpr21AcceptEncodingMethodsESt4pairIKS1_NSt7__cxx1112basic_stringIcSt11char_traitsIcESaIcEEEESt10_Select1stISA_ESt4lessIS1_ESaISA_EE6_M_endEv
	cmpq	%rax, %rbx
	sete	%al
	testb	%al, %al
	je	.L157
	movq	40(%rbp), %rax
	movq	%rax, %rcx
	call	_ZNKSt8_Rb_treeIN3cpr21AcceptEncodingMethodsESt4pairIKS1_NSt7__cxx1112basic_stringIcSt11char_traitsIcESaIcEEEESt10_Select1stISA_ESt4lessIS1_ESaISA_EE4sizeEv
	testq	%rax, %rax
	je	.L158
	movq	40(%rbp), %rbx
	movq	40(%rbp), %rax
	movq	%rax, %rcx
	call	_ZNSt8_Rb_treeIN3cpr21AcceptEncodingMethodsESt4pairIKS1_NSt7__cxx1112basic_stringIcSt11char_traitsIcESaIcEEEESt10_Select1stISA_ESt4lessIS1_ESaISA_EE12_M_rightmostEv
	movq	(%rax), %rax
	movq	%rax, %rcx
	call	_ZNSt8_Rb_treeIN3cpr21AcceptEncodingMethodsESt4pairIKS1_NSt7__cxx1112basic_stringIcSt11char_traitsIcESaIcEEEESt10_Select1stISA_ESt4lessIS1_ESaISA_EE6_S_keyEPKSt18_Rb_tree_node_base
	movq	56(%rbp), %rdx
	movq	%rdx, %r8
	movq	%rax, %rdx
	movq	%rbx, %rcx
	call	_ZNKSt4lessIN3cpr21AcceptEncodingMethodsEEclERKS1_S4_
	testb	%al, %al
	je	.L158
	movl	$1, %eax
	jmp	.L159
.L158:
	movl	$0, %eax
.L159:
	testb	%al, %al
	je	.L160
	movq	40(%rbp), %rax
	movq	%rax, %rcx
	call	_ZNSt8_Rb_treeIN3cpr21AcceptEncodingMethodsESt4pairIKS1_NSt7__cxx1112basic_stringIcSt11char_traitsIcESaIcEEEESt10_Select1stISA_ESt4lessIS1_ESaISA_EE12_M_rightmostEv
	movq	%rax, %rcx
	movq	$0, -40(%rbp)
	leaq	-40(%rbp), %rdx
	movq	32(%rbp), %rax
	movq	%rcx, %r8
	movq	%rax, %rcx
	call	_ZNSt4pairIPSt18_Rb_tree_node_baseS1_EC1IS1_S1_Lb1EEERKS1_S5_
	jmp	.L156
.L160:
	movq	32(%rbp), %rax
	movq	56(%rbp), %rcx
	movq	40(%rbp), %rdx
	movq	%rcx, %r8
	movq	%rax, %rcx
	call	_ZNSt8_Rb_treeIN3cpr21AcceptEncodingMethodsESt4pairIKS1_NSt7__cxx1112basic_stringIcSt11char_traitsIcESaIcEEEESt10_Select1stISA_ESt4lessIS1_ESaISA_EE24_M_get_insert_unique_posERS3_
	jmp	.L156
.L157:
	movq	40(%rbp), %rbx
	movq	-48(%rbp), %rax
	movq	%rax, %rcx
	call	_ZNSt8_Rb_treeIN3cpr21AcceptEncodingMethodsESt4pairIKS1_NSt7__cxx1112basic_stringIcSt11char_traitsIcESaIcEEEESt10_Select1stISA_ESt4lessIS1_ESaISA_EE6_S_keyEPKSt18_Rb_tree_node_base
	movq	%rax, %rdx
	movq	56(%rbp), %rax
	movq	%rdx, %r8
	movq	%rax, %rdx
	movq	%rbx, %rcx
	call	_ZNKSt4lessIN3cpr21AcceptEncodingMethodsEEclERKS1_S4_
	testb	%al, %al
	je	.L162
	movq	-48(%rbp), %rax
	movq	%rax, -56(%rbp)
	movq	-48(%rbp), %rbx
	movq	40(%rbp), %rax
	movq	%rax, %rcx
	call	_ZNSt8_Rb_treeIN3cpr21AcceptEncodingMethodsESt4pairIKS1_NSt7__cxx1112basic_stringIcSt11char_traitsIcESaIcEEEESt10_Select1stISA_ESt4lessIS1_ESaISA_EE11_M_leftmostEv
	movq	(%rax), %rax
	cmpq	%rax, %rbx
	sete	%al
	testb	%al, %al
	je	.L163
	movq	40(%rbp), %rax
	movq	%rax, %rcx
	call	_ZNSt8_Rb_treeIN3cpr21AcceptEncodingMethodsESt4pairIKS1_NSt7__cxx1112basic_stringIcSt11char_traitsIcESaIcEEEESt10_Select1stISA_ESt4lessIS1_ESaISA_EE11_M_leftmostEv
	movq	%rax, %rbx
	movq	40(%rbp), %rax
	movq	%rax, %rcx
	call	_ZNSt8_Rb_treeIN3cpr21AcceptEncodingMethodsESt4pairIKS1_NSt7__cxx1112basic_stringIcSt11char_traitsIcESaIcEEEESt10_Select1stISA_ESt4lessIS1_ESaISA_EE11_M_leftmostEv
	movq	%rax, %rdx
	movq	32(%rbp), %rax
	movq	%rbx, %r8
	movq	%rax, %rcx
	call	_ZNSt4pairIPSt18_Rb_tree_node_baseS1_EC1IRS1_S4_Lb1EEEOT_OT0_
	jmp	.L156
.L163:
	movq	40(%rbp), %rbx
	leaq	-56(%rbp), %rax
	movq	%rax, %rcx
	call	_ZNSt17_Rb_tree_iteratorISt4pairIKN3cpr21AcceptEncodingMethodsENSt7__cxx1112basic_stringIcSt11char_traitsIcESaIcEEEEEmmEv
	movq	(%rax), %rax
	movq	%rax, %rcx
	call	_ZNSt8_Rb_treeIN3cpr21AcceptEncodingMethodsESt4pairIKS1_NSt7__cxx1112basic_stringIcSt11char_traitsIcESaIcEEEESt10_Select1stISA_ESt4lessIS1_ESaISA_EE6_S_keyEPKSt18_Rb_tree_node_base
	movq	56(%rbp), %rdx
	movq	%rdx, %r8
	movq	%rax, %rdx
	movq	%rbx, %rcx
	call	_ZNKSt4lessIN3cpr21AcceptEncodingMethodsEEclERKS1_S4_
	testb	%al, %al
	je	.L165
	movq	-56(%rbp), %rax
	movq	%rax, %rcx
	call	_ZNSt8_Rb_treeIN3cpr21AcceptEncodingMethodsESt4pairIKS1_NSt7__cxx1112basic_stringIcSt11char_traitsIcESaIcEEEESt10_Select1stISA_ESt4lessIS1_ESaISA_EE8_S_rightEPSt18_Rb_tree_node_base
	testq	%rax, %rax
	sete	%al
	testb	%al, %al
	je	.L166
	movq	$0, -32(%rbp)
	leaq	-56(%rbp), %rcx
	leaq	-32(%rbp), %rdx
	movq	32(%rbp), %rax
	movq	%rcx, %r8
	movq	%rax, %rcx
	call	_ZNSt4pairIPSt18_Rb_tree_node_baseS1_EC1IS1_S1_Lb1EEERKS1_S5_
	jmp	.L156
.L166:
	leaq	-48(%rbp), %rcx
	leaq	-48(%rbp), %rdx
	movq	32(%rbp), %rax
	movq	%rcx, %r8
	movq	%rax, %rcx
	call	_ZNSt4pairIPSt18_Rb_tree_node_baseS1_EC1IRS1_S4_Lb1EEEOT_OT0_
	jmp	.L156
.L165:
	movq	32(%rbp), %rax
	movq	56(%rbp), %rcx
	movq	40(%rbp), %rdx
	movq	%rcx, %r8
	movq	%rax, %rcx
	call	_ZNSt8_Rb_treeIN3cpr21AcceptEncodingMethodsESt4pairIKS1_NSt7__cxx1112basic_stringIcSt11char_traitsIcESaIcEEEESt10_Select1stISA_ESt4lessIS1_ESaISA_EE24_M_get_insert_unique_posERS3_
	jmp	.L156
.L162:
	movq	40(%rbp), %rbx
	movq	-48(%rbp), %rax
	movq	%rax, %rcx
	call	_ZNSt8_Rb_treeIN3cpr21AcceptEncodingMethodsESt4pairIKS1_NSt7__cxx1112basic_stringIcSt11char_traitsIcESaIcEEEESt10_Select1stISA_ESt4lessIS1_ESaISA_EE6_S_keyEPKSt18_Rb_tree_node_base
	movq	56(%rbp), %rdx
	movq	%rdx, %r8
	movq	%rax, %rdx
	movq	%rbx, %rcx
	call	_ZNKSt4lessIN3cpr21AcceptEncodingMethodsEEclERKS1_S4_
	testb	%al, %al
	je	.L167
	movq	-48(%rbp), %rax
	movq	%rax, -64(%rbp)
	movq	-48(%rbp), %rbx
	movq	40(%rbp), %rax
	movq	%rax, %rcx
	call	_ZNSt8_Rb_treeIN3cpr21AcceptEncodingMethodsESt4pairIKS1_NSt7__cxx1112basic_stringIcSt11char_traitsIcESaIcEEEESt10_Select1stISA_ESt4lessIS1_ESaISA_EE12_M_rightmostEv
	movq	(%rax), %rax
	cmpq	%rax, %rbx
	sete	%al
	testb	%al, %al
	je	.L168
	movq	40(%rbp), %rax
	movq	%rax, %rcx
	call	_ZNSt8_Rb_treeIN3cpr21AcceptEncodingMethodsESt4pairIKS1_NSt7__cxx1112basic_stringIcSt11char_traitsIcESaIcEEEESt10_Select1stISA_ESt4lessIS1_ESaISA_EE12_M_rightmostEv
	movq	%rax, %rcx
	movq	$0, -24(%rbp)
	leaq	-24(%rbp), %rdx
	movq	32(%rbp), %rax
	movq	%rcx, %r8
	movq	%rax, %rcx
	call	_ZNSt4pairIPSt18_Rb_tree_node_baseS1_EC1IS1_S1_Lb1EEERKS1_S5_
	jmp	.L156
.L168:
	movq	40(%rbp), %rbx
	leaq	-64(%rbp), %rax
	movq	%rax, %rcx
	call	_ZNSt17_Rb_tree_iteratorISt4pairIKN3cpr21AcceptEncodingMethodsENSt7__cxx1112basic_stringIcSt11char_traitsIcESaIcEEEEEppEv
	movq	(%rax), %rax
	movq	%rax, %rcx
	call	_ZNSt8_Rb_treeIN3cpr21AcceptEncodingMethodsESt4pairIKS1_NSt7__cxx1112basic_stringIcSt11char_traitsIcESaIcEEEESt10_Select1stISA_ESt4lessIS1_ESaISA_EE6_S_keyEPKSt18_Rb_tree_node_base
	movq	%rax, %rdx
	movq	56(%rbp), %rax
	movq	%rdx, %r8
	movq	%rax, %rdx
	movq	%rbx, %rcx
	call	_ZNKSt4lessIN3cpr21AcceptEncodingMethodsEEclERKS1_S4_
	testb	%al, %al
	je	.L170
	movq	-48(%rbp), %rax
	movq	%rax, %rcx
	call	_ZNSt8_Rb_treeIN3cpr21AcceptEncodingMethodsESt4pairIKS1_NSt7__cxx1112basic_stringIcSt11char_traitsIcESaIcEEEESt10_Select1stISA_ESt4lessIS1_ESaISA_EE8_S_rightEPSt18_Rb_tree_node_base
	testq	%rax, %rax
	sete	%al
	testb	%al, %al
	je	.L171
	movq	$0, -16(%rbp)
	leaq	-48(%rbp), %rcx
	leaq	-16(%rbp), %rdx
	movq	32(%rbp), %rax
	movq	%rcx, %r8
	movq	%rax, %rcx
	call	_ZNSt4pairIPSt18_Rb_tree_node_baseS1_EC1IS1_S1_Lb1EEERKS1_S5_
	jmp	.L156
.L171:
	leaq	-64(%rbp), %rcx
	leaq	-64(%rbp), %rdx
	movq	32(%rbp), %rax
	movq	%rcx, %r8
	movq	%rax, %rcx
	call	_ZNSt4pairIPSt18_Rb_tree_node_baseS1_EC1IRS1_S4_Lb1EEEOT_OT0_
	jmp	.L156
.L170:
	movq	32(%rbp), %rax
	movq	56(%rbp), %rcx
	movq	40(%rbp), %rdx
	movq	%rcx, %r8
	movq	%rax, %rcx
	call	_ZNSt8_Rb_treeIN3cpr21AcceptEncodingMethodsESt4pairIKS1_NSt7__cxx1112basic_stringIcSt11char_traitsIcESaIcEEEESt10_Select1stISA_ESt4lessIS1_ESaISA_EE24_M_get_insert_unique_posERS3_
	jmp	.L156
.L167:
	movq	$0, -8(%rbp)
	leaq	-8(%rbp), %rcx
	leaq	-48(%rbp), %rdx
	movq	32(%rbp), %rax
	movq	%rcx, %r8
	movq	%rax, %rcx
	call	_ZNSt4pairIPSt18_Rb_tree_node_baseS1_EC1IS1_S1_Lb1EEERKS1_S5_
.L156:
	movq	32(%rbp), %rax
	addq	$104, %rsp
	popq	%rbx
	popq	%rbp
	ret
	.seh_endproc
	.section	.text$_ZNKSt10_Select1stISt4pairIKN3cpr21AcceptEncodingMethodsENSt7__cxx1112basic_stringIcSt11char_traitsIcESaIcEEEEEclERKSA_,"x"
	.linkonce discard
	.align 2
	.globl	_ZNKSt10_Select1stISt4pairIKN3cpr21AcceptEncodingMethodsENSt7__cxx1112basic_stringIcSt11char_traitsIcESaIcEEEEEclERKSA_
	.def	_ZNKSt10_Select1stISt4pairIKN3cpr21AcceptEncodingMethodsENSt7__cxx1112basic_stringIcSt11char_traitsIcESaIcEEEEEclERKSA_;	.scl	2;	.type	32;	.endef
	.seh_proc	_ZNKSt10_Select1stISt4pairIKN3cpr21AcceptEncodingMethodsENSt7__cxx1112basic_stringIcSt11char_traitsIcESaIcEEEEEclERKSA_
_ZNKSt10_Select1stISt4pairIKN3cpr21AcceptEncodingMethodsENSt7__cxx1112basic_stringIcSt11char_traitsIcESaIcEEEEEclERKSA_:
.LFB15024:
	pushq	%rbp
	.seh_pushreg	%rbp
	movq	%rsp, %rbp
	.seh_setframe	%rbp, 0
	.seh_endprologue
	movq	%rcx, 16(%rbp)
	movq	%rdx, 24(%rbp)
	movq	24(%rbp), %rax
	popq	%rbp
	ret
	.seh_endproc
	.section	.text$_ZSt7forwardIRKSt4pairIKN3cpr21AcceptEncodingMethodsENSt7__cxx1112basic_stringIcSt11char_traitsIcESaIcEEEEEOT_RNSt16remove_referenceISD_E4typeE,"x"
	.linkonce discard
	.globl	_ZSt7forwardIRKSt4pairIKN3cpr21AcceptEncodingMethodsENSt7__cxx1112basic_stringIcSt11char_traitsIcESaIcEEEEEOT_RNSt16remove_referenceISD_E4typeE
	.def	_ZSt7forwardIRKSt4pairIKN3cpr21AcceptEncodingMethodsENSt7__cxx1112basic_stringIcSt11char_traitsIcESaIcEEEEEOT_RNSt16remove_referenceISD_E4typeE;	.scl	2;	.type	32;	.endef
	.seh_proc	_ZSt7forwardIRKSt4pairIKN3cpr21AcceptEncodingMethodsENSt7__cxx1112basic_stringIcSt11char_traitsIcESaIcEEEEEOT_RNSt16remove_referenceISD_E4typeE
_ZSt7forwardIRKSt4pairIKN3cpr21AcceptEncodingMethodsENSt7__cxx1112basic_stringIcSt11char_traitsIcESaIcEEEEEOT_RNSt16remove_referenceISD_E4typeE:
.LFB15025:
	pushq	%rbp
	.seh_pushreg	%rbp
	movq	%rsp, %rbp
	.seh_setframe	%rbp, 0
	.seh_endprologue
	movq	%rcx, 16(%rbp)
	movq	16(%rbp), %rax
	popq	%rbp
	ret
	.seh_endproc
	.section	.text$_ZNSt8_Rb_treeIN3cpr21AcceptEncodingMethodsESt4pairIKS1_NSt7__cxx1112basic_stringIcSt11char_traitsIcESaIcEEEESt10_Select1stISA_ESt4lessIS1_ESaISA_EE10_M_insert_IRKSA_NSG_11_Alloc_nodeEEESt17_Rb_tree_iteratorISA_EPSt18_Rb_tree_node_baseSO_OT_RT0_,"x"
	.linkonce discard
	.align 2
	.globl	_ZNSt8_Rb_treeIN3cpr21AcceptEncodingMethodsESt4pairIKS1_NSt7__cxx1112basic_stringIcSt11char_traitsIcESaIcEEEESt10_Select1stISA_ESt4lessIS1_ESaISA_EE10_M_insert_IRKSA_NSG_11_Alloc_nodeEEESt17_Rb_tree_iteratorISA_EPSt18_Rb_tree_node_baseSO_OT_RT0_
	.def	_ZNSt8_Rb_treeIN3cpr21AcceptEncodingMethodsESt4pairIKS1_NSt7__cxx1112basic_stringIcSt11char_traitsIcESaIcEEEESt10_Select1stISA_ESt4lessIS1_ESaISA_EE10_M_insert_IRKSA_NSG_11_Alloc_nodeEEESt17_Rb_tree_iteratorISA_EPSt18_Rb_tree_node_baseSO_OT_RT0_;	.scl	2;	.type	32;	.endef
	.seh_proc	_ZNSt8_Rb_treeIN3cpr21AcceptEncodingMethodsESt4pairIKS1_NSt7__cxx1112basic_stringIcSt11char_traitsIcESaIcEEEESt10_Select1stISA_ESt4lessIS1_ESaISA_EE10_M_insert_IRKSA_NSG_11_Alloc_nodeEEESt17_Rb_tree_iteratorISA_EPSt18_Rb_tree_node_baseSO_OT_RT0_
_ZNSt8_Rb_treeIN3cpr21AcceptEncodingMethodsESt4pairIKS1_NSt7__cxx1112basic_stringIcSt11char_traitsIcESaIcEEEESt10_Select1stISA_ESt4lessIS1_ESaISA_EE10_M_insert_IRKSA_NSG_11_Alloc_nodeEEESt17_Rb_tree_iteratorISA_EPSt18_Rb_tree_node_baseSO_OT_RT0_:
.LFB15026:
	pushq	%rbp
	.seh_pushreg	%rbp
	pushq	%rsi
	.seh_pushreg	%rsi
	pushq	%rbx
	.seh_pushreg	%rbx
	subq	$64, %rsp
	.seh_stackalloc	64
	leaq	64(%rsp), %rbp
	.seh_setframe	%rbp, 64
	.seh_endprologue
	movq	%rcx, 32(%rbp)
	movq	%rdx, 40(%rbp)
	movq	%r8, 48(%rbp)
	movq	%r9, 56(%rbp)
	cmpq	$0, 40(%rbp)
	jne	.L178
	movq	32(%rbp), %rax
	movq	%rax, %rcx
	call	_ZNSt8_Rb_treeIN3cpr21AcceptEncodingMethodsESt4pairIKS1_NSt7__cxx1112basic_stringIcSt11char_traitsIcESaIcEEEESt10_Select1stISA_ESt4lessIS1_ESaISA_EE6_M_endEv
	cmpq	%rax, 48(%rbp)
	je	.L178
	movq	32(%rbp), %rbx
	movq	48(%rbp), %rax
	movq	%rax, %rcx
	call	_ZNSt8_Rb_treeIN3cpr21AcceptEncodingMethodsESt4pairIKS1_NSt7__cxx1112basic_stringIcSt11char_traitsIcESaIcEEEESt10_Select1stISA_ESt4lessIS1_ESaISA_EE6_S_keyEPKSt18_Rb_tree_node_base
	movq	%rax, %rsi
	movq	56(%rbp), %rdx
	leaq	-25(%rbp), %rax
	movq	%rax, %rcx
	call	_ZNKSt10_Select1stISt4pairIKN3cpr21AcceptEncodingMethodsENSt7__cxx1112basic_stringIcSt11char_traitsIcESaIcEEEEEclERKSA_
	movq	%rsi, %r8
	movq	%rax, %rdx
	movq	%rbx, %rcx
	call	_ZNKSt4lessIN3cpr21AcceptEncodingMethodsEEclERKS1_S4_
	testb	%al, %al
	je	.L179
.L178:
	movl	$1, %eax
	jmp	.L180
.L179:
	movl	$0, %eax
.L180:
	movb	%al, -1(%rbp)
	movq	56(%rbp), %rax
	movq	%rax, %rcx
	call	_ZSt7forwardIRKSt4pairIKN3cpr21AcceptEncodingMethodsENSt7__cxx1112basic_stringIcSt11char_traitsIcESaIcEEEEEOT_RNSt16remove_referenceISD_E4typeE
	movq	%rax, %rdx
	movq	64(%rbp), %rax
	movq	%rax, %rcx
	call	_ZNKSt8_Rb_treeIN3cpr21AcceptEncodingMethodsESt4pairIKS1_NSt7__cxx1112basic_stringIcSt11char_traitsIcESaIcEEEESt10_Select1stISA_ESt4lessIS1_ESaISA_EE11_Alloc_nodeclIRKSA_EEPSt13_Rb_tree_nodeISA_EOT_
	movq	%rax, -16(%rbp)
	movq	32(%rbp), %rax
	leaq	8(%rax), %r8
	movzbl	-1(%rbp), %eax
	movq	48(%rbp), %rcx
	movq	-16(%rbp), %rdx
	movq	%r8, %r9
	movq	%rcx, %r8
	movl	%eax, %ecx
	call	_ZSt29_Rb_tree_insert_and_rebalancebPSt18_Rb_tree_node_baseS0_RS_
	movq	32(%rbp), %rax
	movq	40(%rax), %rax
	leaq	1(%rax), %rdx
	movq	32(%rbp), %rax
	movq	%rdx, 40(%rax)
	movq	-16(%rbp), %rdx
	leaq	-24(%rbp), %rax
	movq	%rax, %rcx
	call	_ZNSt17_Rb_tree_iteratorISt4pairIKN3cpr21AcceptEncodingMethodsENSt7__cxx1112basic_stringIcSt11char_traitsIcESaIcEEEEEC1EPSt18_Rb_tree_node_base
	movq	-24(%rbp), %rax
	addq	$64, %rsp
	popq	%rbx
	popq	%rsi
	popq	%rbp
	ret
	.seh_endproc
	.section	.text$_ZNSt4pairIPSt18_Rb_tree_node_baseS1_EC1IS1_S1_Lb1EEERKS1_S5_,"x"
	.linkonce discard
	.align 2
	.globl	_ZNSt4pairIPSt18_Rb_tree_node_baseS1_EC1IS1_S1_Lb1EEERKS1_S5_
	.def	_ZNSt4pairIPSt18_Rb_tree_node_baseS1_EC1IS1_S1_Lb1EEERKS1_S5_;	.scl	2;	.type	32;	.endef
	.seh_proc	_ZNSt4pairIPSt18_Rb_tree_node_baseS1_EC1IS1_S1_Lb1EEERKS1_S5_
_ZNSt4pairIPSt18_Rb_tree_node_baseS1_EC1IS1_S1_Lb1EEERKS1_S5_:
.LFB15107:
	pushq	%rbp
	.seh_pushreg	%rbp
	movq	%rsp, %rbp
	.seh_setframe	%rbp, 0
	.seh_endprologue
	movq	%rcx, 16(%rbp)
	movq	%rdx, 24(%rbp)
	movq	%r8, 32(%rbp)
	movq	24(%rbp), %rax
	movq	(%rax), %rdx
	movq	16(%rbp), %rax
	movq	%rdx, (%rax)
	movq	32(%rbp), %rax
	movq	(%rax), %rdx
	movq	16(%rbp), %rax
	movq	%rdx, 8(%rax)
	nop
	popq	%rbp
	ret
	.seh_endproc
	.section	.text$_ZNSt8_Rb_treeIN3cpr21AcceptEncodingMethodsESt4pairIKS1_NSt7__cxx1112basic_stringIcSt11char_traitsIcESaIcEEEESt10_Select1stISA_ESt4lessIS1_ESaISA_EE15_M_destroy_nodeEPSt13_Rb_tree_nodeISA_E,"x"
	.linkonce discard
	.align 2
	.globl	_ZNSt8_Rb_treeIN3cpr21AcceptEncodingMethodsESt4pairIKS1_NSt7__cxx1112basic_stringIcSt11char_traitsIcESaIcEEEESt10_Select1stISA_ESt4lessIS1_ESaISA_EE15_M_destroy_nodeEPSt13_Rb_tree_nodeISA_E
	.def	_ZNSt8_Rb_treeIN3cpr21AcceptEncodingMethodsESt4pairIKS1_NSt7__cxx1112basic_stringIcSt11char_traitsIcESaIcEEEESt10_Select1stISA_ESt4lessIS1_ESaISA_EE15_M_destroy_nodeEPSt13_Rb_tree_nodeISA_E;	.scl	2;	.type	32;	.endef
	.seh_proc	_ZNSt8_Rb_treeIN3cpr21AcceptEncodingMethodsESt4pairIKS1_NSt7__cxx1112basic_stringIcSt11char_traitsIcESaIcEEEESt10_Select1stISA_ESt4lessIS1_ESaISA_EE15_M_destroy_nodeEPSt13_Rb_tree_nodeISA_E
_ZNSt8_Rb_treeIN3cpr21AcceptEncodingMethodsESt4pairIKS1_NSt7__cxx1112basic_stringIcSt11char_traitsIcESaIcEEEESt10_Select1stISA_ESt4lessIS1_ESaISA_EE15_M_destroy_nodeEPSt13_Rb_tree_nodeISA_E:
.LFB15233:
	pushq	%rbp
	.seh_pushreg	%rbp
	pushq	%rbx
	.seh_pushreg	%rbx
	subq	$72, %rsp
	.seh_stackalloc	72
	leaq	64(%rsp), %rbp
	.seh_setframe	%rbp, 64
	.seh_endprologue
	movq	%rcx, 32(%rbp)
	movq	%rdx, 40(%rbp)
	movq	40(%rbp), %rax
	movq	%rax, %rcx
	call	_ZNSt13_Rb_tree_nodeISt4pairIKN3cpr21AcceptEncodingMethodsENSt7__cxx1112basic_stringIcSt11char_traitsIcESaIcEEEEE9_M_valptrEv
	movq	%rax, %rbx
	movq	32(%rbp), %rax
	movq	%rax, %rcx
	call	_ZNSt8_Rb_treeIN3cpr21AcceptEncodingMethodsESt4pairIKS1_NSt7__cxx1112basic_stringIcSt11char_traitsIcESaIcEEEESt10_Select1stISA_ESt4lessIS1_ESaISA_EE21_M_get_Node_allocatorEv
	movq	%rax, -8(%rbp)
	movq	%rbx, -16(%rbp)
	movq	-16(%rbp), %rax
	movq	%rax, -24(%rbp)
	movq	-8(%rbp), %rax
	movq	%rax, -32(%rbp)
	movq	-24(%rbp), %rax
	movq	%rax, %rcx
	call	_ZNSt4pairIKN3cpr21AcceptEncodingMethodsENSt7__cxx1112basic_stringIcSt11char_traitsIcESaIcEEEED1Ev
	nop
	nop
	nop
	addq	$72, %rsp
	popq	%rbx
	popq	%rbp
	ret
	.seh_endproc
	.section	.text$_ZNSt8_Rb_treeIN3cpr21AcceptEncodingMethodsESt4pairIKS1_NSt7__cxx1112basic_stringIcSt11char_traitsIcESaIcEEEESt10_Select1stISA_ESt4lessIS1_ESaISA_EE11_M_put_nodeEPSt13_Rb_tree_nodeISA_E,"x"
	.linkonce discard
	.align 2
	.globl	_ZNSt8_Rb_treeIN3cpr21AcceptEncodingMethodsESt4pairIKS1_NSt7__cxx1112basic_stringIcSt11char_traitsIcESaIcEEEESt10_Select1stISA_ESt4lessIS1_ESaISA_EE11_M_put_nodeEPSt13_Rb_tree_nodeISA_E
	.def	_ZNSt8_Rb_treeIN3cpr21AcceptEncodingMethodsESt4pairIKS1_NSt7__cxx1112basic_stringIcSt11char_traitsIcESaIcEEEESt10_Select1stISA_ESt4lessIS1_ESaISA_EE11_M_put_nodeEPSt13_Rb_tree_nodeISA_E;	.scl	2;	.type	32;	.endef
	.seh_proc	_ZNSt8_Rb_treeIN3cpr21AcceptEncodingMethodsESt4pairIKS1_NSt7__cxx1112basic_stringIcSt11char_traitsIcESaIcEEEESt10_Select1stISA_ESt4lessIS1_ESaISA_EE11_M_put_nodeEPSt13_Rb_tree_nodeISA_E
_ZNSt8_Rb_treeIN3cpr21AcceptEncodingMethodsESt4pairIKS1_NSt7__cxx1112basic_stringIcSt11char_traitsIcESaIcEEEESt10_Select1stISA_ESt4lessIS1_ESaISA_EE11_M_put_nodeEPSt13_Rb_tree_nodeISA_E:
.LFB15235:
	pushq	%rbp
	.seh_pushreg	%rbp
	movq	%rsp, %rbp
	.seh_setframe	%rbp, 0
	subq	$64, %rsp
	.seh_stackalloc	64
	.seh_endprologue
	movq	%rcx, 16(%rbp)
	movq	%rdx, 24(%rbp)
	movq	16(%rbp), %rax
	movq	%rax, %rcx
	call	_ZNSt8_Rb_treeIN3cpr21AcceptEncodingMethodsESt4pairIKS1_NSt7__cxx1112basic_stringIcSt11char_traitsIcESaIcEEEESt10_Select1stISA_ESt4lessIS1_ESaISA_EE21_M_get_Node_allocatorEv
	movq	%rax, -8(%rbp)
	movq	24(%rbp), %rax
	movq	%rax, -16(%rbp)
	movq	$1, -24(%rbp)
	movq	-24(%rbp), %rcx
	movq	-16(%rbp), %rdx
	movq	-8(%rbp), %rax
	movq	%rcx, %r8
	movq	%rax, %rcx
	call	_ZNSt15__new_allocatorISt13_Rb_tree_nodeISt4pairIKN3cpr21AcceptEncodingMethodsENSt7__cxx1112basic_stringIcSt11char_traitsIcESaIcEEEEEE10deallocateEPSC_y
	nop
	nop
	addq	$64, %rsp
	popq	%rbp
	ret
	.seh_endproc
	.section	.text$_ZNKSt23_Rb_tree_const_iteratorISt4pairIKN3cpr21AcceptEncodingMethodsENSt7__cxx1112basic_stringIcSt11char_traitsIcESaIcEEEEE13_M_const_castEv,"x"
	.linkonce discard
	.align 2
	.globl	_ZNKSt23_Rb_tree_const_iteratorISt4pairIKN3cpr21AcceptEncodingMethodsENSt7__cxx1112basic_stringIcSt11char_traitsIcESaIcEEEEE13_M_const_castEv
	.def	_ZNKSt23_Rb_tree_const_iteratorISt4pairIKN3cpr21AcceptEncodingMethodsENSt7__cxx1112basic_stringIcSt11char_traitsIcESaIcEEEEE13_M_const_castEv;	.scl	2;	.type	32;	.endef
	.seh_proc	_ZNKSt23_Rb_tree_const_iteratorISt4pairIKN3cpr21AcceptEncodingMethodsENSt7__cxx1112basic_stringIcSt11char_traitsIcESaIcEEEEE13_M_const_castEv
_ZNKSt23_Rb_tree_const_iteratorISt4pairIKN3cpr21AcceptEncodingMethodsENSt7__cxx1112basic_stringIcSt11char_traitsIcESaIcEEEEE13_M_const_castEv:
.LFB15236:
	pushq	%rbp
	.seh_pushreg	%rbp
	movq	%rsp, %rbp
	.seh_setframe	%rbp, 0
	subq	$48, %rsp
	.seh_stackalloc	48
	.seh_endprologue
	movq	%rcx, 16(%rbp)
	movq	16(%rbp), %rax
	movq	(%rax), %rdx
	leaq	-8(%rbp), %rax
	movq	%rax, %rcx
	call	_ZNSt17_Rb_tree_iteratorISt4pairIKN3cpr21AcceptEncodingMethodsENSt7__cxx1112basic_stringIcSt11char_traitsIcESaIcEEEEEC1EPSt18_Rb_tree_node_base
	movq	-8(%rbp), %rax
	addq	$48, %rsp
	popq	%rbp
	ret
	.seh_endproc
	.section	.text$_ZNSt8_Rb_treeIN3cpr21AcceptEncodingMethodsESt4pairIKS1_NSt7__cxx1112basic_stringIcSt11char_traitsIcESaIcEEEESt10_Select1stISA_ESt4lessIS1_ESaISA_EE6_M_endEv,"x"
	.linkonce discard
	.align 2
	.globl	_ZNSt8_Rb_treeIN3cpr21AcceptEncodingMethodsESt4pairIKS1_NSt7__cxx1112basic_stringIcSt11char_traitsIcESaIcEEEESt10_Select1stISA_ESt4lessIS1_ESaISA_EE6_M_endEv
	.def	_ZNSt8_Rb_treeIN3cpr21AcceptEncodingMethodsESt4pairIKS1_NSt7__cxx1112basic_stringIcSt11char_traitsIcESaIcEEEESt10_Select1stISA_ESt4lessIS1_ESaISA_EE6_M_endEv;	.scl	2;	.type	32;	.endef
	.seh_proc	_ZNSt8_Rb_treeIN3cpr21AcceptEncodingMethodsESt4pairIKS1_NSt7__cxx1112basic_stringIcSt11char_traitsIcESaIcEEEESt10_Select1stISA_ESt4lessIS1_ESaISA_EE6_M_endEv
_ZNSt8_Rb_treeIN3cpr21AcceptEncodingMethodsESt4pairIKS1_NSt7__cxx1112basic_stringIcSt11char_traitsIcESaIcEEEESt10_Select1stISA_ESt4lessIS1_ESaISA_EE6_M_endEv:
.LFB15237:
	pushq	%rbp
	.seh_pushreg	%rbp
	movq	%rsp, %rbp
	.seh_setframe	%rbp, 0
	.seh_endprologue
	movq	%rcx, 16(%rbp)
	movq	16(%rbp), %rax
	addq	$8, %rax
	popq	%rbp
	ret
	.seh_endproc
	.section	.text$_ZNKSt8_Rb_treeIN3cpr21AcceptEncodingMethodsESt4pairIKS1_NSt7__cxx1112basic_stringIcSt11char_traitsIcESaIcEEEESt10_Select1stISA_ESt4lessIS1_ESaISA_EE4sizeEv,"x"
	.linkonce discard
	.align 2
	.globl	_ZNKSt8_Rb_treeIN3cpr21AcceptEncodingMethodsESt4pairIKS1_NSt7__cxx1112basic_stringIcSt11char_traitsIcESaIcEEEESt10_Select1stISA_ESt4lessIS1_ESaISA_EE4sizeEv
	.def	_ZNKSt8_Rb_treeIN3cpr21AcceptEncodingMethodsESt4pairIKS1_NSt7__cxx1112basic_stringIcSt11char_traitsIcESaIcEEEESt10_Select1stISA_ESt4lessIS1_ESaISA_EE4sizeEv;	.scl	2;	.type	32;	.endef
	.seh_proc	_ZNKSt8_Rb_treeIN3cpr21AcceptEncodingMethodsESt4pairIKS1_NSt7__cxx1112basic_stringIcSt11char_traitsIcESaIcEEEESt10_Select1stISA_ESt4lessIS1_ESaISA_EE4sizeEv
_ZNKSt8_Rb_treeIN3cpr21AcceptEncodingMethodsESt4pairIKS1_NSt7__cxx1112basic_stringIcSt11char_traitsIcESaIcEEEESt10_Select1stISA_ESt4lessIS1_ESaISA_EE4sizeEv:
.LFB15238:
	pushq	%rbp
	.seh_pushreg	%rbp
	movq	%rsp, %rbp
	.seh_setframe	%rbp, 0
	.seh_endprologue
	movq	%rcx, 16(%rbp)
	movq	16(%rbp), %rax
	movq	40(%rax), %rax
	popq	%rbp
	ret
	.seh_endproc
	.section	.text$_ZNSt8_Rb_treeIN3cpr21AcceptEncodingMethodsESt4pairIKS1_NSt7__cxx1112basic_stringIcSt11char_traitsIcESaIcEEEESt10_Select1stISA_ESt4lessIS1_ESaISA_EE12_M_rightmostEv,"x"
	.linkonce discard
	.align 2
	.globl	_ZNSt8_Rb_treeIN3cpr21AcceptEncodingMethodsESt4pairIKS1_NSt7__cxx1112basic_stringIcSt11char_traitsIcESaIcEEEESt10_Select1stISA_ESt4lessIS1_ESaISA_EE12_M_rightmostEv
	.def	_ZNSt8_Rb_treeIN3cpr21AcceptEncodingMethodsESt4pairIKS1_NSt7__cxx1112basic_stringIcSt11char_traitsIcESaIcEEEESt10_Select1stISA_ESt4lessIS1_ESaISA_EE12_M_rightmostEv;	.scl	2;	.type	32;	.endef
	.seh_proc	_ZNSt8_Rb_treeIN3cpr21AcceptEncodingMethodsESt4pairIKS1_NSt7__cxx1112basic_stringIcSt11char_traitsIcESaIcEEEESt10_Select1stISA_ESt4lessIS1_ESaISA_EE12_M_rightmostEv
_ZNSt8_Rb_treeIN3cpr21AcceptEncodingMethodsESt4pairIKS1_NSt7__cxx1112basic_stringIcSt11char_traitsIcESaIcEEEESt10_Select1stISA_ESt4lessIS1_ESaISA_EE12_M_rightmostEv:
.LFB15239:
	pushq	%rbp
	.seh_pushreg	%rbp
	movq	%rsp, %rbp
	.seh_setframe	%rbp, 0
	.seh_endprologue
	movq	%rcx, 16(%rbp)
	movq	16(%rbp), %rax
	addq	$32, %rax
	popq	%rbp
	ret
	.seh_endproc
	.section	.text$_ZNSt8_Rb_treeIN3cpr21AcceptEncodingMethodsESt4pairIKS1_NSt7__cxx1112basic_stringIcSt11char_traitsIcESaIcEEEESt10_Select1stISA_ESt4lessIS1_ESaISA_EE6_S_keyEPKSt18_Rb_tree_node_base,"x"
	.linkonce discard
	.globl	_ZNSt8_Rb_treeIN3cpr21AcceptEncodingMethodsESt4pairIKS1_NSt7__cxx1112basic_stringIcSt11char_traitsIcESaIcEEEESt10_Select1stISA_ESt4lessIS1_ESaISA_EE6_S_keyEPKSt18_Rb_tree_node_base
	.def	_ZNSt8_Rb_treeIN3cpr21AcceptEncodingMethodsESt4pairIKS1_NSt7__cxx1112basic_stringIcSt11char_traitsIcESaIcEEEESt10_Select1stISA_ESt4lessIS1_ESaISA_EE6_S_keyEPKSt18_Rb_tree_node_base;	.scl	2;	.type	32;	.endef
	.seh_proc	_ZNSt8_Rb_treeIN3cpr21AcceptEncodingMethodsESt4pairIKS1_NSt7__cxx1112basic_stringIcSt11char_traitsIcESaIcEEEESt10_Select1stISA_ESt4lessIS1_ESaISA_EE6_S_keyEPKSt18_Rb_tree_node_base
_ZNSt8_Rb_treeIN3cpr21AcceptEncodingMethodsESt4pairIKS1_NSt7__cxx1112basic_stringIcSt11char_traitsIcESaIcEEEESt10_Select1stISA_ESt4lessIS1_ESaISA_EE6_S_keyEPKSt18_Rb_tree_node_base:
.LFB15240:
	pushq	%rbp
	.seh_pushreg	%rbp
	movq	%rsp, %rbp
	.seh_setframe	%rbp, 0
	subq	$32, %rsp
	.seh_stackalloc	32
	.seh_endprologue
	movq	%rcx, 16(%rbp)
	movq	16(%rbp), %rax
	movq	%rax, %rcx
	call	_ZNSt8_Rb_treeIN3cpr21AcceptEncodingMethodsESt4pairIKS1_NSt7__cxx1112basic_stringIcSt11char_traitsIcESaIcEEEESt10_Select1stISA_ESt4lessIS1_ESaISA_EE6_S_keyEPKSt13_Rb_tree_nodeISA_E
	addq	$32, %rsp
	popq	%rbp
	ret
	.seh_endproc
	.section	.text$_ZNKSt4lessIN3cpr21AcceptEncodingMethodsEEclERKS1_S4_,"x"
	.linkonce discard
	.align 2
	.globl	_ZNKSt4lessIN3cpr21AcceptEncodingMethodsEEclERKS1_S4_
	.def	_ZNKSt4lessIN3cpr21AcceptEncodingMethodsEEclERKS1_S4_;	.scl	2;	.type	32;	.endef
	.seh_proc	_ZNKSt4lessIN3cpr21AcceptEncodingMethodsEEclERKS1_S4_
_ZNKSt4lessIN3cpr21AcceptEncodingMethodsEEclERKS1_S4_:
.LFB15241:
	pushq	%rbp
	.seh_pushreg	%rbp
	movq	%rsp, %rbp
	.seh_setframe	%rbp, 0
	.seh_endprologue
	movq	%rcx, 16(%rbp)
	movq	%rdx, 24(%rbp)
	movq	%r8, 32(%rbp)
	movq	24(%rbp), %rax
	movl	(%rax), %edx
	movq	32(%rbp), %rax
	movl	(%rax), %eax
	cmpl	%eax, %edx
	setl	%al
	popq	%rbp
	ret
	.seh_endproc
	.section	.text$_ZNSt8_Rb_treeIN3cpr21AcceptEncodingMethodsESt4pairIKS1_NSt7__cxx1112basic_stringIcSt11char_traitsIcESaIcEEEESt10_Select1stISA_ESt4lessIS1_ESaISA_EE24_M_get_insert_unique_posERS3_,"x"
	.linkonce discard
	.align 2
	.globl	_ZNSt8_Rb_treeIN3cpr21AcceptEncodingMethodsESt4pairIKS1_NSt7__cxx1112basic_stringIcSt11char_traitsIcESaIcEEEESt10_Select1stISA_ESt4lessIS1_ESaISA_EE24_M_get_insert_unique_posERS3_
	.def	_ZNSt8_Rb_treeIN3cpr21AcceptEncodingMethodsESt4pairIKS1_NSt7__cxx1112basic_stringIcSt11char_traitsIcESaIcEEEESt10_Select1stISA_ESt4lessIS1_ESaISA_EE24_M_get_insert_unique_posERS3_;	.scl	2;	.type	32;	.endef
	.seh_proc	_ZNSt8_Rb_treeIN3cpr21AcceptEncodingMethodsESt4pairIKS1_NSt7__cxx1112basic_stringIcSt11char_traitsIcESaIcEEEESt10_Select1stISA_ESt4lessIS1_ESaISA_EE24_M_get_insert_unique_posERS3_
_ZNSt8_Rb_treeIN3cpr21AcceptEncodingMethodsESt4pairIKS1_NSt7__cxx1112basic_stringIcSt11char_traitsIcESaIcEEEESt10_Select1stISA_ESt4lessIS1_ESaISA_EE24_M_get_insert_unique_posERS3_:
.LFB15242:
	pushq	%rbp
	.seh_pushreg	%rbp
	pushq	%rbx
	.seh_pushreg	%rbx
	subq	$88, %rsp
	.seh_stackalloc	88
	leaq	80(%rsp), %rbp
	.seh_setframe	%rbp, 80
	.seh_endprologue
	movq	%rcx, 32(%rbp)
	movq	%rdx, 40(%rbp)
	movq	%r8, 48(%rbp)
	movq	40(%rbp), %rax
	movq	%rax, %rcx
	call	_ZNSt8_Rb_treeIN3cpr21AcceptEncodingMethodsESt4pairIKS1_NSt7__cxx1112basic_stringIcSt11char_traitsIcESaIcEEEESt10_Select1stISA_ESt4lessIS1_ESaISA_EE8_M_beginEv
	movq	%rax, -32(%rbp)
	movq	40(%rbp), %rax
	movq	%rax, %rcx
	call	_ZNSt8_Rb_treeIN3cpr21AcceptEncodingMethodsESt4pairIKS1_NSt7__cxx1112basic_stringIcSt11char_traitsIcESaIcEEEESt10_Select1stISA_ESt4lessIS1_ESaISA_EE6_M_endEv
	movq	%rax, -40(%rbp)
	movb	$1, -1(%rbp)
	jmp	.L198
.L201:
	movq	-32(%rbp), %rax
	movq	%rax, -40(%rbp)
	movq	40(%rbp), %rbx
	movq	-32(%rbp), %rax
	movq	%rax, %rcx
	call	_ZNSt8_Rb_treeIN3cpr21AcceptEncodingMethodsESt4pairIKS1_NSt7__cxx1112basic_stringIcSt11char_traitsIcESaIcEEEESt10_Select1stISA_ESt4lessIS1_ESaISA_EE6_S_keyEPKSt13_Rb_tree_nodeISA_E
	movq	%rax, %rdx
	movq	48(%rbp), %rax
	movq	%rdx, %r8
	movq	%rax, %rdx
	movq	%rbx, %rcx
	call	_ZNKSt4lessIN3cpr21AcceptEncodingMethodsEEclERKS1_S4_
	movb	%al, -1(%rbp)
	cmpb	$0, -1(%rbp)
	je	.L199
	movq	-32(%rbp), %rax
	movq	%rax, %rcx
	call	_ZNSt8_Rb_treeIN3cpr21AcceptEncodingMethodsESt4pairIKS1_NSt7__cxx1112basic_stringIcSt11char_traitsIcESaIcEEEESt10_Select1stISA_ESt4lessIS1_ESaISA_EE7_S_leftEPSt18_Rb_tree_node_base
	jmp	.L200
.L199:
	movq	-32(%rbp), %rax
	movq	%rax, %rcx
	call	_ZNSt8_Rb_treeIN3cpr21AcceptEncodingMethodsESt4pairIKS1_NSt7__cxx1112basic_stringIcSt11char_traitsIcESaIcEEEESt10_Select1stISA_ESt4lessIS1_ESaISA_EE8_S_rightEPSt18_Rb_tree_node_base
.L200:
	movq	%rax, -32(%rbp)
.L198:
	movq	-32(%rbp), %rax
	testq	%rax, %rax
	jne	.L201
	movq	-40(%rbp), %rdx
	leaq	-48(%rbp), %rax
	movq	%rax, %rcx
	call	_ZNSt17_Rb_tree_iteratorISt4pairIKN3cpr21AcceptEncodingMethodsENSt7__cxx1112basic_stringIcSt11char_traitsIcESaIcEEEEEC1EPSt18_Rb_tree_node_base
	cmpb	$0, -1(%rbp)
	je	.L202
	movq	40(%rbp), %rax
	movq	%rax, %rcx
	call	_ZNSt8_Rb_treeIN3cpr21AcceptEncodingMethodsESt4pairIKS1_NSt7__cxx1112basic_stringIcSt11char_traitsIcESaIcEEEESt10_Select1stISA_ESt4lessIS1_ESaISA_EE5beginEv
	movq	%rax, -24(%rbp)
	leaq	-24(%rbp), %rdx
	leaq	-48(%rbp), %rax
	movq	%rax, %rcx
	call	_ZSteqRKSt17_Rb_tree_iteratorISt4pairIKN3cpr21AcceptEncodingMethodsENSt7__cxx1112basic_stringIcSt11char_traitsIcESaIcEEEEESD_
	testb	%al, %al
	je	.L203
	leaq	-40(%rbp), %rcx
	leaq	-32(%rbp), %rdx
	movq	32(%rbp), %rax
	movq	%rcx, %r8
	movq	%rax, %rcx
	call	_ZNSt4pairIPSt18_Rb_tree_node_baseS1_EC1IRPSt13_Rb_tree_nodeIS_IKN3cpr21AcceptEncodingMethodsENSt7__cxx1112basic_stringIcSt11char_traitsIcESaIcEEEEERS1_Lb1EEEOT_OT0_
	jmp	.L206
.L203:
	leaq	-48(%rbp), %rax
	movq	%rax, %rcx
	call	_ZNSt17_Rb_tree_iteratorISt4pairIKN3cpr21AcceptEncodingMethodsENSt7__cxx1112basic_stringIcSt11char_traitsIcESaIcEEEEEmmEv
.L202:
	movq	40(%rbp), %rbx
	movq	-48(%rbp), %rax
	movq	%rax, %rcx
	call	_ZNSt8_Rb_treeIN3cpr21AcceptEncodingMethodsESt4pairIKS1_NSt7__cxx1112basic_stringIcSt11char_traitsIcESaIcEEEESt10_Select1stISA_ESt4lessIS1_ESaISA_EE6_S_keyEPKSt18_Rb_tree_node_base
	movq	48(%rbp), %rdx
	movq	%rdx, %r8
	movq	%rax, %rdx
	movq	%rbx, %rcx
	call	_ZNKSt4lessIN3cpr21AcceptEncodingMethodsEEclERKS1_S4_
	testb	%al, %al
	je	.L205
	leaq	-40(%rbp), %rcx
	leaq	-32(%rbp), %rdx
	movq	32(%rbp), %rax
	movq	%rcx, %r8
	movq	%rax, %rcx
	call	_ZNSt4pairIPSt18_Rb_tree_node_baseS1_EC1IRPSt13_Rb_tree_nodeIS_IKN3cpr21AcceptEncodingMethodsENSt7__cxx1112basic_stringIcSt11char_traitsIcESaIcEEEEERS1_Lb1EEEOT_OT0_
	jmp	.L206
.L205:
	movq	$0, -16(%rbp)
	leaq	-16(%rbp), %rcx
	leaq	-48(%rbp), %rdx
	movq	32(%rbp), %rax
	movq	%rcx, %r8
	movq	%rax, %rcx
	call	_ZNSt4pairIPSt18_Rb_tree_node_baseS1_EC1IS1_S1_Lb1EEERKS1_S5_
.L206:
	movq	32(%rbp), %rax
	addq	$88, %rsp
	popq	%rbx
	popq	%rbp
	ret
	.seh_endproc
	.section	.text$_ZNSt8_Rb_treeIN3cpr21AcceptEncodingMethodsESt4pairIKS1_NSt7__cxx1112basic_stringIcSt11char_traitsIcESaIcEEEESt10_Select1stISA_ESt4lessIS1_ESaISA_EE11_M_leftmostEv,"x"
	.linkonce discard
	.align 2
	.globl	_ZNSt8_Rb_treeIN3cpr21AcceptEncodingMethodsESt4pairIKS1_NSt7__cxx1112basic_stringIcSt11char_traitsIcESaIcEEEESt10_Select1stISA_ESt4lessIS1_ESaISA_EE11_M_leftmostEv
	.def	_ZNSt8_Rb_treeIN3cpr21AcceptEncodingMethodsESt4pairIKS1_NSt7__cxx1112basic_stringIcSt11char_traitsIcESaIcEEEESt10_Select1stISA_ESt4lessIS1_ESaISA_EE11_M_leftmostEv;	.scl	2;	.type	32;	.endef
	.seh_proc	_ZNSt8_Rb_treeIN3cpr21AcceptEncodingMethodsESt4pairIKS1_NSt7__cxx1112basic_stringIcSt11char_traitsIcESaIcEEEESt10_Select1stISA_ESt4lessIS1_ESaISA_EE11_M_leftmostEv
_ZNSt8_Rb_treeIN3cpr21AcceptEncodingMethodsESt4pairIKS1_NSt7__cxx1112basic_stringIcSt11char_traitsIcESaIcEEEESt10_Select1stISA_ESt4lessIS1_ESaISA_EE11_M_leftmostEv:
.LFB15245:
	pushq	%rbp
	.seh_pushreg	%rbp
	movq	%rsp, %rbp
	.seh_setframe	%rbp, 0
	.seh_endprologue
	movq	%rcx, 16(%rbp)
	movq	16(%rbp), %rax
	addq	$24, %rax
	popq	%rbp
	ret
	.seh_endproc
	.section	.text$_ZNSt4pairIPSt18_Rb_tree_node_baseS1_EC1IRS1_S4_Lb1EEEOT_OT0_,"x"
	.linkonce discard
	.align 2
	.globl	_ZNSt4pairIPSt18_Rb_tree_node_baseS1_EC1IRS1_S4_Lb1EEEOT_OT0_
	.def	_ZNSt4pairIPSt18_Rb_tree_node_baseS1_EC1IRS1_S4_Lb1EEEOT_OT0_;	.scl	2;	.type	32;	.endef
	.seh_proc	_ZNSt4pairIPSt18_Rb_tree_node_baseS1_EC1IRS1_S4_Lb1EEEOT_OT0_
_ZNSt4pairIPSt18_Rb_tree_node_baseS1_EC1IRS1_S4_Lb1EEEOT_OT0_:
.LFB15248:
	pushq	%rbp
	.seh_pushreg	%rbp
	movq	%rsp, %rbp
	.seh_setframe	%rbp, 0
	subq	$32, %rsp
	.seh_stackalloc	32
	.seh_endprologue
	movq	%rcx, 16(%rbp)
	movq	%rdx, 24(%rbp)
	movq	%r8, 32(%rbp)
	movq	24(%rbp), %rax
	movq	%rax, %rcx
	call	_ZSt7forwardIRPSt18_Rb_tree_node_baseEOT_RNSt16remove_referenceIS3_E4typeE
	movq	(%rax), %rdx
	movq	16(%rbp), %rax
	movq	%rdx, (%rax)
	movq	32(%rbp), %rax
	movq	%rax, %rcx
	call	_ZSt7forwardIRPSt18_Rb_tree_node_baseEOT_RNSt16remove_referenceIS3_E4typeE
	movq	(%rax), %rdx
	movq	16(%rbp), %rax
	movq	%rdx, 8(%rax)
	nop
	addq	$32, %rsp
	popq	%rbp
	ret
	.seh_endproc
	.section	.text$_ZNSt17_Rb_tree_iteratorISt4pairIKN3cpr21AcceptEncodingMethodsENSt7__cxx1112basic_stringIcSt11char_traitsIcESaIcEEEEEmmEv,"x"
	.linkonce discard
	.align 2
	.globl	_ZNSt17_Rb_tree_iteratorISt4pairIKN3cpr21AcceptEncodingMethodsENSt7__cxx1112basic_stringIcSt11char_traitsIcESaIcEEEEEmmEv
	.def	_ZNSt17_Rb_tree_iteratorISt4pairIKN3cpr21AcceptEncodingMethodsENSt7__cxx1112basic_stringIcSt11char_traitsIcESaIcEEEEEmmEv;	.scl	2;	.type	32;	.endef
	.seh_proc	_ZNSt17_Rb_tree_iteratorISt4pairIKN3cpr21AcceptEncodingMethodsENSt7__cxx1112basic_stringIcSt11char_traitsIcESaIcEEEEEmmEv
_ZNSt17_Rb_tree_iteratorISt4pairIKN3cpr21AcceptEncodingMethodsENSt7__cxx1112basic_stringIcSt11char_traitsIcESaIcEEEEEmmEv:
.LFB15249:
	pushq	%rbp
	.seh_pushreg	%rbp
	movq	%rsp, %rbp
	.seh_setframe	%rbp, 0
	subq	$32, %rsp
	.seh_stackalloc	32
	.seh_endprologue
	movq	%rcx, 16(%rbp)
	movq	16(%rbp), %rax
	movq	(%rax), %rax
	movq	%rax, %rcx
	call	_ZSt18_Rb_tree_decrementPSt18_Rb_tree_node_base
	movq	16(%rbp), %rdx
	movq	%rax, (%rdx)
	movq	16(%rbp), %rax
	addq	$32, %rsp
	popq	%rbp
	ret
	.seh_endproc
	.section	.text$_ZNSt17_Rb_tree_iteratorISt4pairIKN3cpr21AcceptEncodingMethodsENSt7__cxx1112basic_stringIcSt11char_traitsIcESaIcEEEEEppEv,"x"
	.linkonce discard
	.align 2
	.globl	_ZNSt17_Rb_tree_iteratorISt4pairIKN3cpr21AcceptEncodingMethodsENSt7__cxx1112basic_stringIcSt11char_traitsIcESaIcEEEEEppEv
	.def	_ZNSt17_Rb_tree_iteratorISt4pairIKN3cpr21AcceptEncodingMethodsENSt7__cxx1112basic_stringIcSt11char_traitsIcESaIcEEEEEppEv;	.scl	2;	.type	32;	.endef
	.seh_proc	_ZNSt17_Rb_tree_iteratorISt4pairIKN3cpr21AcceptEncodingMethodsENSt7__cxx1112basic_stringIcSt11char_traitsIcESaIcEEEEEppEv
_ZNSt17_Rb_tree_iteratorISt4pairIKN3cpr21AcceptEncodingMethodsENSt7__cxx1112basic_stringIcSt11char_traitsIcESaIcEEEEEppEv:
.LFB15250:
	pushq	%rbp
	.seh_pushreg	%rbp
	movq	%rsp, %rbp
	.seh_setframe	%rbp, 0
	subq	$32, %rsp
	.seh_stackalloc	32
	.seh_endprologue
	movq	%rcx, 16(%rbp)
	movq	16(%rbp), %rax
	movq	(%rax), %rax
	movq	%rax, %rcx
	call	_ZSt18_Rb_tree_incrementPSt18_Rb_tree_node_base
	movq	16(%rbp), %rdx
	movq	%rax, (%rdx)
	movq	16(%rbp), %rax
	addq	$32, %rsp
	popq	%rbp
	ret
	.seh_endproc
	.section	.text$_ZNKSt8_Rb_treeIN3cpr21AcceptEncodingMethodsESt4pairIKS1_NSt7__cxx1112basic_stringIcSt11char_traitsIcESaIcEEEESt10_Select1stISA_ESt4lessIS1_ESaISA_EE11_Alloc_nodeclIRKSA_EEPSt13_Rb_tree_nodeISA_EOT_,"x"
	.linkonce discard
	.align 2
	.globl	_ZNKSt8_Rb_treeIN3cpr21AcceptEncodingMethodsESt4pairIKS1_NSt7__cxx1112basic_stringIcSt11char_traitsIcESaIcEEEESt10_Select1stISA_ESt4lessIS1_ESaISA_EE11_Alloc_nodeclIRKSA_EEPSt13_Rb_tree_nodeISA_EOT_
	.def	_ZNKSt8_Rb_treeIN3cpr21AcceptEncodingMethodsESt4pairIKS1_NSt7__cxx1112basic_stringIcSt11char_traitsIcESaIcEEEESt10_Select1stISA_ESt4lessIS1_ESaISA_EE11_Alloc_nodeclIRKSA_EEPSt13_Rb_tree_nodeISA_EOT_;	.scl	2;	.type	32;	.endef
	.seh_proc	_ZNKSt8_Rb_treeIN3cpr21AcceptEncodingMethodsESt4pairIKS1_NSt7__cxx1112basic_stringIcSt11char_traitsIcESaIcEEEESt10_Select1stISA_ESt4lessIS1_ESaISA_EE11_Alloc_nodeclIRKSA_EEPSt13_Rb_tree_nodeISA_EOT_
_ZNKSt8_Rb_treeIN3cpr21AcceptEncodingMethodsESt4pairIKS1_NSt7__cxx1112basic_stringIcSt11char_traitsIcESaIcEEEESt10_Select1stISA_ESt4lessIS1_ESaISA_EE11_Alloc_nodeclIRKSA_EEPSt13_Rb_tree_nodeISA_EOT_:
.LFB15251:
	pushq	%rbp
	.seh_pushreg	%rbp
	pushq	%rbx
	.seh_pushreg	%rbx
	subq	$40, %rsp
	.seh_stackalloc	40
	leaq	32(%rsp), %rbp
	.seh_setframe	%rbp, 32
	.seh_endprologue
	movq	%rcx, 32(%rbp)
	movq	%rdx, 40(%rbp)
	movq	32(%rbp), %rax
	movq	(%rax), %rbx
	movq	40(%rbp), %rax
	movq	%rax, %rcx
	call	_ZSt7forwardIRKSt4pairIKN3cpr21AcceptEncodingMethodsENSt7__cxx1112basic_stringIcSt11char_traitsIcESaIcEEEEEOT_RNSt16remove_referenceISD_E4typeE
	movq	%rax, %rdx
	movq	%rbx, %rcx
	call	_ZNSt8_Rb_treeIN3cpr21AcceptEncodingMethodsESt4pairIKS1_NSt7__cxx1112basic_stringIcSt11char_traitsIcESaIcEEEESt10_Select1stISA_ESt4lessIS1_ESaISA_EE14_M_create_nodeIJRKSA_EEEPSt13_Rb_tree_nodeISA_EDpOT_
	addq	$40, %rsp
	popq	%rbx
	popq	%rbp
	ret
	.seh_endproc
	.section	.text$_ZSt7forwardIRPSt18_Rb_tree_node_baseEOT_RNSt16remove_referenceIS3_E4typeE,"x"
	.linkonce discard
	.globl	_ZSt7forwardIRPSt18_Rb_tree_node_baseEOT_RNSt16remove_referenceIS3_E4typeE
	.def	_ZSt7forwardIRPSt18_Rb_tree_node_baseEOT_RNSt16remove_referenceIS3_E4typeE;	.scl	2;	.type	32;	.endef
	.seh_proc	_ZSt7forwardIRPSt18_Rb_tree_node_baseEOT_RNSt16remove_referenceIS3_E4typeE
_ZSt7forwardIRPSt18_Rb_tree_node_baseEOT_RNSt16remove_referenceIS3_E4typeE:
.LFB15297:
	pushq	%rbp
	.seh_pushreg	%rbp
	movq	%rsp, %rbp
	.seh_setframe	%rbp, 0
	.seh_endprologue
	movq	%rcx, 16(%rbp)
	movq	16(%rbp), %rax
	popq	%rbp
	ret
	.seh_endproc
	.section	.text$_ZNSt8_Rb_treeIN3cpr21AcceptEncodingMethodsESt4pairIKS1_NSt7__cxx1112basic_stringIcSt11char_traitsIcESaIcEEEESt10_Select1stISA_ESt4lessIS1_ESaISA_EE21_M_get_Node_allocatorEv,"x"
	.linkonce discard
	.align 2
	.globl	_ZNSt8_Rb_treeIN3cpr21AcceptEncodingMethodsESt4pairIKS1_NSt7__cxx1112basic_stringIcSt11char_traitsIcESaIcEEEESt10_Select1stISA_ESt4lessIS1_ESaISA_EE21_M_get_Node_allocatorEv
	.def	_ZNSt8_Rb_treeIN3cpr21AcceptEncodingMethodsESt4pairIKS1_NSt7__cxx1112basic_stringIcSt11char_traitsIcESaIcEEEESt10_Select1stISA_ESt4lessIS1_ESaISA_EE21_M_get_Node_allocatorEv;	.scl	2;	.type	32;	.endef
	.seh_proc	_ZNSt8_Rb_treeIN3cpr21AcceptEncodingMethodsESt4pairIKS1_NSt7__cxx1112basic_stringIcSt11char_traitsIcESaIcEEEESt10_Select1stISA_ESt4lessIS1_ESaISA_EE21_M_get_Node_allocatorEv
_ZNSt8_Rb_treeIN3cpr21AcceptEncodingMethodsESt4pairIKS1_NSt7__cxx1112basic_stringIcSt11char_traitsIcESaIcEEEESt10_Select1stISA_ESt4lessIS1_ESaISA_EE21_M_get_Node_allocatorEv:
.LFB15389:
	pushq	%rbp
	.seh_pushreg	%rbp
	movq	%rsp, %rbp
	.seh_setframe	%rbp, 0
	.seh_endprologue
	movq	%rcx, 16(%rbp)
	movq	16(%rbp), %rax
	popq	%rbp
	ret
	.seh_endproc
	.section	.text$_ZNSt13_Rb_tree_nodeISt4pairIKN3cpr21AcceptEncodingMethodsENSt7__cxx1112basic_stringIcSt11char_traitsIcESaIcEEEEE9_M_valptrEv,"x"
	.linkonce discard
	.align 2
	.globl	_ZNSt13_Rb_tree_nodeISt4pairIKN3cpr21AcceptEncodingMethodsENSt7__cxx1112basic_stringIcSt11char_traitsIcESaIcEEEEE9_M_valptrEv
	.def	_ZNSt13_Rb_tree_nodeISt4pairIKN3cpr21AcceptEncodingMethodsENSt7__cxx1112basic_stringIcSt11char_traitsIcESaIcEEEEE9_M_valptrEv;	.scl	2;	.type	32;	.endef
	.seh_proc	_ZNSt13_Rb_tree_nodeISt4pairIKN3cpr21AcceptEncodingMethodsENSt7__cxx1112basic_stringIcSt11char_traitsIcESaIcEEEEE9_M_valptrEv
_ZNSt13_Rb_tree_nodeISt4pairIKN3cpr21AcceptEncodingMethodsENSt7__cxx1112basic_stringIcSt11char_traitsIcESaIcEEEEE9_M_valptrEv:
.LFB15390:
	pushq	%rbp
	.seh_pushreg	%rbp
	movq	%rsp, %rbp
	.seh_setframe	%rbp, 0
	subq	$32, %rsp
	.seh_stackalloc	32
	.seh_endprologue
	movq	%rcx, 16(%rbp)
	movq	16(%rbp), %rax
	addq	$32, %rax
	movq	%rax, %rcx
	call	_ZN9__gnu_cxx16__aligned_membufISt4pairIKN3cpr21AcceptEncodingMethodsENSt7__cxx1112basic_stringIcSt11char_traitsIcESaIcEEEEE6_M_ptrEv
	addq	$32, %rsp
	popq	%rbp
	ret
	.seh_endproc
	.section	.text$_ZNSt8_Rb_treeIN3cpr21AcceptEncodingMethodsESt4pairIKS1_NSt7__cxx1112basic_stringIcSt11char_traitsIcESaIcEEEESt10_Select1stISA_ESt4lessIS1_ESaISA_EE6_S_keyEPKSt13_Rb_tree_nodeISA_E,"x"
	.linkonce discard
	.globl	_ZNSt8_Rb_treeIN3cpr21AcceptEncodingMethodsESt4pairIKS1_NSt7__cxx1112basic_stringIcSt11char_traitsIcESaIcEEEESt10_Select1stISA_ESt4lessIS1_ESaISA_EE6_S_keyEPKSt13_Rb_tree_nodeISA_E
	.def	_ZNSt8_Rb_treeIN3cpr21AcceptEncodingMethodsESt4pairIKS1_NSt7__cxx1112basic_stringIcSt11char_traitsIcESaIcEEEESt10_Select1stISA_ESt4lessIS1_ESaISA_EE6_S_keyEPKSt13_Rb_tree_nodeISA_E;	.scl	2;	.type	32;	.endef
	.seh_proc	_ZNSt8_Rb_treeIN3cpr21AcceptEncodingMethodsESt4pairIKS1_NSt7__cxx1112basic_stringIcSt11char_traitsIcESaIcEEEESt10_Select1stISA_ESt4lessIS1_ESaISA_EE6_S_keyEPKSt13_Rb_tree_nodeISA_E
_ZNSt8_Rb_treeIN3cpr21AcceptEncodingMethodsESt4pairIKS1_NSt7__cxx1112basic_stringIcSt11char_traitsIcESaIcEEEESt10_Select1stISA_ESt4lessIS1_ESaISA_EE6_S_keyEPKSt13_Rb_tree_nodeISA_E:
.LFB15393:
	pushq	%rbp
	.seh_pushreg	%rbp
	movq	%rsp, %rbp
	.seh_setframe	%rbp, 0
	subq	$48, %rsp
	.seh_stackalloc	48
	.seh_endprologue
	movq	%rcx, 16(%rbp)
	movq	16(%rbp), %rax
	movq	%rax, %rcx
	call	_ZNKSt13_Rb_tree_nodeISt4pairIKN3cpr21AcceptEncodingMethodsENSt7__cxx1112basic_stringIcSt11char_traitsIcESaIcEEEEE9_M_valptrEv
	movq	%rax, %rdx
	leaq	-1(%rbp), %rax
	movq	%rax, %rcx
	call	_ZNKSt10_Select1stISt4pairIKN3cpr21AcceptEncodingMethodsENSt7__cxx1112basic_stringIcSt11char_traitsIcESaIcEEEEEclERKSA_
	addq	$48, %rsp
	popq	%rbp
	ret
	.seh_endproc
	.section	.text$_ZNSt8_Rb_treeIN3cpr21AcceptEncodingMethodsESt4pairIKS1_NSt7__cxx1112basic_stringIcSt11char_traitsIcESaIcEEEESt10_Select1stISA_ESt4lessIS1_ESaISA_EE5beginEv,"x"
	.linkonce discard
	.align 2
	.globl	_ZNSt8_Rb_treeIN3cpr21AcceptEncodingMethodsESt4pairIKS1_NSt7__cxx1112basic_stringIcSt11char_traitsIcESaIcEEEESt10_Select1stISA_ESt4lessIS1_ESaISA_EE5beginEv
	.def	_ZNSt8_Rb_treeIN3cpr21AcceptEncodingMethodsESt4pairIKS1_NSt7__cxx1112basic_stringIcSt11char_traitsIcESaIcEEEESt10_Select1stISA_ESt4lessIS1_ESaISA_EE5beginEv;	.scl	2;	.type	32;	.endef
	.seh_proc	_ZNSt8_Rb_treeIN3cpr21AcceptEncodingMethodsESt4pairIKS1_NSt7__cxx1112basic_stringIcSt11char_traitsIcESaIcEEEESt10_Select1stISA_ESt4lessIS1_ESaISA_EE5beginEv
_ZNSt8_Rb_treeIN3cpr21AcceptEncodingMethodsESt4pairIKS1_NSt7__cxx1112basic_stringIcSt11char_traitsIcESaIcEEEESt10_Select1stISA_ESt4lessIS1_ESaISA_EE5beginEv:
.LFB15396:
	pushq	%rbp
	.seh_pushreg	%rbp
	movq	%rsp, %rbp
	.seh_setframe	%rbp, 0
	subq	$48, %rsp
	.seh_stackalloc	48
	.seh_endprologue
	movq	%rcx, 16(%rbp)
	movq	16(%rbp), %rax
	movq	24(%rax), %rdx
	leaq	-8(%rbp), %rax
	movq	%rax, %rcx
	call	_ZNSt17_Rb_tree_iteratorISt4pairIKN3cpr21AcceptEncodingMethodsENSt7__cxx1112basic_stringIcSt11char_traitsIcESaIcEEEEEC1EPSt18_Rb_tree_node_base
	movq	-8(%rbp), %rax
	addq	$48, %rsp
	popq	%rbp
	ret
	.seh_endproc
	.section	.text$_ZSteqRKSt17_Rb_tree_iteratorISt4pairIKN3cpr21AcceptEncodingMethodsENSt7__cxx1112basic_stringIcSt11char_traitsIcESaIcEEEEESD_,"x"
	.linkonce discard
	.globl	_ZSteqRKSt17_Rb_tree_iteratorISt4pairIKN3cpr21AcceptEncodingMethodsENSt7__cxx1112basic_stringIcSt11char_traitsIcESaIcEEEEESD_
	.def	_ZSteqRKSt17_Rb_tree_iteratorISt4pairIKN3cpr21AcceptEncodingMethodsENSt7__cxx1112basic_stringIcSt11char_traitsIcESaIcEEEEESD_;	.scl	2;	.type	32;	.endef
	.seh_proc	_ZSteqRKSt17_Rb_tree_iteratorISt4pairIKN3cpr21AcceptEncodingMethodsENSt7__cxx1112basic_stringIcSt11char_traitsIcESaIcEEEEESD_
_ZSteqRKSt17_Rb_tree_iteratorISt4pairIKN3cpr21AcceptEncodingMethodsENSt7__cxx1112basic_stringIcSt11char_traitsIcESaIcEEEEESD_:
.LFB15397:
	pushq	%rbp
	.seh_pushreg	%rbp
	movq	%rsp, %rbp
	.seh_setframe	%rbp, 0
	.seh_endprologue
	movq	%rcx, 16(%rbp)
	movq	%rdx, 24(%rbp)
	movq	16(%rbp), %rax
	movq	(%rax), %rdx
	movq	24(%rbp), %rax
	movq	(%rax), %rax
	cmpq	%rax, %rdx
	sete	%al
	popq	%rbp
	ret
	.seh_endproc
	.section	.text$_ZNSt4pairIPSt18_Rb_tree_node_baseS1_EC1IRPSt13_Rb_tree_nodeIS_IKN3cpr21AcceptEncodingMethodsENSt7__cxx1112basic_stringIcSt11char_traitsIcESaIcEEEEERS1_Lb1EEEOT_OT0_,"x"
	.linkonce discard
	.align 2
	.globl	_ZNSt4pairIPSt18_Rb_tree_node_baseS1_EC1IRPSt13_Rb_tree_nodeIS_IKN3cpr21AcceptEncodingMethodsENSt7__cxx1112basic_stringIcSt11char_traitsIcESaIcEEEEERS1_Lb1EEEOT_OT0_
	.def	_ZNSt4pairIPSt18_Rb_tree_node_baseS1_EC1IRPSt13_Rb_tree_nodeIS_IKN3cpr21AcceptEncodingMethodsENSt7__cxx1112basic_stringIcSt11char_traitsIcESaIcEEEEERS1_Lb1EEEOT_OT0_;	.scl	2;	.type	32;	.endef
	.seh_proc	_ZNSt4pairIPSt18_Rb_tree_node_baseS1_EC1IRPSt13_Rb_tree_nodeIS_IKN3cpr21AcceptEncodingMethodsENSt7__cxx1112basic_stringIcSt11char_traitsIcESaIcEEEEERS1_Lb1EEEOT_OT0_
_ZNSt4pairIPSt18_Rb_tree_node_baseS1_EC1IRPSt13_Rb_tree_nodeIS_IKN3cpr21AcceptEncodingMethodsENSt7__cxx1112basic_stringIcSt11char_traitsIcESaIcEEEEERS1_Lb1EEEOT_OT0_:
.LFB15400:
	pushq	%rbp
	.seh_pushreg	%rbp
	movq	%rsp, %rbp
	.seh_setframe	%rbp, 0
	subq	$32, %rsp
	.seh_stackalloc	32
	.seh_endprologue
	movq	%rcx, 16(%rbp)
	movq	%rdx, 24(%rbp)
	movq	%r8, 32(%rbp)
	movq	24(%rbp), %rax
	movq	%rax, %rcx
	call	_ZSt7forwardIRPSt13_Rb_tree_nodeISt4pairIKN3cpr21AcceptEncodingMethodsENSt7__cxx1112basic_stringIcSt11char_traitsIcESaIcEEEEEEOT_RNSt16remove_referenceISF_E4typeE
	movq	(%rax), %rdx
	movq	16(%rbp), %rax
	movq	%rdx, (%rax)
	movq	32(%rbp), %rax
	movq	%rax, %rcx
	call	_ZSt7forwardIRPSt18_Rb_tree_node_baseEOT_RNSt16remove_referenceIS3_E4typeE
	movq	(%rax), %rdx
	movq	16(%rbp), %rax
	movq	%rdx, 8(%rax)
	nop
	addq	$32, %rsp
	popq	%rbp
	ret
	.seh_endproc
	.section	.text$_ZNSt8_Rb_treeIN3cpr21AcceptEncodingMethodsESt4pairIKS1_NSt7__cxx1112basic_stringIcSt11char_traitsIcESaIcEEEESt10_Select1stISA_ESt4lessIS1_ESaISA_EE14_M_create_nodeIJRKSA_EEEPSt13_Rb_tree_nodeISA_EDpOT_,"x"
	.linkonce discard
	.align 2
	.globl	_ZNSt8_Rb_treeIN3cpr21AcceptEncodingMethodsESt4pairIKS1_NSt7__cxx1112basic_stringIcSt11char_traitsIcESaIcEEEESt10_Select1stISA_ESt4lessIS1_ESaISA_EE14_M_create_nodeIJRKSA_EEEPSt13_Rb_tree_nodeISA_EDpOT_
	.def	_ZNSt8_Rb_treeIN3cpr21AcceptEncodingMethodsESt4pairIKS1_NSt7__cxx1112basic_stringIcSt11char_traitsIcESaIcEEEESt10_Select1stISA_ESt4lessIS1_ESaISA_EE14_M_create_nodeIJRKSA_EEEPSt13_Rb_tree_nodeISA_EDpOT_;	.scl	2;	.type	32;	.endef
	.seh_proc	_ZNSt8_Rb_treeIN3cpr21AcceptEncodingMethodsESt4pairIKS1_NSt7__cxx1112basic_stringIcSt11char_traitsIcESaIcEEEESt10_Select1stISA_ESt4lessIS1_ESaISA_EE14_M_create_nodeIJRKSA_EEEPSt13_Rb_tree_nodeISA_EDpOT_
_ZNSt8_Rb_treeIN3cpr21AcceptEncodingMethodsESt4pairIKS1_NSt7__cxx1112basic_stringIcSt11char_traitsIcESaIcEEEESt10_Select1stISA_ESt4lessIS1_ESaISA_EE14_M_create_nodeIJRKSA_EEEPSt13_Rb_tree_nodeISA_EDpOT_:
.LFB15401:
	pushq	%rbp
	.seh_pushreg	%rbp
	movq	%rsp, %rbp
	.seh_setframe	%rbp, 0
	subq	$48, %rsp
	.seh_stackalloc	48
	.seh_endprologue
	movq	%rcx, 16(%rbp)
	movq	%rdx, 24(%rbp)
	movq	16(%rbp), %rax
	movq	%rax, %rcx
	call	_ZNSt8_Rb_treeIN3cpr21AcceptEncodingMethodsESt4pairIKS1_NSt7__cxx1112basic_stringIcSt11char_traitsIcESaIcEEEESt10_Select1stISA_ESt4lessIS1_ESaISA_EE11_M_get_nodeEv
	movq	%rax, -8(%rbp)
	movq	24(%rbp), %rax
	movq	%rax, %rcx
	call	_ZSt7forwardIRKSt4pairIKN3cpr21AcceptEncodingMethodsENSt7__cxx1112basic_stringIcSt11char_traitsIcESaIcEEEEEOT_RNSt16remove_referenceISD_E4typeE
	movq	%rax, %rcx
	movq	-8(%rbp), %rdx
	movq	16(%rbp), %rax
	movq	%rcx, %r8
	movq	%rax, %rcx
	call	_ZNSt8_Rb_treeIN3cpr21AcceptEncodingMethodsESt4pairIKS1_NSt7__cxx1112basic_stringIcSt11char_traitsIcESaIcEEEESt10_Select1stISA_ESt4lessIS1_ESaISA_EE17_M_construct_nodeIJRKSA_EEEvPSt13_Rb_tree_nodeISA_EDpOT_
	movq	-8(%rbp), %rax
	addq	$48, %rsp
	popq	%rbp
	ret
	.seh_endproc
	.section	.text$_ZN9__gnu_cxx16__aligned_membufISt4pairIKN3cpr21AcceptEncodingMethodsENSt7__cxx1112basic_stringIcSt11char_traitsIcESaIcEEEEE6_M_ptrEv,"x"
	.linkonce discard
	.align 2
	.globl	_ZN9__gnu_cxx16__aligned_membufISt4pairIKN3cpr21AcceptEncodingMethodsENSt7__cxx1112basic_stringIcSt11char_traitsIcESaIcEEEEE6_M_ptrEv
	.def	_ZN9__gnu_cxx16__aligned_membufISt4pairIKN3cpr21AcceptEncodingMethodsENSt7__cxx1112basic_stringIcSt11char_traitsIcESaIcEEEEE6_M_ptrEv;	.scl	2;	.type	32;	.endef
	.seh_proc	_ZN9__gnu_cxx16__aligned_membufISt4pairIKN3cpr21AcceptEncodingMethodsENSt7__cxx1112basic_stringIcSt11char_traitsIcESaIcEEEEE6_M_ptrEv
_ZN9__gnu_cxx16__aligned_membufISt4pairIKN3cpr21AcceptEncodingMethodsENSt7__cxx1112basic_stringIcSt11char_traitsIcESaIcEEEEE6_M_ptrEv:
.LFB15466:
	pushq	%rbp
	.seh_pushreg	%rbp
	movq	%rsp, %rbp
	.seh_setframe	%rbp, 0
	subq	$32, %rsp
	.seh_stackalloc	32
	.seh_endprologue
	movq	%rcx, 16(%rbp)
	movq	16(%rbp), %rax
	movq	%rax, %rcx
	call	_ZN9__gnu_cxx16__aligned_membufISt4pairIKN3cpr21AcceptEncodingMethodsENSt7__cxx1112basic_stringIcSt11char_traitsIcESaIcEEEEE7_M_addrEv
	addq	$32, %rsp
	popq	%rbp
	ret
	.seh_endproc
	.section	.text$_ZNSt15__new_allocatorISt13_Rb_tree_nodeISt4pairIKN3cpr21AcceptEncodingMethodsENSt7__cxx1112basic_stringIcSt11char_traitsIcESaIcEEEEEE10deallocateEPSC_y,"x"
	.linkonce discard
	.align 2
	.globl	_ZNSt15__new_allocatorISt13_Rb_tree_nodeISt4pairIKN3cpr21AcceptEncodingMethodsENSt7__cxx1112basic_stringIcSt11char_traitsIcESaIcEEEEEE10deallocateEPSC_y
	.def	_ZNSt15__new_allocatorISt13_Rb_tree_nodeISt4pairIKN3cpr21AcceptEncodingMethodsENSt7__cxx1112basic_stringIcSt11char_traitsIcESaIcEEEEEE10deallocateEPSC_y;	.scl	2;	.type	32;	.endef
	.seh_proc	_ZNSt15__new_allocatorISt13_Rb_tree_nodeISt4pairIKN3cpr21AcceptEncodingMethodsENSt7__cxx1112basic_stringIcSt11char_traitsIcESaIcEEEEEE10deallocateEPSC_y
_ZNSt15__new_allocatorISt13_Rb_tree_nodeISt4pairIKN3cpr21AcceptEncodingMethodsENSt7__cxx1112basic_stringIcSt11char_traitsIcESaIcEEEEEE10deallocateEPSC_y:
.LFB15468:
	pushq	%rbp
	.seh_pushreg	%rbp
	movq	%rsp, %rbp
	.seh_setframe	%rbp, 0
	subq	$32, %rsp
	.seh_stackalloc	32
	.seh_endprologue
	movq	%rcx, 16(%rbp)
	movq	%rdx, 24(%rbp)
	movq	%r8, 32(%rbp)
	movq	32(%rbp), %rdx
	movq	%rdx, %rax
	salq	$3, %rax
	addq	%rdx, %rax
	salq	$3, %rax
	movq	%rax, %rdx
	movq	24(%rbp), %rax
	movq	%rax, %rcx
	call	_ZdlPvy
	nop
	addq	$32, %rsp
	popq	%rbp
	ret
	.seh_endproc
	.section	.text$_ZNKSt13_Rb_tree_nodeISt4pairIKN3cpr21AcceptEncodingMethodsENSt7__cxx1112basic_stringIcSt11char_traitsIcESaIcEEEEE9_M_valptrEv,"x"
	.linkonce discard
	.align 2
	.globl	_ZNKSt13_Rb_tree_nodeISt4pairIKN3cpr21AcceptEncodingMethodsENSt7__cxx1112basic_stringIcSt11char_traitsIcESaIcEEEEE9_M_valptrEv
	.def	_ZNKSt13_Rb_tree_nodeISt4pairIKN3cpr21AcceptEncodingMethodsENSt7__cxx1112basic_stringIcSt11char_traitsIcESaIcEEEEE9_M_valptrEv;	.scl	2;	.type	32;	.endef
	.seh_proc	_ZNKSt13_Rb_tree_nodeISt4pairIKN3cpr21AcceptEncodingMethodsENSt7__cxx1112basic_stringIcSt11char_traitsIcESaIcEEEEE9_M_valptrEv
_ZNKSt13_Rb_tree_nodeISt4pairIKN3cpr21AcceptEncodingMethodsENSt7__cxx1112basic_stringIcSt11char_traitsIcESaIcEEEEE9_M_valptrEv:
.LFB15469:
	pushq	%rbp
	.seh_pushreg	%rbp
	movq	%rsp, %rbp
	.seh_setframe	%rbp, 0
	subq	$32, %rsp
	.seh_stackalloc	32
	.seh_endprologue
	movq	%rcx, 16(%rbp)
	movq	16(%rbp), %rax
	addq	$32, %rax
	movq	%rax, %rcx
	call	_ZNK9__gnu_cxx16__aligned_membufISt4pairIKN3cpr21AcceptEncodingMethodsENSt7__cxx1112basic_stringIcSt11char_traitsIcESaIcEEEEE6_M_ptrEv
	addq	$32, %rsp
	popq	%rbp
	ret
	.seh_endproc
	.section	.text$_ZSt7forwardIRPSt13_Rb_tree_nodeISt4pairIKN3cpr21AcceptEncodingMethodsENSt7__cxx1112basic_stringIcSt11char_traitsIcESaIcEEEEEEOT_RNSt16remove_referenceISF_E4typeE,"x"
	.linkonce discard
	.globl	_ZSt7forwardIRPSt13_Rb_tree_nodeISt4pairIKN3cpr21AcceptEncodingMethodsENSt7__cxx1112basic_stringIcSt11char_traitsIcESaIcEEEEEEOT_RNSt16remove_referenceISF_E4typeE
	.def	_ZSt7forwardIRPSt13_Rb_tree_nodeISt4pairIKN3cpr21AcceptEncodingMethodsENSt7__cxx1112basic_stringIcSt11char_traitsIcESaIcEEEEEEOT_RNSt16remove_referenceISF_E4typeE;	.scl	2;	.type	32;	.endef
	.seh_proc	_ZSt7forwardIRPSt13_Rb_tree_nodeISt4pairIKN3cpr21AcceptEncodingMethodsENSt7__cxx1112basic_stringIcSt11char_traitsIcESaIcEEEEEEOT_RNSt16remove_referenceISF_E4typeE
_ZSt7forwardIRPSt13_Rb_tree_nodeISt4pairIKN3cpr21AcceptEncodingMethodsENSt7__cxx1112basic_stringIcSt11char_traitsIcESaIcEEEEEEOT_RNSt16remove_referenceISF_E4typeE:
.LFB15470:
	pushq	%rbp
	.seh_pushreg	%rbp
	movq	%rsp, %rbp
	.seh_setframe	%rbp, 0
	.seh_endprologue
	movq	%rcx, 16(%rbp)
	movq	16(%rbp), %rax
	popq	%rbp
	ret
	.seh_endproc
	.section	.text$_ZNSt8_Rb_treeIN3cpr21AcceptEncodingMethodsESt4pairIKS1_NSt7__cxx1112basic_stringIcSt11char_traitsIcESaIcEEEESt10_Select1stISA_ESt4lessIS1_ESaISA_EE11_M_get_nodeEv,"x"
	.linkonce discard
	.align 2
	.globl	_ZNSt8_Rb_treeIN3cpr21AcceptEncodingMethodsESt4pairIKS1_NSt7__cxx1112basic_stringIcSt11char_traitsIcESaIcEEEESt10_Select1stISA_ESt4lessIS1_ESaISA_EE11_M_get_nodeEv
	.def	_ZNSt8_Rb_treeIN3cpr21AcceptEncodingMethodsESt4pairIKS1_NSt7__cxx1112basic_stringIcSt11char_traitsIcESaIcEEEESt10_Select1stISA_ESt4lessIS1_ESaISA_EE11_M_get_nodeEv;	.scl	2;	.type	32;	.endef
	.seh_proc	_ZNSt8_Rb_treeIN3cpr21AcceptEncodingMethodsESt4pairIKS1_NSt7__cxx1112basic_stringIcSt11char_traitsIcESaIcEEEESt10_Select1stISA_ESt4lessIS1_ESaISA_EE11_M_get_nodeEv
_ZNSt8_Rb_treeIN3cpr21AcceptEncodingMethodsESt4pairIKS1_NSt7__cxx1112basic_stringIcSt11char_traitsIcESaIcEEEESt10_Select1stISA_ESt4lessIS1_ESaISA_EE11_M_get_nodeEv:
.LFB15471:
	pushq	%rbp
	.seh_pushreg	%rbp
	movq	%rsp, %rbp
	.seh_setframe	%rbp, 0
	subq	$48, %rsp
	.seh_stackalloc	48
	.seh_endprologue
	movq	%rcx, 16(%rbp)
	movq	16(%rbp), %rax
	movq	%rax, %rcx
	call	_ZNSt8_Rb_treeIN3cpr21AcceptEncodingMethodsESt4pairIKS1_NSt7__cxx1112basic_stringIcSt11char_traitsIcESaIcEEEESt10_Select1stISA_ESt4lessIS1_ESaISA_EE21_M_get_Node_allocatorEv
	movq	%rax, -8(%rbp)
	movq	$1, -16(%rbp)
	movq	-16(%rbp), %rdx
	movq	-8(%rbp), %rax
	movl	$0, %r8d
	movq	%rax, %rcx
	call	_ZNSt15__new_allocatorISt13_Rb_tree_nodeISt4pairIKN3cpr21AcceptEncodingMethodsENSt7__cxx1112basic_stringIcSt11char_traitsIcESaIcEEEEEE8allocateEyPKv
	nop
	addq	$48, %rsp
	popq	%rbp
	ret
	.seh_endproc
	.section	.text$_ZNSt8_Rb_treeIN3cpr21AcceptEncodingMethodsESt4pairIKS1_NSt7__cxx1112basic_stringIcSt11char_traitsIcESaIcEEEESt10_Select1stISA_ESt4lessIS1_ESaISA_EE17_M_construct_nodeIJRKSA_EEEvPSt13_Rb_tree_nodeISA_EDpOT_,"x"
	.linkonce discard
	.align 2
	.globl	_ZNSt8_Rb_treeIN3cpr21AcceptEncodingMethodsESt4pairIKS1_NSt7__cxx1112basic_stringIcSt11char_traitsIcESaIcEEEESt10_Select1stISA_ESt4lessIS1_ESaISA_EE17_M_construct_nodeIJRKSA_EEEvPSt13_Rb_tree_nodeISA_EDpOT_
	.def	_ZNSt8_Rb_treeIN3cpr21AcceptEncodingMethodsESt4pairIKS1_NSt7__cxx1112basic_stringIcSt11char_traitsIcESaIcEEEESt10_Select1stISA_ESt4lessIS1_ESaISA_EE17_M_construct_nodeIJRKSA_EEEvPSt13_Rb_tree_nodeISA_EDpOT_;	.scl	2;	.type	32;	.endef
	.seh_proc	_ZNSt8_Rb_treeIN3cpr21AcceptEncodingMethodsESt4pairIKS1_NSt7__cxx1112basic_stringIcSt11char_traitsIcESaIcEEEESt10_Select1stISA_ESt4lessIS1_ESaISA_EE17_M_construct_nodeIJRKSA_EEEvPSt13_Rb_tree_nodeISA_EDpOT_
_ZNSt8_Rb_treeIN3cpr21AcceptEncodingMethodsESt4pairIKS1_NSt7__cxx1112basic_stringIcSt11char_traitsIcESaIcEEEESt10_Select1stISA_ESt4lessIS1_ESaISA_EE17_M_construct_nodeIJRKSA_EEEvPSt13_Rb_tree_nodeISA_EDpOT_:
.LFB15472:
	pushq	%rbp
	.seh_pushreg	%rbp
	pushq	%r12
	.seh_pushreg	%r12
	pushq	%rdi
	.seh_pushreg	%rdi
	pushq	%rsi
	.seh_pushreg	%rsi
	pushq	%rbx
	.seh_pushreg	%rbx
	subq	$80, %rsp
	.seh_stackalloc	80
	leaq	80(%rsp), %rbp
	.seh_setframe	%rbp, 80
	.seh_endprologue
	movq	%rcx, 48(%rbp)
	movq	%rdx, 56(%rbp)
	movq	%r8, 64(%rbp)
	movq	56(%rbp), %rax
	movq	%rax, %rdx
	movl	$72, %ecx
	call	_ZnwyPv
	movq	64(%rbp), %rax
	movq	%rax, %rcx
	call	_ZSt7forwardIRKSt4pairIKN3cpr21AcceptEncodingMethodsENSt7__cxx1112basic_stringIcSt11char_traitsIcESaIcEEEEEOT_RNSt16remove_referenceISD_E4typeE
	movq	%rax, %rbx
	movq	56(%rbp), %rax
	movq	%rax, %rcx
	call	_ZNSt13_Rb_tree_nodeISt4pairIKN3cpr21AcceptEncodingMethodsENSt7__cxx1112basic_stringIcSt11char_traitsIcESaIcEEEEE9_M_valptrEv
	movq	%rax, %rsi
	movq	48(%rbp), %rax
	movq	%rax, %rcx
	call	_ZNSt8_Rb_treeIN3cpr21AcceptEncodingMethodsESt4pairIKS1_NSt7__cxx1112basic_stringIcSt11char_traitsIcESaIcEEEESt10_Select1stISA_ESt4lessIS1_ESaISA_EE21_M_get_Node_allocatorEv
	movq	%rax, -8(%rbp)
	movq	%rsi, -16(%rbp)
	movq	%rbx, -24(%rbp)
	movq	-24(%rbp), %rax
	movq	%rax, %rcx
	call	_ZSt7forwardIRKSt4pairIKN3cpr21AcceptEncodingMethodsENSt7__cxx1112basic_stringIcSt11char_traitsIcESaIcEEEEEOT_RNSt16remove_referenceISD_E4typeE
	movq	-16(%rbp), %rdx
	movq	%rdx, -32(%rbp)
	movq	%rax, -40(%rbp)
	movq	-8(%rbp), %rax
	movq	%rax, -48(%rbp)
	movq	-32(%rbp), %rbx
	movq	%rbx, %rdx
	movl	$40, %ecx
	call	_ZnwyPv
	movq	%rax, %rsi
	movl	$1, %r12d
	movq	-40(%rbp), %rax
	movq	%rax, %rcx
	call	_ZSt7forwardIRKSt4pairIKN3cpr21AcceptEncodingMethodsENSt7__cxx1112basic_stringIcSt11char_traitsIcESaIcEEEEEOT_RNSt16remove_referenceISD_E4typeE
	movq	%rax, %rdx
	movq	%rsi, %rcx
.LEHB30:
	call	_ZNSt4pairIKN3cpr21AcceptEncodingMethodsENSt7__cxx1112basic_stringIcSt11char_traitsIcESaIcEEEEC1ERKS9_
.LEHE30:
	nop
	nop
	jmp	.L249
.L248:
	movq	%rax, %rdi
	testb	%r12b, %r12b
	je	.L245
	movq	%rbx, %rdx
	movq	%rsi, %rcx
	call	_ZdlPvS_
.L245:
	movq	%rdi, %rax
	movq	%rax, %rcx
	call	__cxa_begin_catch
	movq	56(%rbp), %rdx
	movq	48(%rbp), %rax
	movq	%rax, %rcx
	call	_ZNSt8_Rb_treeIN3cpr21AcceptEncodingMethodsESt4pairIKS1_NSt7__cxx1112basic_stringIcSt11char_traitsIcESaIcEEEESt10_Select1stISA_ESt4lessIS1_ESaISA_EE11_M_put_nodeEPSt13_Rb_tree_nodeISA_E
.LEHB31:
	call	__cxa_rethrow
.LEHE31:
.L247:
	movq	%rax, %rbx
	call	__cxa_end_catch
	movq	%rbx, %rax
	movq	%rax, %rcx
.LEHB32:
	call	_Unwind_Resume
	nop
.LEHE32:
.L249:
	addq	$80, %rsp
	popq	%rbx
	popq	%rsi
	popq	%rdi
	popq	%r12
	popq	%rbp
	ret
	.seh_handler	__gxx_personality_seh0, @unwind, @except
	.seh_handlerdata
	.align 4
.LLSDA15472:
	.byte	0xff
	.byte	0x9b
	.uleb128 .LLSDATT15472-.LLSDATTD15472
.LLSDATTD15472:
	.byte	0x1
	.uleb128 .LLSDACSE15472-.LLSDACSB15472
.LLSDACSB15472:
	.uleb128 .LEHB30-.LFB15472
	.uleb128 .LEHE30-.LEHB30
	.uleb128 .L248-.LFB15472
	.uleb128 0x3
	.uleb128 .LEHB31-.LFB15472
	.uleb128 .LEHE31-.LEHB31
	.uleb128 .L247-.LFB15472
	.uleb128 0
	.uleb128 .LEHB32-.LFB15472
	.uleb128 .LEHE32-.LEHB32
	.uleb128 0
	.uleb128 0
.LLSDACSE15472:
	.byte	0x1
	.byte	0
	.byte	0
	.byte	0x7d
	.align 4
	.long	0

.LLSDATT15472:
	.section	.text$_ZNSt8_Rb_treeIN3cpr21AcceptEncodingMethodsESt4pairIKS1_NSt7__cxx1112basic_stringIcSt11char_traitsIcESaIcEEEESt10_Select1stISA_ESt4lessIS1_ESaISA_EE17_M_construct_nodeIJRKSA_EEEvPSt13_Rb_tree_nodeISA_EDpOT_,"x"
	.linkonce discard
	.seh_endproc
	.section	.text$_ZN9__gnu_cxx16__aligned_membufISt4pairIKN3cpr21AcceptEncodingMethodsENSt7__cxx1112basic_stringIcSt11char_traitsIcESaIcEEEEE7_M_addrEv,"x"
	.linkonce discard
	.align 2
	.globl	_ZN9__gnu_cxx16__aligned_membufISt4pairIKN3cpr21AcceptEncodingMethodsENSt7__cxx1112basic_stringIcSt11char_traitsIcESaIcEEEEE7_M_addrEv
	.def	_ZN9__gnu_cxx16__aligned_membufISt4pairIKN3cpr21AcceptEncodingMethodsENSt7__cxx1112basic_stringIcSt11char_traitsIcESaIcEEEEE7_M_addrEv;	.scl	2;	.type	32;	.endef
	.seh_proc	_ZN9__gnu_cxx16__aligned_membufISt4pairIKN3cpr21AcceptEncodingMethodsENSt7__cxx1112basic_stringIcSt11char_traitsIcESaIcEEEEE7_M_addrEv
_ZN9__gnu_cxx16__aligned_membufISt4pairIKN3cpr21AcceptEncodingMethodsENSt7__cxx1112basic_stringIcSt11char_traitsIcESaIcEEEEE7_M_addrEv:
.LFB15494:
	pushq	%rbp
	.seh_pushreg	%rbp
	movq	%rsp, %rbp
	.seh_setframe	%rbp, 0
	.seh_endprologue
	movq	%rcx, 16(%rbp)
	movq	16(%rbp), %rax
	popq	%rbp
	ret
	.seh_endproc
	.section	.text$_ZNK9__gnu_cxx16__aligned_membufISt4pairIKN3cpr21AcceptEncodingMethodsENSt7__cxx1112basic_stringIcSt11char_traitsIcESaIcEEEEE6_M_ptrEv,"x"
	.linkonce discard
	.align 2
	.globl	_ZNK9__gnu_cxx16__aligned_membufISt4pairIKN3cpr21AcceptEncodingMethodsENSt7__cxx1112basic_stringIcSt11char_traitsIcESaIcEEEEE6_M_ptrEv
	.def	_ZNK9__gnu_cxx16__aligned_membufISt4pairIKN3cpr21AcceptEncodingMethodsENSt7__cxx1112basic_stringIcSt11char_traitsIcESaIcEEEEE6_M_ptrEv;	.scl	2;	.type	32;	.endef
	.seh_proc	_ZNK9__gnu_cxx16__aligned_membufISt4pairIKN3cpr21AcceptEncodingMethodsENSt7__cxx1112basic_stringIcSt11char_traitsIcESaIcEEEEE6_M_ptrEv
_ZNK9__gnu_cxx16__aligned_membufISt4pairIKN3cpr21AcceptEncodingMethodsENSt7__cxx1112basic_stringIcSt11char_traitsIcESaIcEEEEE6_M_ptrEv:
.LFB15495:
	pushq	%rbp
	.seh_pushreg	%rbp
	movq	%rsp, %rbp
	.seh_setframe	%rbp, 0
	subq	$32, %rsp
	.seh_stackalloc	32
	.seh_endprologue
	movq	%rcx, 16(%rbp)
	movq	16(%rbp), %rax
	movq	%rax, %rcx
	call	_ZNK9__gnu_cxx16__aligned_membufISt4pairIKN3cpr21AcceptEncodingMethodsENSt7__cxx1112basic_stringIcSt11char_traitsIcESaIcEEEEE7_M_addrEv
	addq	$32, %rsp
	popq	%rbp
	ret
	.seh_endproc
	.section	.text$_ZNK9__gnu_cxx16__aligned_membufISt4pairIKN3cpr21AcceptEncodingMethodsENSt7__cxx1112basic_stringIcSt11char_traitsIcESaIcEEEEE7_M_addrEv,"x"
	.linkonce discard
	.align 2
	.globl	_ZNK9__gnu_cxx16__aligned_membufISt4pairIKN3cpr21AcceptEncodingMethodsENSt7__cxx1112basic_stringIcSt11char_traitsIcESaIcEEEEE7_M_addrEv
	.def	_ZNK9__gnu_cxx16__aligned_membufISt4pairIKN3cpr21AcceptEncodingMethodsENSt7__cxx1112basic_stringIcSt11char_traitsIcESaIcEEEEE7_M_addrEv;	.scl	2;	.type	32;	.endef
	.seh_proc	_ZNK9__gnu_cxx16__aligned_membufISt4pairIKN3cpr21AcceptEncodingMethodsENSt7__cxx1112basic_stringIcSt11char_traitsIcESaIcEEEEE7_M_addrEv
_ZNK9__gnu_cxx16__aligned_membufISt4pairIKN3cpr21AcceptEncodingMethodsENSt7__cxx1112basic_stringIcSt11char_traitsIcESaIcEEEEE7_M_addrEv:
.LFB15510:
	pushq	%rbp
	.seh_pushreg	%rbp
	movq	%rsp, %rbp
	.seh_setframe	%rbp, 0
	.seh_endprologue
	movq	%rcx, 16(%rbp)
	movq	16(%rbp), %rax
	popq	%rbp
	ret
	.seh_endproc
	.section	.text$_ZNSt15__new_allocatorISt13_Rb_tree_nodeISt4pairIKN3cpr21AcceptEncodingMethodsENSt7__cxx1112basic_stringIcSt11char_traitsIcESaIcEEEEEE8allocateEyPKv,"x"
	.linkonce discard
	.align 2
	.globl	_ZNSt15__new_allocatorISt13_Rb_tree_nodeISt4pairIKN3cpr21AcceptEncodingMethodsENSt7__cxx1112basic_stringIcSt11char_traitsIcESaIcEEEEEE8allocateEyPKv
	.def	_ZNSt15__new_allocatorISt13_Rb_tree_nodeISt4pairIKN3cpr21AcceptEncodingMethodsENSt7__cxx1112basic_stringIcSt11char_traitsIcESaIcEEEEEE8allocateEyPKv;	.scl	2;	.type	32;	.endef
	.seh_proc	_ZNSt15__new_allocatorISt13_Rb_tree_nodeISt4pairIKN3cpr21AcceptEncodingMethodsENSt7__cxx1112basic_stringIcSt11char_traitsIcESaIcEEEEEE8allocateEyPKv
_ZNSt15__new_allocatorISt13_Rb_tree_nodeISt4pairIKN3cpr21AcceptEncodingMethodsENSt7__cxx1112basic_stringIcSt11char_traitsIcESaIcEEEEEE8allocateEyPKv:
.LFB15511:
	pushq	%rbp
	.seh_pushreg	%rbp
	movq	%rsp, %rbp
	.seh_setframe	%rbp, 0
	subq	$48, %rsp
	.seh_stackalloc	48
	.seh_endprologue
	movq	%rcx, 16(%rbp)
	movq	%rdx, 24(%rbp)
	movq	%r8, 32(%rbp)
	movq	16(%rbp), %rax
	movq	%rax, -8(%rbp)
	movabsq	$128102389400760775, %rax
	cmpq	24(%rbp), %rax
	setb	%al
	movzbl	%al, %eax
	testl	%eax, %eax
	setne	%al
	testb	%al, %al
	je	.L258
	movabsq	$256204778801521550, %rax
	cmpq	24(%rbp), %rax
	jnb	.L259
	call	_ZSt28__throw_bad_array_new_lengthv
.L259:
	call	_ZSt17__throw_bad_allocv
.L258:
	movq	24(%rbp), %rdx
	movq	%rdx, %rax
	salq	$3, %rax
	addq	%rdx, %rax
	salq	$3, %rax
	movq	%rax, %rcx
	call	_Znwy
	nop
	addq	$48, %rsp
	popq	%rbp
	ret
	.seh_endproc
	.section	.text$_ZNSt4pairIKN3cpr21AcceptEncodingMethodsENSt7__cxx1112basic_stringIcSt11char_traitsIcESaIcEEEEC1ERKS9_,"x"
	.linkonce discard
	.align 2
	.globl	_ZNSt4pairIKN3cpr21AcceptEncodingMethodsENSt7__cxx1112basic_stringIcSt11char_traitsIcESaIcEEEEC1ERKS9_
	.def	_ZNSt4pairIKN3cpr21AcceptEncodingMethodsENSt7__cxx1112basic_stringIcSt11char_traitsIcESaIcEEEEC1ERKS9_;	.scl	2;	.type	32;	.endef
	.seh_proc	_ZNSt4pairIKN3cpr21AcceptEncodingMethodsENSt7__cxx1112basic_stringIcSt11char_traitsIcESaIcEEEEC1ERKS9_
_ZNSt4pairIKN3cpr21AcceptEncodingMethodsENSt7__cxx1112basic_stringIcSt11char_traitsIcESaIcEEEEC1ERKS9_:
.LFB15516:
	pushq	%rbp
	.seh_pushreg	%rbp
	movq	%rsp, %rbp
	.seh_setframe	%rbp, 0
	subq	$32, %rsp
	.seh_stackalloc	32
	.seh_endprologue
	movq	%rcx, 16(%rbp)
	movq	%rdx, 24(%rbp)
	movq	24(%rbp), %rax
	movl	(%rax), %edx
	movq	16(%rbp), %rax
	movl	%edx, (%rax)
	movq	16(%rbp), %rax
	addq	$8, %rax
	movq	24(%rbp), %rdx
	addq	$8, %rdx
	movq	%rax, %rcx
	call	_ZNSt7__cxx1112basic_stringIcSt11char_traitsIcESaIcEEC1ERKS4_
	nop
	addq	$32, %rsp
	popq	%rbp
	ret
	.seh_endproc
	.globl	_ZTISt16invalid_argument
	.section	.rdata$_ZTISt16invalid_argument,"dr"
	.linkonce same_size
	.align 8
_ZTISt16invalid_argument:
	.quad	_ZTVN10__cxxabiv120__si_class_type_infoE+16
	.quad	_ZTSSt16invalid_argument
	.quad	_ZTISt11logic_error
	.globl	_ZTSSt16invalid_argument
	.section	.rdata$_ZTSSt16invalid_argument,"dr"
	.linkonce same_size
	.align 16
_ZTSSt16invalid_argument:
	.ascii "St16invalid_argument\0"
	.globl	_ZTISt11logic_error
	.section	.rdata$_ZTISt11logic_error,"dr"
	.linkonce same_size
	.align 8
_ZTISt11logic_error:
	.quad	_ZTVN10__cxxabiv120__si_class_type_infoE+16
	.quad	_ZTSSt11logic_error
	.quad	_ZTISt9exception
	.globl	_ZTSSt11logic_error
	.section	.rdata$_ZTSSt11logic_error,"dr"
	.linkonce same_size
	.align 16
_ZTSSt11logic_error:
	.ascii "St11logic_error\0"
	.globl	_ZTISt9exception
	.section	.rdata$_ZTISt9exception,"dr"
	.linkonce same_size
	.align 8
_ZTISt9exception:
	.quad	_ZTVN10__cxxabiv117__class_type_infoE+16
	.quad	_ZTSSt9exception
	.globl	_ZTSSt9exception
	.section	.rdata$_ZTSSt9exception,"dr"
	.linkonce same_size
	.align 8
_ZTSSt9exception:
	.ascii "St9exception\0"
	.section	.text$_ZNSt3mapIN3cpr21AcceptEncodingMethodsENSt7__cxx1112basic_stringIcSt11char_traitsIcESaIcEEESt4lessIS1_ESaISt4pairIKS1_S7_EEED1Ev,"x"
	.linkonce discard
	.align 2
	.globl	_ZNSt3mapIN3cpr21AcceptEncodingMethodsENSt7__cxx1112basic_stringIcSt11char_traitsIcESaIcEEESt4lessIS1_ESaISt4pairIKS1_S7_EEED1Ev
	.def	_ZNSt3mapIN3cpr21AcceptEncodingMethodsENSt7__cxx1112basic_stringIcSt11char_traitsIcESaIcEEESt4lessIS1_ESaISt4pairIKS1_S7_EEED1Ev;	.scl	2;	.type	32;	.endef
	.seh_proc	_ZNSt3mapIN3cpr21AcceptEncodingMethodsENSt7__cxx1112basic_stringIcSt11char_traitsIcESaIcEEESt4lessIS1_ESaISt4pairIKS1_S7_EEED1Ev
_ZNSt3mapIN3cpr21AcceptEncodingMethodsENSt7__cxx1112basic_stringIcSt11char_traitsIcESaIcEEESt4lessIS1_ESaISt4pairIKS1_S7_EEED1Ev:
.LFB15568:
	pushq	%rbp
	.seh_pushreg	%rbp
	movq	%rsp, %rbp
	.seh_setframe	%rbp, 0
	subq	$32, %rsp
	.seh_stackalloc	32
	.seh_endprologue
	movq	%rcx, 16(%rbp)
	movq	16(%rbp), %rax
	movq	%rax, %rcx
	call	_ZNSt8_Rb_treeIN3cpr21AcceptEncodingMethodsESt4pairIKS1_NSt7__cxx1112basic_stringIcSt11char_traitsIcESaIcEEEESt10_Select1stISA_ESt4lessIS1_ESaISA_EED1Ev
	nop
	addq	$32, %rsp
	popq	%rbp
	ret
	.seh_endproc
	.text
	.def	__tcf_1;	.scl	3;	.type	32;	.endef
	.seh_proc	__tcf_1
__tcf_1:
.LFB15569:
	pushq	%rbp
	.seh_pushreg	%rbp
	movq	%rsp, %rbp
	.seh_setframe	%rbp, 0
	subq	$32, %rsp
	.seh_stackalloc	32
	.seh_endprologue
	leaq	_ZN3cprL30AcceptEncodingMethodsStringMapE(%rip), %rax
	movq	%rax, %rcx
	call	_ZNSt3mapIN3cpr21AcceptEncodingMethodsENSt7__cxx1112basic_stringIcSt11char_traitsIcESaIcEEESt4lessIS1_ESaISt4pairIKS1_S7_EEED1Ev
	nop
	addq	$32, %rsp
	popq	%rbp
	ret
	.seh_endproc
	.section .rdata,"dr"
.LC4:
	.ascii "identity\0"
.LC5:
	.ascii "deflate\0"
.LC6:
	.ascii "zlib\0"
.LC7:
	.ascii "gzip\0"
.LC8:
	.ascii "disabled\0"
	.text
	.def	_Z41__static_initialization_and_destruction_0v;	.scl	3;	.type	32;	.endef
	.seh_proc	_Z41__static_initialization_and_destruction_0v
_Z41__static_initialization_and_destruction_0v:
.LFB15565:
	pushq	%rbp
	.seh_pushreg	%rbp
	pushq	%r13
	.seh_pushreg	%r13
	pushq	%r12
	.seh_pushreg	%r12
	pushq	%rdi
	.seh_pushreg	%rdi
	pushq	%rsi
	.seh_pushreg	%rsi
	pushq	%rbx
	.seh_pushreg	%rbx
	subq	$296, %rsp
	.seh_stackalloc	296
	leaq	128(%rsp), %rbp
	.seh_setframe	%rbp, 128
	.seh_endprologue
	leaq	-80(%rbp), %rdi
	movl	$4, %ebx
	movq	%rdi, %rcx
	movl	$0, 128(%rbp)
	leaq	128(%rbp), %rax
	leaq	.LC4(%rip), %r8
	movq	%rax, %rdx
.LEHB33:
	call	_ZNSt4pairIKN3cpr21AcceptEncodingMethodsENSt7__cxx1112basic_stringIcSt11char_traitsIcESaIcEEEEC1IS1_RA9_KcLb1EEEOT_OT0_
	leaq	40(%rdi), %rsi
	subq	$1, %rbx
	movl	$1, 132(%rbp)
	leaq	132(%rbp), %rax
	leaq	.LC5(%rip), %r8
	movq	%rax, %rdx
	movq	%rsi, %rcx
	call	_ZNSt4pairIKN3cpr21AcceptEncodingMethodsENSt7__cxx1112basic_stringIcSt11char_traitsIcESaIcEEEEC1IS1_RA8_KcLb1EEEOT_OT0_
	addq	$40, %rsi
	subq	$1, %rbx
	movl	$2, 136(%rbp)
	leaq	136(%rbp), %rax
	leaq	.LC6(%rip), %r8
	movq	%rax, %rdx
	movq	%rsi, %rcx
	call	_ZNSt4pairIKN3cpr21AcceptEncodingMethodsENSt7__cxx1112basic_stringIcSt11char_traitsIcESaIcEEEEC1IS1_RA5_KcLb1EEEOT_OT0_
	addq	$40, %rsi
	subq	$1, %rbx
	movl	$3, 140(%rbp)
	leaq	140(%rbp), %rax
	leaq	.LC7(%rip), %r8
	movq	%rax, %rdx
	movq	%rsi, %rcx
	call	_ZNSt4pairIKN3cpr21AcceptEncodingMethodsENSt7__cxx1112basic_stringIcSt11char_traitsIcESaIcEEEEC1IS1_RA5_KcLb1EEEOT_OT0_
	leaq	40(%rsi), %rcx
	subq	$1, %rbx
	movl	$4, 144(%rbp)
	leaq	144(%rbp), %rax
	leaq	.LC8(%rip), %r8
	movq	%rax, %rdx
	call	_ZNSt4pairIKN3cpr21AcceptEncodingMethodsENSt7__cxx1112basic_stringIcSt11char_traitsIcESaIcEEEEC1IS1_RA9_KcLb1EEEOT_OT0_
.LEHE33:
	movl	$4, %ebx
	leaq	-80(%rbp), %rax
	movq	%rax, %r12
	movl	$5, %r13d
	leaq	151(%rbp), %rax
	movq	%rax, 152(%rbp)
	nop
	nop
	movq	%r12, -96(%rbp)
	movq	%r13, -88(%rbp)
	leaq	151(%rbp), %rcx
	leaq	150(%rbp), %rdx
	leaq	-96(%rbp), %rax
	movq	%rcx, %r9
	movq	%rdx, %r8
	movq	%rax, %rdx
	leaq	_ZN3cprL30AcceptEncodingMethodsStringMapE(%rip), %rax
	movq	%rax, %rcx
.LEHB34:
	call	_ZNSt3mapIN3cpr21AcceptEncodingMethodsENSt7__cxx1112basic_stringIcSt11char_traitsIcESaIcEEESt4lessIS1_ESaISt4pairIKS1_S7_EEEC1ESt16initializer_listISC_ERKS9_RKSD_
.LEHE34:
	leaq	151(%rbp), %rax
	movq	%rax, %rcx
	call	_ZNSt15__new_allocatorISt4pairIKN3cpr21AcceptEncodingMethodsENSt7__cxx1112basic_stringIcSt11char_traitsIcESaIcEEEEED2Ev
	nop
	leaq	-80(%rbp), %rbx
	addq	$200, %rbx
.L266:
	leaq	-80(%rbp), %rax
	cmpq	%rax, %rbx
	je	.L265
	subq	$40, %rbx
	movq	%rbx, %rcx
	call	_ZNSt4pairIKN3cpr21AcceptEncodingMethodsENSt7__cxx1112basic_stringIcSt11char_traitsIcESaIcEEEED1Ev
	jmp	.L266
.L265:
	leaq	__tcf_1(%rip), %rax
	movq	%rax, %rcx
	call	atexit
	jmp	.L275
.L274:
	movq	%rax, %rsi
	leaq	151(%rbp), %rax
	movq	%rax, %rcx
	call	_ZNSt15__new_allocatorISt4pairIKN3cpr21AcceptEncodingMethodsENSt7__cxx1112basic_stringIcSt11char_traitsIcESaIcEEEEED2Ev
	nop
	movq	%rsi, %r12
	leaq	-80(%rbp), %rsi
	addq	$200, %rsi
.L269:
	leaq	-80(%rbp), %rax
	cmpq	%rax, %rsi
	je	.L268
	subq	$40, %rsi
	movq	%rsi, %rcx
	call	_ZNSt4pairIKN3cpr21AcceptEncodingMethodsENSt7__cxx1112basic_stringIcSt11char_traitsIcESaIcEEEED1Ev
	jmp	.L269
.L268:
	movq	%r12, %rsi
	jmp	.L270
.L273:
	movq	%rax, %rsi
.L270:
	testq	%rdi, %rdi
	je	.L271
	movl	$4, %eax
	subq	%rbx, %rax
	movq	%rax, %rdx
	movq	%rdx, %rax
	salq	$2, %rax
	addq	%rdx, %rax
	salq	$3, %rax
	leaq	(%rdi,%rax), %rbx
.L272:
	cmpq	%rdi, %rbx
	je	.L271
	subq	$40, %rbx
	movq	%rbx, %rcx
	call	_ZNSt4pairIKN3cpr21AcceptEncodingMethodsENSt7__cxx1112basic_stringIcSt11char_traitsIcESaIcEEEED1Ev
	jmp	.L272
.L271:
	movq	%rsi, %rax
	movq	%rax, %rcx
.LEHB35:
	call	_Unwind_Resume
	nop
.LEHE35:
.L275:
	addq	$296, %rsp
	popq	%rbx
	popq	%rsi
	popq	%rdi
	popq	%r12
	popq	%r13
	popq	%rbp
	ret
	.seh_handler	__gxx_personality_seh0, @unwind, @except
	.seh_handlerdata
.LLSDA15565:
	.byte	0xff
	.byte	0xff
	.byte	0x1
	.uleb128 .LLSDACSE15565-.LLSDACSB15565
.LLSDACSB15565:
	.uleb128 .LEHB33-.LFB15565
	.uleb128 .LEHE33-.LEHB33
	.uleb128 .L273-.LFB15565
	.uleb128 0
	.uleb128 .LEHB34-.LFB15565
	.uleb128 .LEHE34-.LEHB34
	.uleb128 .L274-.LFB15565
	.uleb128 0
	.uleb128 .LEHB35-.LFB15565
	.uleb128 .LEHE35-.LEHB35
	.uleb128 0
	.uleb128 0
.LLSDACSE15565:
	.text
	.seh_endproc
	.section .rdata,"dr"
_ZNSt8__detail30__integer_to_chars_is_unsignedIjEE:
	.byte	1
_ZNSt8__detail30__integer_to_chars_is_unsignedImEE:
	.byte	1
_ZNSt8__detail30__integer_to_chars_is_unsignedIyEE:
	.byte	1
_ZSt12__is_ratio_vISt5ratioILx1ELx1000000000EEE:
	.byte	1
_ZSt12__is_ratio_vISt5ratioILx1ELx1EEE:
	.byte	1
_ZSt12__is_ratio_vISt5ratioILx1000000000ELx1EEE:
	.byte	1
_ZSt12__is_ratio_vISt5ratioILx1000ELx1EEE:
	.byte	1
	.text
	.def	_GLOBAL__sub_I__ZN3cpr11Interceptor7proceedERNS_7SessionE;	.scl	3;	.type	32;	.endef
	.seh_proc	_GLOBAL__sub_I__ZN3cpr11Interceptor7proceedERNS_7SessionE
_GLOBAL__sub_I__ZN3cpr11Interceptor7proceedERNS_7SessionE:
.LFB15591:
	pushq	%rbp
	.seh_pushreg	%rbp
	movq	%rsp, %rbp
	.seh_setframe	%rbp, 0
	subq	$32, %rsp
	.seh_stackalloc	32
	.seh_endprologue
	call	_Z41__static_initialization_and_destruction_0v
	nop
	addq	$32, %rsp
	popq	%rbp
	ret
	.seh_endproc
	.section	.ctors,"w"
	.align 8
	.quad	_GLOBAL__sub_I__ZN3cpr11Interceptor7proceedERNS_7SessionE
	.def	__gxx_personality_seh0;	.scl	2;	.type	32;	.endef
	.ident	"GCC: (MinGW-W64 x86_64-ucrt-posix-seh, built by Brecht Sanders, r1) 14.2.0"
	.def	strlen;	.scl	2;	.type	32;	.endef
	.def	_ZNSt7__cxx1112basic_stringIcSt11char_traitsIcESaIcEED1Ev;	.scl	2;	.type	32;	.endef
	.def	_Unwind_Resume;	.scl	2;	.type	32;	.endef
	.def	_ZN3cpr7Session7proceedEv;	.scl	2;	.type	32;	.endef
	.def	_ZN3cpr7Session6DeleteEv;	.scl	2;	.type	32;	.endef
	.def	_ZN3cpr7Session3GetEv;	.scl	2;	.type	32;	.endef
	.def	_ZN3cpr7Session4HeadEv;	.scl	2;	.type	32;	.endef
	.def	_ZN3cpr7Session7OptionsEv;	.scl	2;	.type	32;	.endef
	.def	_ZN3cpr7Session5PatchEv;	.scl	2;	.type	32;	.endef
	.def	_ZN3cpr7Session4PostEv;	.scl	2;	.type	32;	.endef
	.def	_ZN3cpr7Session3PutEv;	.scl	2;	.type	32;	.endef
	.def	__cxa_allocate_exception;	.scl	2;	.type	32;	.endef
	.def	_ZNSt16invalid_argumentC1EPKc;	.scl	2;	.type	32;	.endef
	.def	__cxa_throw;	.scl	2;	.type	32;	.endef
	.def	__cxa_free_exception;	.scl	2;	.type	32;	.endef
	.def	_ZN3cpr7Session8DownloadERSt14basic_ofstreamIcSt11char_traitsIcEE;	.scl	2;	.type	32;	.endef
	.def	_ZN3cpr7Session8DownloadERKNS_13WriteCallbackE;	.scl	2;	.type	32;	.endef
	.def	_ZN3cpr12MultiPerform7proceedEv;	.scl	2;	.type	32;	.endef
	.def	_ZNSt7__cxx1112basic_stringIcSt11char_traitsIcESaIcEE13_M_local_dataEv;	.scl	2;	.type	32;	.endef
	.def	_ZNSt7__cxx1112basic_stringIcSt11char_traitsIcESaIcEE12_Alloc_hiderC1EPcRKS3_;	.scl	2;	.type	32;	.endef
	.def	_ZSt19__throw_logic_errorPKc;	.scl	2;	.type	32;	.endef
	.def	_ZN3cpr12MultiPerform22PrepareDownloadSessionEyRKNS_13WriteCallbackE;	.scl	2;	.type	32;	.endef
	.def	_ZNSt7__cxx1112basic_stringIcSt11char_traitsIcESaIcEE10_M_disposeEv;	.scl	2;	.type	32;	.endef
	.def	_ZNSt7__cxx1112basic_stringIcSt11char_traitsIcESaIcEE9_M_createERyy;	.scl	2;	.type	32;	.endef
	.def	_ZNSt7__cxx1112basic_stringIcSt11char_traitsIcESaIcEE7_M_dataEPc;	.scl	2;	.type	32;	.endef
	.def	_ZNSt7__cxx1112basic_stringIcSt11char_traitsIcESaIcEE11_M_capacityEy;	.scl	2;	.type	32;	.endef
	.def	_ZNKSt7__cxx1112basic_stringIcSt11char_traitsIcESaIcEE7_M_dataEv;	.scl	2;	.type	32;	.endef
	.def	_ZNSt7__cxx1112basic_stringIcSt11char_traitsIcESaIcEE13_S_copy_charsEPcPKcS7_;	.scl	2;	.type	32;	.endef
	.def	_ZNSt7__cxx1112basic_stringIcSt11char_traitsIcESaIcEE13_M_set_lengthEy;	.scl	2;	.type	32;	.endef
	.def	_ZSt29_Rb_tree_insert_and_rebalancebPSt18_Rb_tree_node_baseS0_RS_;	.scl	2;	.type	32;	.endef
	.def	_ZSt18_Rb_tree_decrementPSt18_Rb_tree_node_base;	.scl	2;	.type	32;	.endef
	.def	_ZSt18_Rb_tree_incrementPSt18_Rb_tree_node_base;	.scl	2;	.type	32;	.endef
	.def	_ZdlPvy;	.scl	2;	.type	32;	.endef
	.def	__cxa_begin_catch;	.scl	2;	.type	32;	.endef
	.def	__cxa_rethrow;	.scl	2;	.type	32;	.endef
	.def	__cxa_end_catch;	.scl	2;	.type	32;	.endef
	.def	_ZSt28__throw_bad_array_new_lengthv;	.scl	2;	.type	32;	.endef
	.def	_ZSt17__throw_bad_allocv;	.scl	2;	.type	32;	.endef
	.def	_Znwy;	.scl	2;	.type	32;	.endef
	.def	_ZNSt7__cxx1112basic_stringIcSt11char_traitsIcESaIcEEC1ERKS4_;	.scl	2;	.type	32;	.endef
	.def	atexit;	.scl	2;	.type	32;	.endef
	.section	.rdata$.refptr._ZNSt16invalid_argumentD1Ev, "dr"
	.globl	.refptr._ZNSt16invalid_argumentD1Ev
	.linkonce	discard
.refptr._ZNSt16invalid_argumentD1Ev:
	.quad	_ZNSt16invalid_argumentD1Ev
