	.file	"multiperform.cpp"
	.text
	.section	.text$_ZnwyPv,"x"
	.linkonce discard
	.globl	_ZnwyPv
	.def	_ZnwyPv;	.scl	2;	.type	32;	.endef
	.seh_proc	_ZnwyPv
_ZnwyPv:
.LFB6037:
	pushq	%rbp
	.seh_pushreg	%rbp
	movq	%rsp, %rbp
	.seh_setframe	%rbp, 0
	.seh_endprologue
	movq	%rcx, 16(%rbp)
	movq	%rdx, 24(%rbp)
	movq	24(%rbp), %rax
	popq	%rbp
	ret
	.seh_endproc
	.section	.text$_ZdlPvS_,"x"
	.linkonce discard
	.globl	_ZdlPvS_
	.def	_ZdlPvS_;	.scl	2;	.type	32;	.endef
	.seh_proc	_ZdlPvS_
_ZdlPvS_:
.LFB6039:
	pushq	%rbp
	.seh_pushreg	%rbp
	movq	%rsp, %rbp
	.seh_setframe	%rbp, 0
	.seh_endprologue
	movq	%rcx, 16(%rbp)
	movq	%rdx, 24(%rbp)
	nop
	popq	%rbp
	ret
	.seh_endproc
	.text
	.def	_ZL18__gthread_active_pv;	.scl	3;	.type	32;	.endef
	.seh_proc	_ZL18__gthread_active_pv
_ZL18__gthread_active_pv:
.LFB7045:
	pushq	%rbp
	.seh_pushreg	%rbp
	movq	%rsp, %rbp
	.seh_setframe	%rbp, 0
	.seh_endprologue
	movl	$1, %eax
	popq	%rbp
	ret
	.seh_endproc
	.section	.text$_ZNSt16_Sp_counted_baseILN9__gnu_cxx12_Lock_policyE2EE10_M_releaseEv,"x"
	.linkonce discard
	.align 2
	.globl	_ZNSt16_Sp_counted_baseILN9__gnu_cxx12_Lock_policyE2EE10_M_releaseEv
	.def	_ZNSt16_Sp_counted_baseILN9__gnu_cxx12_Lock_policyE2EE10_M_releaseEv;	.scl	2;	.type	32;	.endef
	.seh_proc	_ZNSt16_Sp_counted_baseILN9__gnu_cxx12_Lock_policyE2EE10_M_releaseEv
_ZNSt16_Sp_counted_baseILN9__gnu_cxx12_Lock_policyE2EE10_M_releaseEv:
.LFB7201:
	pushq	%rbp
	.seh_pushreg	%rbp
	movq	%rsp, %rbp
	.seh_setframe	%rbp, 0
	subq	$112, %rsp
	.seh_stackalloc	112
	.seh_endprologue
	movq	%rcx, 16(%rbp)
	movb	$1, -1(%rbp)
	movb	$1, -2(%rbp)
	movb	$1, -3(%rbp)
	movl	$32, -8(%rbp)
	movl	$32, -12(%rbp)
	movabsq	$4294967297, %rax
	movq	%rax, -24(%rbp)
	movq	16(%rbp), %rax
	addq	$8, %rax
	movq	%rax, -32(%rbp)
	movq	-32(%rbp), %rax
	movq	(%rax), %rdx
	movabsq	$4294967297, %rax
	cmpq	%rax, %rdx
	sete	%al
	testb	%al, %al
	je	.L7
	movq	16(%rbp), %rax
	movl	$0, 8(%rax)
	movq	16(%rbp), %rax
	movl	8(%rax), %edx
	movq	16(%rbp), %rax
	movl	%edx, 12(%rax)
	movq	16(%rbp), %rax
	movq	(%rax), %rax
	addq	$16, %rax
	movq	(%rax), %rdx
	movq	16(%rbp), %rax
	movq	%rax, %rcx
	call	*%rdx
	movq	16(%rbp), %rax
	movq	(%rax), %rax
	addq	$24, %rax
	movq	(%rax), %rdx
	movq	16(%rbp), %rax
	movq	%rax, %rcx
	call	*%rdx
	jmp	.L6
.L7:
	movq	16(%rbp), %rax
	addq	$8, %rax
	movq	%rax, -40(%rbp)
	movl	$-1, -44(%rbp)
	call	_ZL18__gthread_active_pv
	testl	%eax, %eax
	sete	%al
	testb	%al, %al
	je	.L10
	movq	-40(%rbp), %rax
	movq	%rax, -56(%rbp)
	movl	-44(%rbp), %eax
	movl	%eax, -60(%rbp)
	movq	-56(%rbp), %rax
	movl	(%rax), %eax
	movl	%eax, -64(%rbp)
	movq	-56(%rbp), %rax
	movl	(%rax), %edx
	movl	-60(%rbp), %eax
	addl	%eax, %edx
	movq	-56(%rbp), %rax
	movl	%edx, (%rax)
	movl	-64(%rbp), %eax
	jmp	.L12
.L10:
	movq	-40(%rbp), %rax
	movq	%rax, -72(%rbp)
	movl	-44(%rbp), %eax
	movl	%eax, -76(%rbp)
	movl	-76(%rbp), %edx
	movq	-72(%rbp), %rax
	lock xaddl	%edx, (%rax)
	movl	%edx, %eax
	nop
.L12:
	cmpl	$1, %eax
	sete	%al
	testb	%al, %al
	je	.L6
	movq	16(%rbp), %rax
	movq	%rax, %rcx
	call	_ZNSt16_Sp_counted_baseILN9__gnu_cxx12_Lock_policyE2EE24_M_release_last_use_coldEv
	nop
.L6:
	addq	$112, %rsp
	popq	%rbp
	ret
	.seh_endproc
	.section	.text$_ZNSt11char_traitsIcE6lengthEPKc,"x"
	.linkonce discard
	.globl	_ZNSt11char_traitsIcE6lengthEPKc
	.def	_ZNSt11char_traitsIcE6lengthEPKc;	.scl	2;	.type	32;	.endef
	.seh_proc	_ZNSt11char_traitsIcE6lengthEPKc
_ZNSt11char_traitsIcE6lengthEPKc:
.LFB7604:
	pushq	%rbp
	.seh_pushreg	%rbp
	movq	%rsp, %rbp
	.seh_setframe	%rbp, 0
	subq	$32, %rsp
	.seh_stackalloc	32
	.seh_endprologue
	movq	%rcx, 16(%rbp)
	movl	$0, %eax
	testb	%al, %al
	je	.L16
	movq	16(%rbp), %rax
	movq	%rax, %rcx
	call	_ZN9__gnu_cxx11char_traitsIcE6lengthEPKc
	jmp	.L17
.L16:
	movq	16(%rbp), %rax
	movq	%rax, %rcx
	call	strlen
	nop
.L17:
	addq	$32, %rsp
	popq	%rbp
	ret
	.seh_endproc
	.section .rdata,"dr"
	.align 8
_ZN3cprL19EXPIRES_STRING_SIZEE:
	.quad	100
	.section	.text$_ZNSt12_Vector_baseIN3cpr6CookieESaIS1_EE12_Vector_implD1Ev,"x"
	.linkonce discard
	.align 2
	.globl	_ZNSt12_Vector_baseIN3cpr6CookieESaIS1_EE12_Vector_implD1Ev
	.def	_ZNSt12_Vector_baseIN3cpr6CookieESaIS1_EE12_Vector_implD1Ev;	.scl	2;	.type	32;	.endef
	.seh_proc	_ZNSt12_Vector_baseIN3cpr6CookieESaIS1_EE12_Vector_implD1Ev
_ZNSt12_Vector_baseIN3cpr6CookieESaIS1_EE12_Vector_implD1Ev:
.LFB9512:
	pushq	%rbp
	.seh_pushreg	%rbp
	movq	%rsp, %rbp
	.seh_setframe	%rbp, 0
	subq	$48, %rsp
	.seh_stackalloc	48
	.seh_endprologue
	movq	%rcx, 16(%rbp)
	movq	16(%rbp), %rax
	movq	%rax, -8(%rbp)
	movq	-8(%rbp), %rax
	movq	%rax, %rcx
	call	_ZNSt15__new_allocatorIN3cpr6CookieEED2Ev
	nop
	nop
	addq	$48, %rsp
	popq	%rbp
	ret
	.seh_endproc
	.section	.text$_ZN3cpr6CookieC1ERKS0_,"x"
	.linkonce discard
	.align 2
	.globl	_ZN3cpr6CookieC1ERKS0_
	.def	_ZN3cpr6CookieC1ERKS0_;	.scl	2;	.type	32;	.endef
	.seh_proc	_ZN3cpr6CookieC1ERKS0_
_ZN3cpr6CookieC1ERKS0_:
.LFB9525:
	pushq	%rbp
	.seh_pushreg	%rbp
	pushq	%rbx
	.seh_pushreg	%rbx
	subq	$40, %rsp
	.seh_stackalloc	40
	leaq	32(%rsp), %rbp
	.seh_setframe	%rbp, 32
	.seh_endprologue
	movq	%rcx, 32(%rbp)
	movq	%rdx, 40(%rbp)
	movq	32(%rbp), %rax
	movq	40(%rbp), %rdx
	movq	%rax, %rcx
.LEHB0:
	call	_ZNSt7__cxx1112basic_stringIcSt11char_traitsIcESaIcEEC1ERKS4_
.LEHE0:
	movq	32(%rbp), %rax
	addq	$32, %rax
	movq	40(%rbp), %rdx
	addq	$32, %rdx
	movq	%rax, %rcx
.LEHB1:
	call	_ZNSt7__cxx1112basic_stringIcSt11char_traitsIcESaIcEEC1ERKS4_
.LEHE1:
	movq	32(%rbp), %rax
	addq	$64, %rax
	movq	40(%rbp), %rdx
	addq	$64, %rdx
	movq	%rax, %rcx
.LEHB2:
	call	_ZNSt7__cxx1112basic_stringIcSt11char_traitsIcESaIcEEC1ERKS4_
.LEHE2:
	movq	40(%rbp), %rax
	movzbl	96(%rax), %edx
	movq	32(%rbp), %rax
	movb	%dl, 96(%rax)
	movq	32(%rbp), %rax
	addq	$104, %rax
	movq	40(%rbp), %rdx
	addq	$104, %rdx
	movq	%rax, %rcx
.LEHB3:
	call	_ZNSt7__cxx1112basic_stringIcSt11char_traitsIcESaIcEEC1ERKS4_
.LEHE3:
	movq	40(%rbp), %rax
	movzbl	136(%rax), %edx
	movq	32(%rbp), %rax
	movb	%dl, 136(%rax)
	movq	32(%rbp), %rax
	movq	40(%rbp), %rdx
	movq	144(%rdx), %rdx
	movq	%rdx, 144(%rax)
	jmp	.L26
.L25:
	movq	%rax, %rbx
	movq	32(%rbp), %rax
	addq	$64, %rax
	movq	%rax, %rcx
	call	_ZNSt7__cxx1112basic_stringIcSt11char_traitsIcESaIcEED1Ev
	jmp	.L21
.L24:
	movq	%rax, %rbx
.L21:
	movq	32(%rbp), %rax
	addq	$32, %rax
	movq	%rax, %rcx
	call	_ZNSt7__cxx1112basic_stringIcSt11char_traitsIcESaIcEED1Ev
	jmp	.L22
.L23:
	movq	%rax, %rbx
.L22:
	movq	32(%rbp), %rax
	movq	%rax, %rcx
	call	_ZNSt7__cxx1112basic_stringIcSt11char_traitsIcESaIcEED1Ev
	movq	%rbx, %rax
	movq	%rax, %rcx
.LEHB4:
	call	_Unwind_Resume
	nop
.LEHE4:
.L26:
	addq	$40, %rsp
	popq	%rbx
	popq	%rbp
	ret
	.seh_handler	__gxx_personality_seh0, @unwind, @except
	.seh_handlerdata
.LLSDA9525:
	.byte	0xff
	.byte	0xff
	.byte	0x1
	.uleb128 .LLSDACSE9525-.LLSDACSB9525
.LLSDACSB9525:
	.uleb128 .LEHB0-.LFB9525
	.uleb128 .LEHE0-.LEHB0
	.uleb128 0
	.uleb128 0
	.uleb128 .LEHB1-.LFB9525
	.uleb128 .LEHE1-.LEHB1
	.uleb128 .L23-.LFB9525
	.uleb128 0
	.uleb128 .LEHB2-.LFB9525
	.uleb128 .LEHE2-.LEHB2
	.uleb128 .L24-.LFB9525
	.uleb128 0
	.uleb128 .LEHB3-.LFB9525
	.uleb128 .LEHE3-.LEHB3
	.uleb128 .L25-.LFB9525
	.uleb128 0
	.uleb128 .LEHB4-.LFB9525
	.uleb128 .LEHE4-.LEHB4
	.uleb128 0
	.uleb128 0
.LLSDACSE9525:
	.section	.text$_ZN3cpr6CookieC1ERKS0_,"x"
	.linkonce discard
	.seh_endproc
	.section	.text$_ZN3cpr6CookieD1Ev,"x"
	.linkonce discard
	.align 2
	.globl	_ZN3cpr6CookieD1Ev
	.def	_ZN3cpr6CookieD1Ev;	.scl	2;	.type	32;	.endef
	.seh_proc	_ZN3cpr6CookieD1Ev
_ZN3cpr6CookieD1Ev:
.LFB9528:
	pushq	%rbp
	.seh_pushreg	%rbp
	movq	%rsp, %rbp
	.seh_setframe	%rbp, 0
	subq	$32, %rsp
	.seh_stackalloc	32
	.seh_endprologue
	movq	%rcx, 16(%rbp)
	movq	16(%rbp), %rax
	addq	$104, %rax
	movq	%rax, %rcx
	call	_ZNSt7__cxx1112basic_stringIcSt11char_traitsIcESaIcEED1Ev
	movq	16(%rbp), %rax
	addq	$64, %rax
	movq	%rax, %rcx
	call	_ZNSt7__cxx1112basic_stringIcSt11char_traitsIcESaIcEED1Ev
	movq	16(%rbp), %rax
	addq	$32, %rax
	movq	%rax, %rcx
	call	_ZNSt7__cxx1112basic_stringIcSt11char_traitsIcESaIcEED1Ev
	movq	16(%rbp), %rax
	movq	%rax, %rcx
	call	_ZNSt7__cxx1112basic_stringIcSt11char_traitsIcESaIcEED1Ev
	nop
	addq	$32, %rsp
	popq	%rbp
	ret
	.seh_endproc
	.section	.text$_ZNSt18_Rb_tree_node_base10_S_minimumEPS_,"x"
	.linkonce discard
	.globl	_ZNSt18_Rb_tree_node_base10_S_minimumEPS_
	.def	_ZNSt18_Rb_tree_node_base10_S_minimumEPS_;	.scl	2;	.type	32;	.endef
	.seh_proc	_ZNSt18_Rb_tree_node_base10_S_minimumEPS_
_ZNSt18_Rb_tree_node_base10_S_minimumEPS_:
.LFB9562:
	pushq	%rbp
	.seh_pushreg	%rbp
	movq	%rsp, %rbp
	.seh_setframe	%rbp, 0
	.seh_endprologue
	movq	%rcx, 16(%rbp)
	jmp	.L29
.L30:
	movq	16(%rbp), %rax
	movq	16(%rax), %rax
	movq	%rax, 16(%rbp)
.L29:
	movq	16(%rbp), %rax
	movq	16(%rax), %rax
	testq	%rax, %rax
	jne	.L30
	movq	16(%rbp), %rax
	popq	%rbp
	ret
	.seh_endproc
	.section	.text$_ZNSt18_Rb_tree_node_base10_S_maximumEPS_,"x"
	.linkonce discard
	.globl	_ZNSt18_Rb_tree_node_base10_S_maximumEPS_
	.def	_ZNSt18_Rb_tree_node_base10_S_maximumEPS_;	.scl	2;	.type	32;	.endef
	.seh_proc	_ZNSt18_Rb_tree_node_base10_S_maximumEPS_
_ZNSt18_Rb_tree_node_base10_S_maximumEPS_:
.LFB9564:
	pushq	%rbp
	.seh_pushreg	%rbp
	movq	%rsp, %rbp
	.seh_setframe	%rbp, 0
	.seh_endprologue
	movq	%rcx, 16(%rbp)
	jmp	.L33
.L34:
	movq	16(%rbp), %rax
	movq	24(%rax), %rax
	movq	%rax, 16(%rbp)
.L33:
	movq	16(%rbp), %rax
	movq	24(%rax), %rax
	testq	%rax, %rax
	jne	.L34
	movq	16(%rbp), %rax
	popq	%rbp
	ret
	.seh_endproc
	.section	.text$_ZNSt15_Rb_tree_headerC2Ev,"x"
	.linkonce discard
	.align 2
	.globl	_ZNSt15_Rb_tree_headerC2Ev
	.def	_ZNSt15_Rb_tree_headerC2Ev;	.scl	2;	.type	32;	.endef
	.seh_proc	_ZNSt15_Rb_tree_headerC2Ev
_ZNSt15_Rb_tree_headerC2Ev:
.LFB9570:
	pushq	%rbp
	.seh_pushreg	%rbp
	movq	%rsp, %rbp
	.seh_setframe	%rbp, 0
	subq	$32, %rsp
	.seh_stackalloc	32
	.seh_endprologue
	movq	%rcx, 16(%rbp)
	movq	16(%rbp), %rax
	movl	$0, (%rax)
	movq	16(%rbp), %rax
	movq	%rax, %rcx
	call	_ZNSt15_Rb_tree_header8_M_resetEv
	nop
	addq	$32, %rsp
	popq	%rbp
	ret
	.seh_endproc
	.section	.text$_ZNSt15_Rb_tree_headerC2EOS_,"x"
	.linkonce discard
	.align 2
	.globl	_ZNSt15_Rb_tree_headerC2EOS_
	.def	_ZNSt15_Rb_tree_headerC2EOS_;	.scl	2;	.type	32;	.endef
	.seh_proc	_ZNSt15_Rb_tree_headerC2EOS_
_ZNSt15_Rb_tree_headerC2EOS_:
.LFB9573:
	pushq	%rbp
	.seh_pushreg	%rbp
	movq	%rsp, %rbp
	.seh_setframe	%rbp, 0
	subq	$32, %rsp
	.seh_stackalloc	32
	.seh_endprologue
	movq	%rcx, 16(%rbp)
	movq	%rdx, 24(%rbp)
	movq	24(%rbp), %rax
	movq	8(%rax), %rax
	testq	%rax, %rax
	je	.L38
	movq	24(%rbp), %rdx
	movq	16(%rbp), %rax
	movq	%rax, %rcx
	call	_ZNSt15_Rb_tree_header12_M_move_dataERS_
	jmp	.L40
.L38:
	movq	16(%rbp), %rax
	movl	$0, (%rax)
	movq	16(%rbp), %rax
	movq	%rax, %rcx
	call	_ZNSt15_Rb_tree_header8_M_resetEv
.L40:
	nop
	addq	$32, %rsp
	popq	%rbp
	ret
	.seh_handler	__gxx_personality_seh0, @unwind, @except
	.seh_handlerdata
.LLSDA9573:
	.byte	0xff
	.byte	0xff
	.byte	0x1
	.uleb128 .LLSDACSE9573-.LLSDACSB9573
.LLSDACSB9573:
.LLSDACSE9573:
	.section	.text$_ZNSt15_Rb_tree_headerC2EOS_,"x"
	.linkonce discard
	.seh_endproc
	.section	.text$_ZNSt15_Rb_tree_header12_M_move_dataERS_,"x"
	.linkonce discard
	.align 2
	.globl	_ZNSt15_Rb_tree_header12_M_move_dataERS_
	.def	_ZNSt15_Rb_tree_header12_M_move_dataERS_;	.scl	2;	.type	32;	.endef
	.seh_proc	_ZNSt15_Rb_tree_header12_M_move_dataERS_
_ZNSt15_Rb_tree_header12_M_move_dataERS_:
.LFB9575:
	pushq	%rbp
	.seh_pushreg	%rbp
	movq	%rsp, %rbp
	.seh_setframe	%rbp, 0
	subq	$32, %rsp
	.seh_stackalloc	32
	.seh_endprologue
	movq	%rcx, 16(%rbp)
	movq	%rdx, 24(%rbp)
	movq	24(%rbp), %rax
	movl	(%rax), %edx
	movq	16(%rbp), %rax
	movl	%edx, (%rax)
	movq	24(%rbp), %rax
	movq	8(%rax), %rdx
	movq	16(%rbp), %rax
	movq	%rdx, 8(%rax)
	movq	24(%rbp), %rax
	movq	16(%rax), %rdx
	movq	16(%rbp), %rax
	movq	%rdx, 16(%rax)
	movq	24(%rbp), %rax
	movq	24(%rax), %rdx
	movq	16(%rbp), %rax
	movq	%rdx, 24(%rax)
	movq	16(%rbp), %rax
	movq	8(%rax), %rax
	movq	16(%rbp), %rdx
	movq	%rdx, 8(%rax)
	movq	24(%rbp), %rax
	movq	32(%rax), %rdx
	movq	16(%rbp), %rax
	movq	%rdx, 32(%rax)
	movq	24(%rbp), %rax
	movq	%rax, %rcx
	call	_ZNSt15_Rb_tree_header8_M_resetEv
	nop
	addq	$32, %rsp
	popq	%rbp
	ret
	.seh_endproc
	.section	.text$_ZNSt15_Rb_tree_header8_M_resetEv,"x"
	.linkonce discard
	.align 2
	.globl	_ZNSt15_Rb_tree_header8_M_resetEv
	.def	_ZNSt15_Rb_tree_header8_M_resetEv;	.scl	2;	.type	32;	.endef
	.seh_proc	_ZNSt15_Rb_tree_header8_M_resetEv
_ZNSt15_Rb_tree_header8_M_resetEv:
.LFB9576:
	pushq	%rbp
	.seh_pushreg	%rbp
	movq	%rsp, %rbp
	.seh_setframe	%rbp, 0
	.seh_endprologue
	movq	%rcx, 16(%rbp)
	movq	16(%rbp), %rax
	movq	$0, 8(%rax)
	movq	16(%rbp), %rdx
	movq	16(%rbp), %rax
	movq	%rdx, 16(%rax)
	movq	16(%rbp), %rdx
	movq	16(%rbp), %rax
	movq	%rdx, 24(%rax)
	movq	16(%rbp), %rax
	movq	$0, 32(%rax)
	nop
	popq	%rbp
	ret
	.seh_endproc
	.section	.text$_ZN3cpr12StringHolderINS_3UrlEED2Ev,"x"
	.linkonce discard
	.align 2
	.globl	_ZN3cpr12StringHolderINS_3UrlEED2Ev
	.def	_ZN3cpr12StringHolderINS_3UrlEED2Ev;	.scl	2;	.type	32;	.endef
	.seh_proc	_ZN3cpr12StringHolderINS_3UrlEED2Ev
_ZN3cpr12StringHolderINS_3UrlEED2Ev:
.LFB9977:
	pushq	%rbp
	.seh_pushreg	%rbp
	movq	%rsp, %rbp
	.seh_setframe	%rbp, 0
	subq	$32, %rsp
	.seh_stackalloc	32
	.seh_endprologue
	movq	%rcx, 16(%rbp)
	leaq	16+_ZTVN3cpr12StringHolderINS_3UrlEEE(%rip), %rdx
	movq	16(%rbp), %rax
	movq	%rdx, (%rax)
	movq	16(%rbp), %rax
	addq	$8, %rax
	movq	%rax, %rcx
	call	_ZNSt7__cxx1112basic_stringIcSt11char_traitsIcESaIcEED1Ev
	nop
	addq	$32, %rsp
	popq	%rbp
	ret
	.seh_endproc
	.section	.text$_ZN3cpr12StringHolderINS_3UrlEED1Ev,"x"
	.linkonce discard
	.align 2
	.globl	_ZN3cpr12StringHolderINS_3UrlEED1Ev
	.def	_ZN3cpr12StringHolderINS_3UrlEED1Ev;	.scl	2;	.type	32;	.endef
	.seh_proc	_ZN3cpr12StringHolderINS_3UrlEED1Ev
_ZN3cpr12StringHolderINS_3UrlEED1Ev:
.LFB9978:
	pushq	%rbp
	.seh_pushreg	%rbp
	movq	%rsp, %rbp
	.seh_setframe	%rbp, 0
	subq	$32, %rsp
	.seh_stackalloc	32
	.seh_endprologue
	movq	%rcx, 16(%rbp)
	leaq	16+_ZTVN3cpr12StringHolderINS_3UrlEEE(%rip), %rdx
	movq	16(%rbp), %rax
	movq	%rdx, (%rax)
	movq	16(%rbp), %rax
	addq	$8, %rax
	movq	%rax, %rcx
	call	_ZNSt7__cxx1112basic_stringIcSt11char_traitsIcESaIcEED1Ev
	nop
	addq	$32, %rsp
	popq	%rbp
	ret
	.seh_endproc
	.section	.text$_ZN3cpr12StringHolderINS_3UrlEED0Ev,"x"
	.linkonce discard
	.align 2
	.globl	_ZN3cpr12StringHolderINS_3UrlEED0Ev
	.def	_ZN3cpr12StringHolderINS_3UrlEED0Ev;	.scl	2;	.type	32;	.endef
	.seh_proc	_ZN3cpr12StringHolderINS_3UrlEED0Ev
_ZN3cpr12StringHolderINS_3UrlEED0Ev:
.LFB9979:
	pushq	%rbp
	.seh_pushreg	%rbp
	movq	%rsp, %rbp
	.seh_setframe	%rbp, 0
	subq	$32, %rsp
	.seh_stackalloc	32
	.seh_endprologue
	movq	%rcx, 16(%rbp)
	movq	16(%rbp), %rax
	movq	%rax, %rcx
	call	_ZN3cpr12StringHolderINS_3UrlEED1Ev
	movq	16(%rbp), %rax
	movl	$40, %edx
	movq	%rax, %rcx
	call	_ZdlPvy
	nop
	addq	$32, %rsp
	popq	%rbp
	ret
	.seh_endproc
	.section	.text$_ZNSt9_Any_data9_M_accessEv,"x"
	.linkonce discard
	.align 2
	.globl	_ZNSt9_Any_data9_M_accessEv
	.def	_ZNSt9_Any_data9_M_accessEv;	.scl	2;	.type	32;	.endef
	.seh_proc	_ZNSt9_Any_data9_M_accessEv
_ZNSt9_Any_data9_M_accessEv:
.LFB10890:
	pushq	%rbp
	.seh_pushreg	%rbp
	movq	%rsp, %rbp
	.seh_setframe	%rbp, 0
	.seh_endprologue
	movq	%rcx, 16(%rbp)
	movq	16(%rbp), %rax
	popq	%rbp
	ret
	.seh_endproc
	.section	.text$_ZNKSt9_Any_data9_M_accessEv,"x"
	.linkonce discard
	.align 2
	.globl	_ZNKSt9_Any_data9_M_accessEv
	.def	_ZNKSt9_Any_data9_M_accessEv;	.scl	2;	.type	32;	.endef
	.seh_proc	_ZNKSt9_Any_data9_M_accessEv
_ZNKSt9_Any_data9_M_accessEv:
.LFB10891:
	pushq	%rbp
	.seh_pushreg	%rbp
	movq	%rsp, %rbp
	.seh_setframe	%rbp, 0
	.seh_endprologue
	movq	%rcx, 16(%rbp)
	movq	16(%rbp), %rax
	popq	%rbp
	ret
	.seh_endproc
	.section	.text$_ZNSt14_Function_baseD2Ev,"x"
	.linkonce discard
	.align 2
	.globl	_ZNSt14_Function_baseD2Ev
	.def	_ZNSt14_Function_baseD2Ev;	.scl	2;	.type	32;	.endef
	.seh_proc	_ZNSt14_Function_baseD2Ev
_ZNSt14_Function_baseD2Ev:
.LFB10906:
	pushq	%rbp
	.seh_pushreg	%rbp
	movq	%rsp, %rbp
	.seh_setframe	%rbp, 0
	subq	$32, %rsp
	.seh_stackalloc	32
	.seh_endprologue
	movq	%rcx, 16(%rbp)
	movq	16(%rbp), %rax
	movq	16(%rax), %rax
	testq	%rax, %rax
	je	.L52
	movq	16(%rbp), %rax
	movq	16(%rax), %r9
	movq	16(%rbp), %rdx
	movq	16(%rbp), %rax
	movl	$3, %r8d
	movq	%rax, %rcx
	call	*%r9
.L52:
	nop
	addq	$32, %rsp
	popq	%rbp
	ret
	.seh_handler	__gxx_personality_seh0, @unwind, @except
	.seh_handlerdata
.LLSDA10906:
	.byte	0xff
	.byte	0xff
	.byte	0x1
	.uleb128 .LLSDACSE10906-.LLSDACSB10906
.LLSDACSB10906:
.LLSDACSE10906:
	.section	.text$_ZNSt14_Function_baseD2Ev,"x"
	.linkonce discard
	.seh_endproc
	.section	.text$_ZNKSt14_Function_base8_M_emptyEv,"x"
	.linkonce discard
	.align 2
	.globl	_ZNKSt14_Function_base8_M_emptyEv
	.def	_ZNKSt14_Function_base8_M_emptyEv;	.scl	2;	.type	32;	.endef
	.seh_proc	_ZNKSt14_Function_base8_M_emptyEv
_ZNKSt14_Function_base8_M_emptyEv:
.LFB10908:
	pushq	%rbp
	.seh_pushreg	%rbp
	movq	%rsp, %rbp
	.seh_setframe	%rbp, 0
	.seh_endprologue
	movq	%rcx, 16(%rbp)
	movq	16(%rbp), %rax
	movq	16(%rax), %rax
	testq	%rax, %rax
	sete	%al
	popq	%rbp
	ret
	.seh_endproc
	.section	.text$_ZSt3minIyERKT_S2_S2_,"x"
	.linkonce discard
	.globl	_ZSt3minIyERKT_S2_S2_
	.def	_ZSt3minIyERKT_S2_S2_;	.scl	2;	.type	32;	.endef
	.seh_proc	_ZSt3minIyERKT_S2_S2_
_ZSt3minIyERKT_S2_S2_:
.LFB10998:
	pushq	%rbp
	.seh_pushreg	%rbp
	movq	%rsp, %rbp
	.seh_setframe	%rbp, 0
	.seh_endprologue
	movq	%rcx, 16(%rbp)
	movq	%rdx, 24(%rbp)
	movq	24(%rbp), %rax
	movq	(%rax), %rdx
	movq	16(%rbp), %rax
	movq	(%rax), %rax
	cmpq	%rax, %rdx
	jnb	.L56
	movq	24(%rbp), %rax
	jmp	.L57
.L56:
	movq	16(%rbp), %rax
.L57:
	popq	%rbp
	ret
	.seh_endproc
	.section	.text$_ZNSt8_Rb_treeINSt7__cxx1112basic_stringIcSt11char_traitsIcESaIcEEESt4pairIKS5_S5_ESt10_Select1stIS8_EN3cpr22CaseInsensitiveCompareESaIS8_EE13_Rb_tree_implISC_Lb1EED1Ev,"x"
	.linkonce discard
	.align 2
	.globl	_ZNSt8_Rb_treeINSt7__cxx1112basic_stringIcSt11char_traitsIcESaIcEEESt4pairIKS5_S5_ESt10_Select1stIS8_EN3cpr22CaseInsensitiveCompareESaIS8_EE13_Rb_tree_implISC_Lb1EED1Ev
	.def	_ZNSt8_Rb_treeINSt7__cxx1112basic_stringIcSt11char_traitsIcESaIcEEESt4pairIKS5_S5_ESt10_Select1stIS8_EN3cpr22CaseInsensitiveCompareESaIS8_EE13_Rb_tree_implISC_Lb1EED1Ev;	.scl	2;	.type	32;	.endef
	.seh_proc	_ZNSt8_Rb_treeINSt7__cxx1112basic_stringIcSt11char_traitsIcESaIcEEESt4pairIKS5_S5_ESt10_Select1stIS8_EN3cpr22CaseInsensitiveCompareESaIS8_EE13_Rb_tree_implISC_Lb1EED1Ev
_ZNSt8_Rb_treeINSt7__cxx1112basic_stringIcSt11char_traitsIcESaIcEEESt4pairIKS5_S5_ESt10_Select1stIS8_EN3cpr22CaseInsensitiveCompareESaIS8_EE13_Rb_tree_implISC_Lb1EED1Ev:
.LFB11741:
	pushq	%rbp
	.seh_pushreg	%rbp
	movq	%rsp, %rbp
	.seh_setframe	%rbp, 0
	subq	$48, %rsp
	.seh_stackalloc	48
	.seh_endprologue
	movq	%rcx, 16(%rbp)
	movq	16(%rbp), %rax
	movq	%rax, -8(%rbp)
	movq	-8(%rbp), %rax
	movq	%rax, %rcx
	call	_ZNSt15__new_allocatorISt13_Rb_tree_nodeISt4pairIKNSt7__cxx1112basic_stringIcSt11char_traitsIcESaIcEEES7_EEED2Ev
	nop
	nop
	addq	$48, %rsp
	popq	%rbp
	ret
	.seh_endproc
	.section	.text$_ZSt16__deque_buf_sizey,"x"
	.linkonce discard
	.globl	_ZSt16__deque_buf_sizey
	.def	_ZSt16__deque_buf_sizey;	.scl	2;	.type	32;	.endef
	.seh_proc	_ZSt16__deque_buf_sizey
_ZSt16__deque_buf_sizey:
.LFB12099:
	pushq	%rbp
	.seh_pushreg	%rbp
	movq	%rsp, %rbp
	.seh_setframe	%rbp, 0
	.seh_endprologue
	movq	%rcx, 16(%rbp)
	cmpq	$511, 16(%rbp)
	ja	.L60
	movl	$512, %eax
	movl	$0, %edx
	divq	16(%rbp)
	jmp	.L62
.L60:
	movl	$1, %eax
.L62:
	popq	%rbp
	ret
	.seh_endproc
	.section	.text$_ZNSt4pairIKN3cpr21AcceptEncodingMethodsENSt7__cxx1112basic_stringIcSt11char_traitsIcESaIcEEEED1Ev,"x"
	.linkonce discard
	.align 2
	.globl	_ZNSt4pairIKN3cpr21AcceptEncodingMethodsENSt7__cxx1112basic_stringIcSt11char_traitsIcESaIcEEEED1Ev
	.def	_ZNSt4pairIKN3cpr21AcceptEncodingMethodsENSt7__cxx1112basic_stringIcSt11char_traitsIcESaIcEEEED1Ev;	.scl	2;	.type	32;	.endef
	.seh_proc	_ZNSt4pairIKN3cpr21AcceptEncodingMethodsENSt7__cxx1112basic_stringIcSt11char_traitsIcESaIcEEEED1Ev
_ZNSt4pairIKN3cpr21AcceptEncodingMethodsENSt7__cxx1112basic_stringIcSt11char_traitsIcESaIcEEEED1Ev:
.LFB12520:
	pushq	%rbp
	.seh_pushreg	%rbp
	movq	%rsp, %rbp
	.seh_setframe	%rbp, 0
	subq	$32, %rsp
	.seh_stackalloc	32
	.seh_endprologue
	movq	%rcx, 16(%rbp)
	movq	16(%rbp), %rax
	addq	$8, %rax
	movq	%rax, %rcx
	call	_ZNSt7__cxx1112basic_stringIcSt11char_traitsIcESaIcEED1Ev
	nop
	addq	$32, %rsp
	popq	%rbp
	ret
	.seh_endproc
	.section	.text$_ZNSt4pairIKN3cpr21AcceptEncodingMethodsENSt7__cxx1112basic_stringIcSt11char_traitsIcESaIcEEEEC1IS1_RA9_KcLb1EEEOT_OT0_,"x"
	.linkonce discard
	.align 2
	.globl	_ZNSt4pairIKN3cpr21AcceptEncodingMethodsENSt7__cxx1112basic_stringIcSt11char_traitsIcESaIcEEEEC1IS1_RA9_KcLb1EEEOT_OT0_
	.def	_ZNSt4pairIKN3cpr21AcceptEncodingMethodsENSt7__cxx1112basic_stringIcSt11char_traitsIcESaIcEEEEC1IS1_RA9_KcLb1EEEOT_OT0_;	.scl	2;	.type	32;	.endef
	.seh_proc	_ZNSt4pairIKN3cpr21AcceptEncodingMethodsENSt7__cxx1112basic_stringIcSt11char_traitsIcESaIcEEEEC1IS1_RA9_KcLb1EEEOT_OT0_
_ZNSt4pairIKN3cpr21AcceptEncodingMethodsENSt7__cxx1112basic_stringIcSt11char_traitsIcESaIcEEEEC1IS1_RA9_KcLb1EEEOT_OT0_:
.LFB12523:
	pushq	%rbp
	.seh_pushreg	%rbp
	pushq	%rbx
	.seh_pushreg	%rbx
	subq	$56, %rsp
	.seh_stackalloc	56
	leaq	48(%rsp), %rbp
	.seh_setframe	%rbp, 48
	.seh_endprologue
	movq	%rcx, 32(%rbp)
	movq	%rdx, 40(%rbp)
	movq	%r8, 48(%rbp)
	movq	40(%rbp), %rax
	movq	%rax, %rcx
	call	_ZSt7forwardIN3cpr21AcceptEncodingMethodsEEOT_RNSt16remove_referenceIS2_E4typeE
	movl	(%rax), %edx
	movq	32(%rbp), %rax
	movl	%edx, (%rax)
	movq	32(%rbp), %rax
	leaq	8(%rax), %rbx
	leaq	-9(%rbp), %rax
	movq	%rax, -8(%rbp)
	nop
	nop
	movq	48(%rbp), %rax
	movq	%rax, %rcx
	call	_ZSt7forwardIRA9_KcEOT_RNSt16remove_referenceIS3_E4typeE
	leaq	-9(%rbp), %rdx
	movq	%rdx, %r8
	movq	%rax, %rdx
	movq	%rbx, %rcx
.LEHB5:
	call	_ZNSt7__cxx1112basic_stringIcSt11char_traitsIcESaIcEEC1IS3_EEPKcRKS3_
.LEHE5:
	leaq	-9(%rbp), %rax
	movq	%rax, %rcx
	call	_ZNSt15__new_allocatorIcED2Ev
	nop
	jmp	.L67
.L66:
	movq	%rax, %rbx
	leaq	-9(%rbp), %rax
	movq	%rax, %rcx
	call	_ZNSt15__new_allocatorIcED2Ev
	nop
	movq	%rbx, %rax
	movq	%rax, %rcx
.LEHB6:
	call	_Unwind_Resume
	nop
.LEHE6:
.L67:
	addq	$56, %rsp
	popq	%rbx
	popq	%rbp
	ret
	.seh_handler	__gxx_personality_seh0, @unwind, @except
	.seh_handlerdata
.LLSDA12523:
	.byte	0xff
	.byte	0xff
	.byte	0x1
	.uleb128 .LLSDACSE12523-.LLSDACSB12523
.LLSDACSB12523:
	.uleb128 .LEHB5-.LFB12523
	.uleb128 .LEHE5-.LEHB5
	.uleb128 .L66-.LFB12523
	.uleb128 0
	.uleb128 .LEHB6-.LFB12523
	.uleb128 .LEHE6-.LEHB6
	.uleb128 0
	.uleb128 0
.LLSDACSE12523:
	.section	.text$_ZNSt4pairIKN3cpr21AcceptEncodingMethodsENSt7__cxx1112basic_stringIcSt11char_traitsIcESaIcEEEEC1IS1_RA9_KcLb1EEEOT_OT0_,"x"
	.linkonce discard
	.seh_endproc
	.section	.text$_ZNSt4pairIKN3cpr21AcceptEncodingMethodsENSt7__cxx1112basic_stringIcSt11char_traitsIcESaIcEEEEC1IS1_RA8_KcLb1EEEOT_OT0_,"x"
	.linkonce discard
	.align 2
	.globl	_ZNSt4pairIKN3cpr21AcceptEncodingMethodsENSt7__cxx1112basic_stringIcSt11char_traitsIcESaIcEEEEC1IS1_RA8_KcLb1EEEOT_OT0_
	.def	_ZNSt4pairIKN3cpr21AcceptEncodingMethodsENSt7__cxx1112basic_stringIcSt11char_traitsIcESaIcEEEEC1IS1_RA8_KcLb1EEEOT_OT0_;	.scl	2;	.type	32;	.endef
	.seh_proc	_ZNSt4pairIKN3cpr21AcceptEncodingMethodsENSt7__cxx1112basic_stringIcSt11char_traitsIcESaIcEEEEC1IS1_RA8_KcLb1EEEOT_OT0_
_ZNSt4pairIKN3cpr21AcceptEncodingMethodsENSt7__cxx1112basic_stringIcSt11char_traitsIcESaIcEEEEC1IS1_RA8_KcLb1EEEOT_OT0_:
.LFB12526:
	pushq	%rbp
	.seh_pushreg	%rbp
	pushq	%rbx
	.seh_pushreg	%rbx
	subq	$56, %rsp
	.seh_stackalloc	56
	leaq	48(%rsp), %rbp
	.seh_setframe	%rbp, 48
	.seh_endprologue
	movq	%rcx, 32(%rbp)
	movq	%rdx, 40(%rbp)
	movq	%r8, 48(%rbp)
	movq	40(%rbp), %rax
	movq	%rax, %rcx
	call	_ZSt7forwardIN3cpr21AcceptEncodingMethodsEEOT_RNSt16remove_referenceIS2_E4typeE
	movl	(%rax), %edx
	movq	32(%rbp), %rax
	movl	%edx, (%rax)
	movq	32(%rbp), %rax
	leaq	8(%rax), %rbx
	leaq	-9(%rbp), %rax
	movq	%rax, -8(%rbp)
	nop
	nop
	movq	48(%rbp), %rax
	movq	%rax, %rcx
	call	_ZSt7forwardIRA8_KcEOT_RNSt16remove_referenceIS3_E4typeE
	leaq	-9(%rbp), %rdx
	movq	%rdx, %r8
	movq	%rax, %rdx
	movq	%rbx, %rcx
.LEHB7:
	call	_ZNSt7__cxx1112basic_stringIcSt11char_traitsIcESaIcEEC1IS3_EEPKcRKS3_
.LEHE7:
	leaq	-9(%rbp), %rax
	movq	%rax, %rcx
	call	_ZNSt15__new_allocatorIcED2Ev
	nop
	jmp	.L71
.L70:
	movq	%rax, %rbx
	leaq	-9(%rbp), %rax
	movq	%rax, %rcx
	call	_ZNSt15__new_allocatorIcED2Ev
	nop
	movq	%rbx, %rax
	movq	%rax, %rcx
.LEHB8:
	call	_Unwind_Resume
	nop
.LEHE8:
.L71:
	addq	$56, %rsp
	popq	%rbx
	popq	%rbp
	ret
	.seh_handler	__gxx_personality_seh0, @unwind, @except
	.seh_handlerdata
.LLSDA12526:
	.byte	0xff
	.byte	0xff
	.byte	0x1
	.uleb128 .LLSDACSE12526-.LLSDACSB12526
.LLSDACSB12526:
	.uleb128 .LEHB7-.LFB12526
	.uleb128 .LEHE7-.LEHB7
	.uleb128 .L70-.LFB12526
	.uleb128 0
	.uleb128 .LEHB8-.LFB12526
	.uleb128 .LEHE8-.LEHB8
	.uleb128 0
	.uleb128 0
.LLSDACSE12526:
	.section	.text$_ZNSt4pairIKN3cpr21AcceptEncodingMethodsENSt7__cxx1112basic_stringIcSt11char_traitsIcESaIcEEEEC1IS1_RA8_KcLb1EEEOT_OT0_,"x"
	.linkonce discard
	.seh_endproc
	.section	.text$_ZNSt4pairIKN3cpr21AcceptEncodingMethodsENSt7__cxx1112basic_stringIcSt11char_traitsIcESaIcEEEEC1IS1_RA5_KcLb1EEEOT_OT0_,"x"
	.linkonce discard
	.align 2
	.globl	_ZNSt4pairIKN3cpr21AcceptEncodingMethodsENSt7__cxx1112basic_stringIcSt11char_traitsIcESaIcEEEEC1IS1_RA5_KcLb1EEEOT_OT0_
	.def	_ZNSt4pairIKN3cpr21AcceptEncodingMethodsENSt7__cxx1112basic_stringIcSt11char_traitsIcESaIcEEEEC1IS1_RA5_KcLb1EEEOT_OT0_;	.scl	2;	.type	32;	.endef
	.seh_proc	_ZNSt4pairIKN3cpr21AcceptEncodingMethodsENSt7__cxx1112basic_stringIcSt11char_traitsIcESaIcEEEEC1IS1_RA5_KcLb1EEEOT_OT0_
_ZNSt4pairIKN3cpr21AcceptEncodingMethodsENSt7__cxx1112basic_stringIcSt11char_traitsIcESaIcEEEEC1IS1_RA5_KcLb1EEEOT_OT0_:
.LFB12529:
	pushq	%rbp
	.seh_pushreg	%rbp
	pushq	%rbx
	.seh_pushreg	%rbx
	subq	$56, %rsp
	.seh_stackalloc	56
	leaq	48(%rsp), %rbp
	.seh_setframe	%rbp, 48
	.seh_endprologue
	movq	%rcx, 32(%rbp)
	movq	%rdx, 40(%rbp)
	movq	%r8, 48(%rbp)
	movq	40(%rbp), %rax
	movq	%rax, %rcx
	call	_ZSt7forwardIN3cpr21AcceptEncodingMethodsEEOT_RNSt16remove_referenceIS2_E4typeE
	movl	(%rax), %edx
	movq	32(%rbp), %rax
	movl	%edx, (%rax)
	movq	32(%rbp), %rax
	leaq	8(%rax), %rbx
	leaq	-9(%rbp), %rax
	movq	%rax, -8(%rbp)
	nop
	nop
	movq	48(%rbp), %rax
	movq	%rax, %rcx
	call	_ZSt7forwardIRA5_KcEOT_RNSt16remove_referenceIS3_E4typeE
	leaq	-9(%rbp), %rdx
	movq	%rdx, %r8
	movq	%rax, %rdx
	movq	%rbx, %rcx
.LEHB9:
	call	_ZNSt7__cxx1112basic_stringIcSt11char_traitsIcESaIcEEC1IS3_EEPKcRKS3_
.LEHE9:
	leaq	-9(%rbp), %rax
	movq	%rax, %rcx
	call	_ZNSt15__new_allocatorIcED2Ev
	nop
	jmp	.L75
.L74:
	movq	%rax, %rbx
	leaq	-9(%rbp), %rax
	movq	%rax, %rcx
	call	_ZNSt15__new_allocatorIcED2Ev
	nop
	movq	%rbx, %rax
	movq	%rax, %rcx
.LEHB10:
	call	_Unwind_Resume
	nop
.LEHE10:
.L75:
	addq	$56, %rsp
	popq	%rbx
	popq	%rbp
	ret
	.seh_handler	__gxx_personality_seh0, @unwind, @except
	.seh_handlerdata
.LLSDA12529:
	.byte	0xff
	.byte	0xff
	.byte	0x1
	.uleb128 .LLSDACSE12529-.LLSDACSB12529
.LLSDACSB12529:
	.uleb128 .LEHB9-.LFB12529
	.uleb128 .LEHE9-.LEHB9
	.uleb128 .L74-.LFB12529
	.uleb128 0
	.uleb128 .LEHB10-.LFB12529
	.uleb128 .LEHE10-.LEHB10
	.uleb128 0
	.uleb128 0
.LLSDACSE12529:
	.section	.text$_ZNSt4pairIKN3cpr21AcceptEncodingMethodsENSt7__cxx1112basic_stringIcSt11char_traitsIcESaIcEEEEC1IS1_RA5_KcLb1EEEOT_OT0_,"x"
	.linkonce discard
	.seh_endproc
.lcomm _ZN3cprL30AcceptEncodingMethodsStringMapE,48,32
	.section	.text$_ZNSt12_Vector_baseISt4pairISt10shared_ptrIN3cpr7SessionEENS2_12MultiPerform10HttpMethodEESaIS7_EE12_Vector_implD1Ev,"x"
	.linkonce discard
	.align 2
	.globl	_ZNSt12_Vector_baseISt4pairISt10shared_ptrIN3cpr7SessionEENS2_12MultiPerform10HttpMethodEESaIS7_EE12_Vector_implD1Ev
	.def	_ZNSt12_Vector_baseISt4pairISt10shared_ptrIN3cpr7SessionEENS2_12MultiPerform10HttpMethodEESaIS7_EE12_Vector_implD1Ev;	.scl	2;	.type	32;	.endef
	.seh_proc	_ZNSt12_Vector_baseISt4pairISt10shared_ptrIN3cpr7SessionEENS2_12MultiPerform10HttpMethodEESaIS7_EE12_Vector_implD1Ev
_ZNSt12_Vector_baseISt4pairISt10shared_ptrIN3cpr7SessionEENS2_12MultiPerform10HttpMethodEESaIS7_EE12_Vector_implD1Ev:
.LFB13152:
	pushq	%rbp
	.seh_pushreg	%rbp
	movq	%rsp, %rbp
	.seh_setframe	%rbp, 0
	subq	$48, %rsp
	.seh_stackalloc	48
	.seh_endprologue
	movq	%rcx, 16(%rbp)
	movq	16(%rbp), %rax
	movq	%rax, -8(%rbp)
	movq	-8(%rbp), %rax
	movq	%rax, %rcx
	call	_ZNSt15__new_allocatorISt4pairISt10shared_ptrIN3cpr7SessionEENS2_12MultiPerform10HttpMethodEEED2Ev
	nop
	nop
	addq	$48, %rsp
	popq	%rbp
	ret
	.seh_endproc
	.section	.text$_ZNSt12_Vector_baseISt4pairISt10shared_ptrIN3cpr7SessionEENS2_12MultiPerform10HttpMethodEESaIS7_EEC2Ev,"x"
	.linkonce discard
	.align 2
	.globl	_ZNSt12_Vector_baseISt4pairISt10shared_ptrIN3cpr7SessionEENS2_12MultiPerform10HttpMethodEESaIS7_EEC2Ev
	.def	_ZNSt12_Vector_baseISt4pairISt10shared_ptrIN3cpr7SessionEENS2_12MultiPerform10HttpMethodEESaIS7_EEC2Ev;	.scl	2;	.type	32;	.endef
	.seh_proc	_ZNSt12_Vector_baseISt4pairISt10shared_ptrIN3cpr7SessionEENS2_12MultiPerform10HttpMethodEESaIS7_EEC2Ev
_ZNSt12_Vector_baseISt4pairISt10shared_ptrIN3cpr7SessionEENS2_12MultiPerform10HttpMethodEESaIS7_EEC2Ev:
.LFB13153:
	pushq	%rbp
	.seh_pushreg	%rbp
	movq	%rsp, %rbp
	.seh_setframe	%rbp, 0
	subq	$32, %rsp
	.seh_stackalloc	32
	.seh_endprologue
	movq	%rcx, 16(%rbp)
	movq	16(%rbp), %rax
	movq	%rax, %rcx
	call	_ZNSt12_Vector_baseISt4pairISt10shared_ptrIN3cpr7SessionEENS2_12MultiPerform10HttpMethodEESaIS7_EE12_Vector_implC1Ev
	nop
	addq	$32, %rsp
	popq	%rbp
	ret
	.seh_endproc
	.section	.text$_ZNSt6vectorISt4pairISt10shared_ptrIN3cpr7SessionEENS2_12MultiPerform10HttpMethodEESaIS7_EEC1Ev,"x"
	.linkonce discard
	.align 2
	.globl	_ZNSt6vectorISt4pairISt10shared_ptrIN3cpr7SessionEENS2_12MultiPerform10HttpMethodEESaIS7_EEC1Ev
	.def	_ZNSt6vectorISt4pairISt10shared_ptrIN3cpr7SessionEENS2_12MultiPerform10HttpMethodEESaIS7_EEC1Ev;	.scl	2;	.type	32;	.endef
	.seh_proc	_ZNSt6vectorISt4pairISt10shared_ptrIN3cpr7SessionEENS2_12MultiPerform10HttpMethodEESaIS7_EEC1Ev
_ZNSt6vectorISt4pairISt10shared_ptrIN3cpr7SessionEENS2_12MultiPerform10HttpMethodEESaIS7_EEC1Ev:
.LFB13156:
	pushq	%rbp
	.seh_pushreg	%rbp
	movq	%rsp, %rbp
	.seh_setframe	%rbp, 0
	subq	$32, %rsp
	.seh_stackalloc	32
	.seh_endprologue
	movq	%rcx, 16(%rbp)
	movq	16(%rbp), %rax
	movq	%rax, %rcx
	call	_ZNSt12_Vector_baseISt4pairISt10shared_ptrIN3cpr7SessionEENS2_12MultiPerform10HttpMethodEESaIS7_EEC2Ev
	nop
	addq	$32, %rsp
	popq	%rbp
	ret
	.seh_endproc
	.section	.text$_ZNSt5queueISt10shared_ptrIN3cpr16InterceptorMultiEESt5dequeIS3_SaIS3_EEED1Ev,"x"
	.linkonce discard
	.align 2
	.globl	_ZNSt5queueISt10shared_ptrIN3cpr16InterceptorMultiEESt5dequeIS3_SaIS3_EEED1Ev
	.def	_ZNSt5queueISt10shared_ptrIN3cpr16InterceptorMultiEESt5dequeIS3_SaIS3_EEED1Ev;	.scl	2;	.type	32;	.endef
	.seh_proc	_ZNSt5queueISt10shared_ptrIN3cpr16InterceptorMultiEESt5dequeIS3_SaIS3_EEED1Ev
_ZNSt5queueISt10shared_ptrIN3cpr16InterceptorMultiEESt5dequeIS3_SaIS3_EEED1Ev:
.LFB13160:
	pushq	%rbp
	.seh_pushreg	%rbp
	movq	%rsp, %rbp
	.seh_setframe	%rbp, 0
	subq	$32, %rsp
	.seh_stackalloc	32
	.seh_endprologue
	movq	%rcx, 16(%rbp)
	movq	16(%rbp), %rax
	movq	%rax, %rcx
	call	_ZNSt5dequeISt10shared_ptrIN3cpr16InterceptorMultiEESaIS3_EED1Ev
	nop
	addq	$32, %rsp
	popq	%rbp
	ret
	.seh_endproc
	.text
	.align 2
	.globl	_ZN3cpr12MultiPerformC2Ev
	.def	_ZN3cpr12MultiPerformC2Ev;	.scl	2;	.type	32;	.endef
	.seh_proc	_ZN3cpr12MultiPerformC2Ev
_ZN3cpr12MultiPerformC2Ev:
.LFB13161:
	pushq	%rbp
	.seh_pushreg	%rbp
	pushq	%rdi
	.seh_pushreg	%rdi
	pushq	%rsi
	.seh_pushreg	%rsi
	pushq	%rbx
	.seh_pushreg	%rbx
	subq	$40, %rsp
	.seh_stackalloc	40
	leaq	32(%rsp), %rbp
	.seh_setframe	%rbp, 32
	.seh_endprologue
	movq	%rcx, 48(%rbp)
	movq	48(%rbp), %rax
	movq	%rax, %rcx
	call	_ZNSt6vectorISt4pairISt10shared_ptrIN3cpr7SessionEENS2_12MultiPerform10HttpMethodEESaIS7_EEC1Ev
	movq	48(%rbp), %rax
	leaq	24(%rax), %rsi
	movl	$8, %ecx
.LEHB11:
	call	_Znwy
.LEHE11:
	movq	%rax, %rbx
	movl	$1, %edi
	movq	%rbx, %rcx
.LEHB12:
	call	_ZN3cpr15CurlMultiHolderC1Ev
.LEHE12:
	movq	%rbx, %rdx
	movq	%rsi, %rcx
	call	_ZNSt10unique_ptrIN3cpr15CurlMultiHolderESt14default_deleteIS1_EEC1IS3_vEEPS1_
	movq	48(%rbp), %rax
	movb	$0, 32(%rax)
	movq	48(%rbp), %rax
	addq	$40, %rax
	movq	%rax, %rcx
.LEHB13:
	call	_ZNSt5queueISt10shared_ptrIN3cpr16InterceptorMultiEESt5dequeIS3_SaIS3_EEEC1IS6_vEEv
.LEHE13:
	jmp	.L88
.L86:
	movq	%rax, %rsi
	testb	%dil, %dil
	je	.L82
	movl	$8, %edx
	movq	%rbx, %rcx
	call	_ZdlPvy
.L82:
	movq	%rsi, %rbx
	jmp	.L83
.L87:
	movq	%rax, %rbx
	movq	48(%rbp), %rax
	addq	$24, %rax
	movq	%rax, %rcx
	call	_ZNSt10unique_ptrIN3cpr15CurlMultiHolderESt14default_deleteIS1_EED1Ev
	jmp	.L83
.L85:
	movq	%rax, %rbx
.L83:
	movq	48(%rbp), %rax
	movq	%rax, %rcx
	call	_ZNSt6vectorISt4pairISt10shared_ptrIN3cpr7SessionEENS2_12MultiPerform10HttpMethodEESaIS7_EED1Ev
	movq	%rbx, %rax
	movq	%rax, %rcx
.LEHB14:
	call	_Unwind_Resume
	nop
.LEHE14:
.L88:
	addq	$40, %rsp
	popq	%rbx
	popq	%rsi
	popq	%rdi
	popq	%rbp
	ret
	.seh_handler	__gxx_personality_seh0, @unwind, @except
	.seh_handlerdata
.LLSDA13161:
	.byte	0xff
	.byte	0xff
	.byte	0x1
	.uleb128 .LLSDACSE13161-.LLSDACSB13161
.LLSDACSB13161:
	.uleb128 .LEHB11-.LFB13161
	.uleb128 .LEHE11-.LEHB11
	.uleb128 .L85-.LFB13161
	.uleb128 0
	.uleb128 .LEHB12-.LFB13161
	.uleb128 .LEHE12-.LEHB12
	.uleb128 .L86-.LFB13161
	.uleb128 0
	.uleb128 .LEHB13-.LFB13161
	.uleb128 .LEHE13-.LEHB13
	.uleb128 .L87-.LFB13161
	.uleb128 0
	.uleb128 .LEHB14-.LFB13161
	.uleb128 .LEHE14-.LEHB14
	.uleb128 0
	.uleb128 0
.LLSDACSE13161:
	.text
	.seh_endproc
	.globl	_ZN3cpr12MultiPerformC1Ev
	.def	_ZN3cpr12MultiPerformC1Ev;	.scl	2;	.type	32;	.endef
	.set	_ZN3cpr12MultiPerformC1Ev,_ZN3cpr12MultiPerformC2Ev
	.section .rdata,"dr"
	.align 8
.LC0:
	.ascii "curl_multi_remove_handle() failed, code \0"
	.text
	.align 2
	.globl	_ZN3cpr12MultiPerformD2Ev
	.def	_ZN3cpr12MultiPerformD2Ev;	.scl	2;	.type	32;	.endef
	.seh_proc	_ZN3cpr12MultiPerformD2Ev
_ZN3cpr12MultiPerformD2Ev:
.LFB13166:
	pushq	%rbp
	.seh_pushreg	%rbp
	pushq	%rbx
	.seh_pushreg	%rbx
	subq	$88, %rsp
	.seh_stackalloc	88
	leaq	80(%rsp), %rbp
	.seh_setframe	%rbp, 80
	.seh_endprologue
	movq	%rcx, 32(%rbp)
	movq	32(%rbp), %rax
	movq	%rax, -8(%rbp)
	movq	-8(%rbp), %rax
	movq	%rax, %rcx
	call	_ZNSt6vectorISt4pairISt10shared_ptrIN3cpr7SessionEENS2_12MultiPerform10HttpMethodEESaIS7_EE5beginEv
	movq	%rax, -32(%rbp)
	movq	-8(%rbp), %rax
	movq	%rax, %rcx
	call	_ZNSt6vectorISt4pairISt10shared_ptrIN3cpr7SessionEENS2_12MultiPerform10HttpMethodEESaIS7_EE3endEv
	movq	%rax, -40(%rbp)
	jmp	.L90
.L93:
	leaq	-32(%rbp), %rax
	movq	%rax, %rcx
	call	_ZNK9__gnu_cxx17__normal_iteratorIPSt4pairISt10shared_ptrIN3cpr7SessionEENS3_12MultiPerform10HttpMethodEESt6vectorIS8_SaIS8_EEEdeEv
	movq	%rax, -16(%rbp)
	movq	-16(%rbp), %rax
	movq	%rax, %rcx
	call	_ZNKSt19__shared_ptr_accessIN3cpr7SessionELN9__gnu_cxx12_Lock_policyE2ELb0ELb0EEptEv
	movb	$0, 704(%rax)
	movq	-16(%rbp), %rax
	movq	%rax, %rcx
	call	_ZNKSt19__shared_ptr_accessIN3cpr7SessionELN9__gnu_cxx12_Lock_policyE2ELb0ELb0EEptEv
	addq	$24, %rax
	movq	%rax, %rcx
	call	_ZNKSt19__shared_ptr_accessIN3cpr10CurlHolderELN9__gnu_cxx12_Lock_policyE2ELb0ELb0EEptEv
	movq	(%rax), %rbx
	movq	32(%rbp), %rax
	addq	$24, %rax
	movq	%rax, %rcx
	call	_ZNKSt10unique_ptrIN3cpr15CurlMultiHolderESt14default_deleteIS1_EEptEv
	movq	(%rax), %rax
	movq	%rbx, %rdx
	movq	%rax, %rcx
	movq	__imp_curl_multi_remove_handle(%rip), %rax
	call	*%rax
	movl	%eax, -20(%rbp)
	cmpl	$0, -20(%rbp)
	je	.L91
	leaq	.LC0(%rip), %rax
	movq	%rax, %rdx
	movq	.refptr._ZSt4cerr(%rip), %rax
	movq	%rax, %rcx
	call	_ZStlsISt11char_traitsIcEERSt13basic_ostreamIcT_ES5_PKc
	movq	%rax, %rcx
	movl	-20(%rbp), %eax
	movl	%eax, %edx
	call	_ZNSolsEi
	movq	%rax, %rcx
	movq	.refptr._ZSt4endlIcSt11char_traitsIcEERSt13basic_ostreamIT_T0_ES6_(%rip), %rax
	movq	%rax, %rdx
	call	_ZNSolsEPFRSoS_E
	movl	$0, %ebx
	jmp	.L92
.L91:
	leaq	-32(%rbp), %rax
	movq	%rax, %rcx
	call	_ZN9__gnu_cxx17__normal_iteratorIPSt4pairISt10shared_ptrIN3cpr7SessionEENS3_12MultiPerform10HttpMethodEESt6vectorIS8_SaIS8_EEEppEv
.L90:
	leaq	-40(%rbp), %rdx
	leaq	-32(%rbp), %rax
	movq	%rax, %rcx
	call	_ZN9__gnu_cxxneIPSt4pairISt10shared_ptrIN3cpr7SessionEENS3_12MultiPerform10HttpMethodEESt6vectorIS8_SaIS8_EEEEbRKNS_17__normal_iteratorIT_T0_EESI_
	testb	%al, %al
	jne	.L93
	movl	$1, %ebx
.L92:
	movq	32(%rbp), %rax
	addq	$40, %rax
	movq	%rax, %rcx
	call	_ZNSt5queueISt10shared_ptrIN3cpr16InterceptorMultiEESt5dequeIS3_SaIS3_EEED1Ev
	cmpl	$1, %ebx
	jne	.L94
	movl	$1, %ebx
	jmp	.L95
.L94:
	movl	$0, %ebx
.L95:
	movq	32(%rbp), %rax
	addq	$24, %rax
	movq	%rax, %rcx
	call	_ZNSt10unique_ptrIN3cpr15CurlMultiHolderESt14default_deleteIS1_EED1Ev
	cmpl	$1, %ebx
	jne	.L96
	movl	$1, %ebx
	jmp	.L97
.L96:
	movl	$0, %ebx
.L97:
	movq	32(%rbp), %rax
	movq	%rax, %rcx
	call	_ZNSt6vectorISt4pairISt10shared_ptrIN3cpr7SessionEENS2_12MultiPerform10HttpMethodEESaIS7_EED1Ev
	cmpl	$1, %ebx
	addq	$88, %rsp
	popq	%rbx
	popq	%rbp
	ret
	.seh_handler	__gxx_personality_seh0, @unwind, @except
	.seh_handlerdata
.LLSDA13166:
	.byte	0xff
	.byte	0xff
	.byte	0x1
	.uleb128 .LLSDACSE13166-.LLSDACSB13166
.LLSDACSB13166:
.LLSDACSE13166:
	.text
	.seh_endproc
	.globl	_ZN3cpr12MultiPerformD1Ev
	.def	_ZN3cpr12MultiPerformD1Ev;	.scl	2;	.type	32;	.endef
	.set	_ZN3cpr12MultiPerformD1Ev,_ZN3cpr12MultiPerformD2Ev
	.section .rdata,"dr"
	.align 8
.LC1:
	.ascii "Failed to add session: Cannot mix download and non-download methods!\0"
	.align 8
.LC2:
	.ascii "curl_multi_add_handle() failed, code \0"
	.text
	.align 2
	.globl	_ZN3cpr12MultiPerform10AddSessionERSt10shared_ptrINS_7SessionEENS0_10HttpMethodE
	.def	_ZN3cpr12MultiPerform10AddSessionERSt10shared_ptrINS_7SessionEENS0_10HttpMethodE;	.scl	2;	.type	32;	.endef
	.seh_proc	_ZN3cpr12MultiPerform10AddSessionERSt10shared_ptrINS_7SessionEENS0_10HttpMethodE
_ZN3cpr12MultiPerform10AddSessionERSt10shared_ptrINS_7SessionEENS0_10HttpMethodE:
.LFB13168:
	pushq	%rbp
	.seh_pushreg	%rbp
	pushq	%rsi
	.seh_pushreg	%rsi
	pushq	%rbx
	.seh_pushreg	%rbx
	subq	$48, %rsp
	.seh_stackalloc	48
	leaq	48(%rsp), %rbp
	.seh_setframe	%rbp, 48
	.seh_endprologue
	movq	%rcx, 32(%rbp)
	movq	%rdx, 40(%rbp)
	movl	%r8d, 48(%rbp)
	movl	48(%rbp), %eax
	cmpl	$8, %eax
	je	.L101
	movq	32(%rbp), %rax
	movzbl	32(%rax), %eax
	testb	%al, %al
	je	.L101
	movl	48(%rbp), %eax
	testl	%eax, %eax
	jne	.L102
.L101:
	movl	48(%rbp), %eax
	cmpl	$8, %eax
	jne	.L103
	movq	32(%rbp), %rax
	movzbl	32(%rax), %eax
	xorl	$1, %eax
	testb	%al, %al
	je	.L103
	movq	32(%rbp), %rax
	movq	%rax, %rcx
	call	_ZNKSt6vectorISt4pairISt10shared_ptrIN3cpr7SessionEENS2_12MultiPerform10HttpMethodEESaIS7_EE5emptyEv
	xorl	$1, %eax
	testb	%al, %al
	je	.L103
.L102:
	movl	$1, %eax
	jmp	.L104
.L103:
	movl	$0, %eax
.L104:
	testb	%al, %al
	je	.L105
	movl	$16, %ecx
	call	__cxa_allocate_exception
	movq	%rax, %rbx
	leaq	.LC1(%rip), %rax
	movq	%rax, %rdx
	movq	%rbx, %rcx
.LEHB15:
	call	_ZNSt16invalid_argumentC1EPKc
.LEHE15:
	movq	.refptr._ZNSt16invalid_argumentD1Ev(%rip), %r8
	leaq	_ZTISt16invalid_argument(%rip), %rax
	movq	%rax, %rdx
	movq	%rbx, %rcx
.LEHB16:
	call	__cxa_throw
.L105:
	movl	48(%rbp), %eax
	cmpl	$8, %eax
	jne	.L106
	movq	32(%rbp), %rax
	movb	$1, 32(%rax)
.L106:
	movq	40(%rbp), %rax
	movq	%rax, %rcx
	call	_ZNKSt19__shared_ptr_accessIN3cpr7SessionELN9__gnu_cxx12_Lock_policyE2ELb0ELb0EEptEv
	addq	$24, %rax
	movq	%rax, %rcx
	call	_ZNKSt19__shared_ptr_accessIN3cpr10CurlHolderELN9__gnu_cxx12_Lock_policyE2ELb0ELb0EEptEv
	movq	(%rax), %rbx
	movq	32(%rbp), %rax
	addq	$24, %rax
	movq	%rax, %rcx
	call	_ZNKSt10unique_ptrIN3cpr15CurlMultiHolderESt14default_deleteIS1_EEptEv
	movq	(%rax), %rax
	movq	%rbx, %rdx
	movq	%rax, %rcx
	movq	__imp_curl_multi_add_handle(%rip), %rax
	call	*%rax
	movl	%eax, -4(%rbp)
	cmpl	$0, -4(%rbp)
	je	.L107
	leaq	.LC2(%rip), %rax
	movq	%rax, %rdx
	movq	.refptr._ZSt4cerr(%rip), %rax
	movq	%rax, %rcx
	call	_ZStlsISt11char_traitsIcEERSt13basic_ostreamIcT_ES5_PKc
	movq	%rax, %rcx
	movl	-4(%rbp), %eax
	movl	%eax, %edx
	call	_ZNSolsEi
	movq	%rax, %rcx
	movq	.refptr._ZSt4endlIcSt11char_traitsIcEERSt13basic_ostreamIT_T0_ES6_(%rip), %rax
	movq	%rax, %rdx
	call	_ZNSolsEPFRSoS_E
	jmp	.L100
.L107:
	movq	40(%rbp), %rax
	movq	%rax, %rcx
	call	_ZNKSt19__shared_ptr_accessIN3cpr7SessionELN9__gnu_cxx12_Lock_policyE2ELb0ELb0EEptEv
	movb	$1, 704(%rax)
	movq	32(%rbp), %rax
	leaq	48(%rbp), %rcx
	movq	40(%rbp), %rdx
	movq	%rcx, %r8
	movq	%rax, %rcx
	call	_ZNSt6vectorISt4pairISt10shared_ptrIN3cpr7SessionEENS2_12MultiPerform10HttpMethodEESaIS7_EE12emplace_backIJRS4_RS6_EEERS7_DpOT_
	jmp	.L100
.L110:
	movq	%rax, %rsi
	movq	%rbx, %rcx
	call	__cxa_free_exception
	movq	%rsi, %rax
	movq	%rax, %rcx
	call	_Unwind_Resume
	nop
.LEHE16:
.L100:
	addq	$48, %rsp
	popq	%rbx
	popq	%rsi
	popq	%rbp
	ret
	.seh_handler	__gxx_personality_seh0, @unwind, @except
	.seh_handlerdata
.LLSDA13168:
	.byte	0xff
	.byte	0xff
	.byte	0x1
	.uleb128 .LLSDACSE13168-.LLSDACSB13168
.LLSDACSB13168:
	.uleb128 .LEHB15-.LFB13168
	.uleb128 .LEHE15-.LEHB15
	.uleb128 .L110-.LFB13168
	.uleb128 0
	.uleb128 .LEHB16-.LFB13168
	.uleb128 .LEHE16-.LEHB16
	.uleb128 0
	.uleb128 0
.LLSDACSE13168:
	.text
	.seh_endproc
	.align 2
	.def	_ZZN3cpr12MultiPerform13RemoveSessionERKSt10shared_ptrINS_7SessionEEENKUlRKSt4pairIS3_NS0_10HttpMethodEEE_clESA_;	.scl	3;	.type	32;	.endef
	.seh_proc	_ZZN3cpr12MultiPerform13RemoveSessionERKSt10shared_ptrINS_7SessionEEENKUlRKSt4pairIS3_NS0_10HttpMethodEEE_clESA_
_ZZN3cpr12MultiPerform13RemoveSessionERKSt10shared_ptrINS_7SessionEEENKUlRKSt4pairIS3_NS0_10HttpMethodEEE_clESA_:
.LFB13170:
	pushq	%rbp
	.seh_pushreg	%rbp
	pushq	%rbx
	.seh_pushreg	%rbx
	subq	$40, %rsp
	.seh_stackalloc	40
	leaq	32(%rsp), %rbp
	.seh_setframe	%rbp, 32
	.seh_endprologue
	movq	%rcx, 32(%rbp)
	movq	%rdx, 40(%rbp)
	movq	32(%rbp), %rax
	movq	(%rax), %rax
	movq	%rax, %rcx
	call	_ZNKSt19__shared_ptr_accessIN3cpr7SessionELN9__gnu_cxx12_Lock_policyE2ELb0ELb0EEptEv
	addq	$24, %rax
	movq	%rax, %rcx
	call	_ZNKSt19__shared_ptr_accessIN3cpr10CurlHolderELN9__gnu_cxx12_Lock_policyE2ELb0ELb0EEptEv
	movq	(%rax), %rbx
	movq	40(%rbp), %rax
	movq	%rax, %rcx
	call	_ZNKSt19__shared_ptr_accessIN3cpr7SessionELN9__gnu_cxx12_Lock_policyE2ELb0ELb0EEptEv
	addq	$24, %rax
	movq	%rax, %rcx
	call	_ZNKSt19__shared_ptr_accessIN3cpr10CurlHolderELN9__gnu_cxx12_Lock_policyE2ELb0ELb0EEptEv
	movq	(%rax), %rax
	cmpq	%rax, %rbx
	sete	%al
	addq	$40, %rsp
	popq	%rbx
	popq	%rbp
	ret
	.seh_endproc
	.section .rdata,"dr"
.LC3:
	.ascii "Failed to find session!\0"
	.text
	.align 2
	.globl	_ZN3cpr12MultiPerform13RemoveSessionERKSt10shared_ptrINS_7SessionEE
	.def	_ZN3cpr12MultiPerform13RemoveSessionERKSt10shared_ptrINS_7SessionEE;	.scl	2;	.type	32;	.endef
	.seh_proc	_ZN3cpr12MultiPerform13RemoveSessionERKSt10shared_ptrINS_7SessionEE
_ZN3cpr12MultiPerform13RemoveSessionERKSt10shared_ptrINS_7SessionEE:
.LFB13169:
	pushq	%rbp
	.seh_pushreg	%rbp
	pushq	%rsi
	.seh_pushreg	%rsi
	pushq	%rbx
	.seh_pushreg	%rbx
	subq	$64, %rsp
	.seh_stackalloc	64
	leaq	64(%rsp), %rbp
	.seh_setframe	%rbp, 64
	.seh_endprologue
	movq	%rcx, 32(%rbp)
	movq	%rdx, 40(%rbp)
	movq	40(%rbp), %rax
	movq	%rax, %rcx
	call	_ZNKSt19__shared_ptr_accessIN3cpr7SessionELN9__gnu_cxx12_Lock_policyE2ELb0ELb0EEptEv
	addq	$24, %rax
	movq	%rax, %rcx
	call	_ZNKSt19__shared_ptr_accessIN3cpr10CurlHolderELN9__gnu_cxx12_Lock_policyE2ELb0ELb0EEptEv
	movq	(%rax), %rbx
	movq	32(%rbp), %rax
	addq	$24, %rax
	movq	%rax, %rcx
	call	_ZNKSt10unique_ptrIN3cpr15CurlMultiHolderESt14default_deleteIS1_EEptEv
	movq	(%rax), %rax
	movq	%rbx, %rdx
	movq	%rax, %rcx
	movq	__imp_curl_multi_remove_handle(%rip), %rax
.LEHB17:
	call	*%rax
	movl	%eax, -4(%rbp)
	cmpl	$0, -4(%rbp)
	je	.L114
	leaq	.LC0(%rip), %rax
	movq	%rax, %rdx
	movq	.refptr._ZSt4cerr(%rip), %rax
	movq	%rax, %rcx
	call	_ZStlsISt11char_traitsIcEERSt13basic_ostreamIcT_ES5_PKc
	movq	%rax, %rcx
	movl	-4(%rbp), %eax
	movl	%eax, %edx
	call	_ZNSolsEi
	movq	%rax, %rcx
	movq	.refptr._ZSt4endlIcSt11char_traitsIcEERSt13basic_ostreamIT_T0_ES6_(%rip), %rax
	movq	%rax, %rdx
	call	_ZNSolsEPFRSoS_E
	jmp	.L120
.L114:
	movq	40(%rbp), %rax
	movq	%rax, %rcx
	call	_ZNKSt19__shared_ptr_accessIN3cpr7SessionELN9__gnu_cxx12_Lock_policyE2ELb0ELb0EEptEv
	movb	$0, 704(%rax)
	movq	40(%rbp), %rsi
	movq	32(%rbp), %rax
	movq	%rax, %rcx
	call	_ZNSt6vectorISt4pairISt10shared_ptrIN3cpr7SessionEENS2_12MultiPerform10HttpMethodEESaIS7_EE3endEv
	movq	%rax, %rbx
	movq	32(%rbp), %rax
	movq	%rax, %rcx
	call	_ZNSt6vectorISt4pairISt10shared_ptrIN3cpr7SessionEENS2_12MultiPerform10HttpMethodEESaIS7_EE5beginEv
	movq	%rsi, %r8
	movq	%rbx, %rdx
	movq	%rax, %rcx
	call	_ZSt7find_ifIN9__gnu_cxx17__normal_iteratorIPSt4pairISt10shared_ptrIN3cpr7SessionEENS4_12MultiPerform10HttpMethodEESt6vectorIS9_SaIS9_EEEEZNS7_13RemoveSessionERKS6_EUlRKS9_E_ET_SK_SK_T0_
.LEHE17:
	movq	%rax, -32(%rbp)
	movq	32(%rbp), %rax
	movq	%rax, %rcx
	call	_ZNSt6vectorISt4pairISt10shared_ptrIN3cpr7SessionEENS2_12MultiPerform10HttpMethodEESaIS7_EE3endEv
	movq	%rax, -24(%rbp)
	leaq	-24(%rbp), %rdx
	leaq	-32(%rbp), %rax
	movq	%rax, %rcx
	call	_ZN9__gnu_cxxeqIPSt4pairISt10shared_ptrIN3cpr7SessionEENS3_12MultiPerform10HttpMethodEESt6vectorIS8_SaIS8_EEEEbRKNS_17__normal_iteratorIT_T0_EESI_
	testb	%al, %al
	je	.L116
	movl	$16, %ecx
	call	__cxa_allocate_exception
	movq	%rax, %rbx
	leaq	.LC3(%rip), %rax
	movq	%rax, %rdx
	movq	%rbx, %rcx
.LEHB18:
	call	_ZNSt16invalid_argumentC1EPKc
.LEHE18:
	movq	.refptr._ZNSt16invalid_argumentD1Ev(%rip), %r8
	leaq	_ZTISt16invalid_argument(%rip), %rax
	movq	%rax, %rdx
	movq	%rbx, %rcx
.LEHB19:
	call	__cxa_throw
.L116:
	movq	32(%rbp), %rbx
	leaq	-32(%rbp), %rdx
	leaq	-16(%rbp), %rax
	movq	%rax, %rcx
	call	_ZN9__gnu_cxx17__normal_iteratorIPKSt4pairISt10shared_ptrIN3cpr7SessionEENS3_12MultiPerform10HttpMethodEESt6vectorIS8_SaIS8_EEEC1IPS8_vEERKNS0_IT_SD_EE
	movq	-16(%rbp), %rax
	movq	%rax, %rdx
	movq	%rbx, %rcx
	call	_ZNSt6vectorISt4pairISt10shared_ptrIN3cpr7SessionEENS2_12MultiPerform10HttpMethodEESaIS7_EE5eraseEN9__gnu_cxx17__normal_iteratorIPKS7_S9_EE
	movq	32(%rbp), %rax
	movq	%rax, %rcx
	call	_ZNKSt6vectorISt4pairISt10shared_ptrIN3cpr7SessionEENS2_12MultiPerform10HttpMethodEESaIS7_EE5emptyEv
	testb	%al, %al
	je	.L120
	movq	32(%rbp), %rax
	movb	$0, 32(%rax)
	jmp	.L113
.L119:
	movq	%rax, %rsi
	movq	%rbx, %rcx
	call	__cxa_free_exception
	movq	%rsi, %rax
	movq	%rax, %rcx
	call	_Unwind_Resume
.LEHE19:
.L120:
	nop
.L113:
	addq	$64, %rsp
	popq	%rbx
	popq	%rsi
	popq	%rbp
	ret
	.seh_handler	__gxx_personality_seh0, @unwind, @except
	.seh_handlerdata
.LLSDA13169:
	.byte	0xff
	.byte	0xff
	.byte	0x1
	.uleb128 .LLSDACSE13169-.LLSDACSB13169
.LLSDACSB13169:
	.uleb128 .LEHB17-.LFB13169
	.uleb128 .LEHE17-.LEHB17
	.uleb128 0
	.uleb128 0
	.uleb128 .LEHB18-.LFB13169
	.uleb128 .LEHE18-.LEHB18
	.uleb128 .L119-.LFB13169
	.uleb128 0
	.uleb128 .LEHB19-.LFB13169
	.uleb128 .LEHE19-.LEHB19
	.uleb128 0
	.uleb128 0
.LLSDACSE13169:
	.text
	.seh_endproc
	.align 2
	.globl	_ZN3cpr12MultiPerform11GetSessionsEv
	.def	_ZN3cpr12MultiPerform11GetSessionsEv;	.scl	2;	.type	32;	.endef
	.seh_proc	_ZN3cpr12MultiPerform11GetSessionsEv
_ZN3cpr12MultiPerform11GetSessionsEv:
.LFB13171:
	pushq	%rbp
	.seh_pushreg	%rbp
	movq	%rsp, %rbp
	.seh_setframe	%rbp, 0
	.seh_endprologue
	movq	%rcx, 16(%rbp)
	movq	16(%rbp), %rax
	popq	%rbp
	ret
	.seh_endproc
	.align 2
	.globl	_ZNK3cpr12MultiPerform11GetSessionsEv
	.def	_ZNK3cpr12MultiPerform11GetSessionsEv;	.scl	2;	.type	32;	.endef
	.seh_proc	_ZNK3cpr12MultiPerform11GetSessionsEv
_ZNK3cpr12MultiPerform11GetSessionsEv:
.LFB13172:
	pushq	%rbp
	.seh_pushreg	%rbp
	movq	%rsp, %rbp
	.seh_setframe	%rbp, 0
	.seh_endprologue
	movq	%rcx, 16(%rbp)
	movq	16(%rbp), %rax
	popq	%rbp
	ret
	.seh_endproc
	.section .rdata,"dr"
	.align 8
.LC4:
	.ascii "curl_multi_perform() failed, code \0"
	.align 8
.LC5:
	.ascii "curl_multi_poll() failed, code \0"
	.text
	.align 2
	.globl	_ZN3cpr12MultiPerform14DoMultiPerformEv
	.def	_ZN3cpr12MultiPerform14DoMultiPerformEv;	.scl	2;	.type	32;	.endef
	.seh_proc	_ZN3cpr12MultiPerform14DoMultiPerformEv
_ZN3cpr12MultiPerform14DoMultiPerformEv:
.LFB13173:
	pushq	%rbp
	.seh_pushreg	%rbp
	movq	%rsp, %rbp
	.seh_setframe	%rbp, 0
	subq	$64, %rsp
	.seh_stackalloc	64
	.seh_endprologue
	movq	%rcx, 16(%rbp)
	movl	$0, -12(%rbp)
.L129:
	movq	16(%rbp), %rax
	addq	$24, %rax
	movq	%rax, %rcx
	call	_ZNKSt10unique_ptrIN3cpr15CurlMultiHolderESt14default_deleteIS1_EEptEv
	movq	(%rax), %rax
	leaq	-12(%rbp), %rdx
	movq	%rax, %rcx
	movq	__imp_curl_multi_perform(%rip), %rax
	call	*%rax
	movl	%eax, -4(%rbp)
	cmpl	$0, -4(%rbp)
	je	.L126
	leaq	.LC4(%rip), %rax
	movq	%rax, %rdx
	movq	.refptr._ZSt4cerr(%rip), %rax
	movq	%rax, %rcx
	call	_ZStlsISt11char_traitsIcEERSt13basic_ostreamIcT_ES5_PKc
	movq	%rax, %rcx
	movl	-4(%rbp), %eax
	movl	%eax, %edx
	call	_ZNSolsEi
	movq	%rax, %rcx
	movq	.refptr._ZSt4endlIcSt11char_traitsIcEERSt13basic_ostreamIT_T0_ES6_(%rip), %rax
	movq	%rax, %rdx
	call	_ZNSolsEPFRSoS_E
	jmp	.L127
.L126:
	movl	-12(%rbp), %eax
	testl	%eax, %eax
	je	.L128
	movl	$250, -8(%rbp)
	movq	16(%rbp), %rax
	addq	$24, %rax
	movq	%rax, %rcx
	call	_ZNKSt10unique_ptrIN3cpr15CurlMultiHolderESt14default_deleteIS1_EEptEv
	movq	(%rax), %rax
	movq	$0, 32(%rsp)
	movl	$250, %r9d
	movl	$0, %r8d
	movl	$0, %edx
	movq	%rax, %rcx
	movq	__imp_curl_multi_poll(%rip), %rax
	call	*%rax
	movl	%eax, -4(%rbp)
	cmpl	$0, -4(%rbp)
	je	.L128
	leaq	.LC5(%rip), %rax
	movq	%rax, %rdx
	movq	.refptr._ZSt4cerr(%rip), %rax
	movq	%rax, %rcx
	call	_ZStlsISt11char_traitsIcEERSt13basic_ostreamIcT_ES5_PKc
	movq	%rax, %rcx
	movl	-4(%rbp), %eax
	movl	%eax, %edx
	call	_ZNSolsEi
	movq	%rax, %rcx
	movq	.refptr._ZSt4endlIcSt11char_traitsIcEERSt13basic_ostreamIT_T0_ES6_(%rip), %rax
	movq	%rax, %rdx
	call	_ZNSolsEPFRSoS_E
	jmp	.L127
.L128:
	movl	-12(%rbp), %eax
	testl	%eax, %eax
	jne	.L129
	nop
.L127:
	nop
	addq	$64, %rsp
	popq	%rbp
	ret
	.seh_endproc
	.section	.text$_ZNSt12_Vector_baseIN3cpr8ResponseESaIS1_EE12_Vector_implD1Ev,"x"
	.linkonce discard
	.align 2
	.globl	_ZNSt12_Vector_baseIN3cpr8ResponseESaIS1_EE12_Vector_implD1Ev
	.def	_ZNSt12_Vector_baseIN3cpr8ResponseESaIS1_EE12_Vector_implD1Ev;	.scl	2;	.type	32;	.endef
	.seh_proc	_ZNSt12_Vector_baseIN3cpr8ResponseESaIS1_EE12_Vector_implD1Ev
_ZNSt12_Vector_baseIN3cpr8ResponseESaIS1_EE12_Vector_implD1Ev:
.LFB13180:
	pushq	%rbp
	.seh_pushreg	%rbp
	movq	%rsp, %rbp
	.seh_setframe	%rbp, 0
	subq	$48, %rsp
	.seh_stackalloc	48
	.seh_endprologue
	movq	%rcx, 16(%rbp)
	movq	16(%rbp), %rax
	movq	%rax, -8(%rbp)
	movq	-8(%rbp), %rax
	movq	%rax, %rcx
	call	_ZNSt15__new_allocatorIN3cpr8ResponseEED2Ev
	nop
	nop
	addq	$48, %rsp
	popq	%rbp
	ret
	.seh_endproc
	.section	.text$_ZNSt12_Vector_baseIN3cpr8ResponseESaIS1_EEC2Ev,"x"
	.linkonce discard
	.align 2
	.globl	_ZNSt12_Vector_baseIN3cpr8ResponseESaIS1_EEC2Ev
	.def	_ZNSt12_Vector_baseIN3cpr8ResponseESaIS1_EEC2Ev;	.scl	2;	.type	32;	.endef
	.seh_proc	_ZNSt12_Vector_baseIN3cpr8ResponseESaIS1_EEC2Ev
_ZNSt12_Vector_baseIN3cpr8ResponseESaIS1_EEC2Ev:
.LFB13181:
	pushq	%rbp
	.seh_pushreg	%rbp
	movq	%rsp, %rbp
	.seh_setframe	%rbp, 0
	subq	$32, %rsp
	.seh_stackalloc	32
	.seh_endprologue
	movq	%rcx, 16(%rbp)
	movq	16(%rbp), %rax
	movq	%rax, %rcx
	call	_ZNSt12_Vector_baseIN3cpr8ResponseESaIS1_EE12_Vector_implC1Ev
	nop
	addq	$32, %rsp
	popq	%rbp
	ret
	.seh_endproc
	.section	.text$_ZNSt6vectorIN3cpr8ResponseESaIS1_EEC1Ev,"x"
	.linkonce discard
	.align 2
	.globl	_ZNSt6vectorIN3cpr8ResponseESaIS1_EEC1Ev
	.def	_ZNSt6vectorIN3cpr8ResponseESaIS1_EEC1Ev;	.scl	2;	.type	32;	.endef
	.seh_proc	_ZNSt6vectorIN3cpr8ResponseESaIS1_EEC1Ev
_ZNSt6vectorIN3cpr8ResponseESaIS1_EEC1Ev:
.LFB13184:
	pushq	%rbp
	.seh_pushreg	%rbp
	movq	%rsp, %rbp
	.seh_setframe	%rbp, 0
	subq	$32, %rsp
	.seh_stackalloc	32
	.seh_endprologue
	movq	%rcx, 16(%rbp)
	movq	16(%rbp), %rax
	movq	%rax, %rcx
	call	_ZNSt12_Vector_baseIN3cpr8ResponseESaIS1_EEC2Ev
	nop
	addq	$32, %rsp
	popq	%rbp
	ret
	.seh_endproc
	.text
	.align 2
	.def	_ZZN3cpr12MultiPerform13ReadMultiInfoEOSt8functionIFNS_8ResponseERNS_7SessionE8CURLcodeEEENKUlRKSt4pairISt10shared_ptrIS3_ENS0_10HttpMethodEEE_clESF_;	.scl	3;	.type	32;	.endef
	.seh_proc	_ZZN3cpr12MultiPerform13ReadMultiInfoEOSt8functionIFNS_8ResponseERNS_7SessionE8CURLcodeEEENKUlRKSt4pairISt10shared_ptrIS3_ENS0_10HttpMethodEEE_clESF_
_ZZN3cpr12MultiPerform13ReadMultiInfoEOSt8functionIFNS_8ResponseERNS_7SessionE8CURLcodeEEENKUlRKSt4pairISt10shared_ptrIS3_ENS0_10HttpMethodEEE_clESF_:
.LFB13185:
	pushq	%rbp
	.seh_pushreg	%rbp
	movq	%rsp, %rbp
	.seh_setframe	%rbp, 0
	subq	$32, %rsp
	.seh_stackalloc	32
	.seh_endprologue
	movq	%rcx, 16(%rbp)
	movq	%rdx, 24(%rbp)
	movq	24(%rbp), %rax
	movq	%rax, %rcx
	call	_ZNKSt19__shared_ptr_accessIN3cpr7SessionELN9__gnu_cxx12_Lock_policyE2ELb0ELb0EEptEv
	addq	$24, %rax
	movq	%rax, %rcx
	call	_ZNKSt19__shared_ptr_accessIN3cpr10CurlHolderELN9__gnu_cxx12_Lock_policyE2ELb0ELb0EEptEv
	movq	(%rax), %rdx
	movq	16(%rbp), %rax
	movq	(%rax), %rax
	movq	(%rax), %rax
	movq	8(%rax), %rax
	cmpq	%rax, %rdx
	sete	%al
	addq	$32, %rsp
	popq	%rbp
	ret
	.seh_endproc
	.section	.text$_ZNSt12__shared_ptrIN3cpr7SessionELN9__gnu_cxx12_Lock_policyE2EEC2ERKS4_,"x"
	.linkonce discard
	.align 2
	.globl	_ZNSt12__shared_ptrIN3cpr7SessionELN9__gnu_cxx12_Lock_policyE2EEC2ERKS4_
	.def	_ZNSt12__shared_ptrIN3cpr7SessionELN9__gnu_cxx12_Lock_policyE2EEC2ERKS4_;	.scl	2;	.type	32;	.endef
	.seh_proc	_ZNSt12__shared_ptrIN3cpr7SessionELN9__gnu_cxx12_Lock_policyE2EEC2ERKS4_
_ZNSt12__shared_ptrIN3cpr7SessionELN9__gnu_cxx12_Lock_policyE2EEC2ERKS4_:
.LFB13189:
	pushq	%rbp
	.seh_pushreg	%rbp
	movq	%rsp, %rbp
	.seh_setframe	%rbp, 0
	subq	$32, %rsp
	.seh_stackalloc	32
	.seh_endprologue
	movq	%rcx, 16(%rbp)
	movq	%rdx, 24(%rbp)
	movq	24(%rbp), %rax
	movq	(%rax), %rdx
	movq	16(%rbp), %rax
	movq	%rdx, (%rax)
	movq	16(%rbp), %rax
	addq	$8, %rax
	movq	24(%rbp), %rdx
	addq	$8, %rdx
	movq	%rax, %rcx
	call	_ZNSt14__shared_countILN9__gnu_cxx12_Lock_policyE2EEC1ERKS2_
	nop
	addq	$32, %rsp
	popq	%rbp
	ret
	.seh_endproc
	.section	.text$_ZNSt12__shared_ptrIN3cpr7SessionELN9__gnu_cxx12_Lock_policyE2EED2Ev,"x"
	.linkonce discard
	.align 2
	.globl	_ZNSt12__shared_ptrIN3cpr7SessionELN9__gnu_cxx12_Lock_policyE2EED2Ev
	.def	_ZNSt12__shared_ptrIN3cpr7SessionELN9__gnu_cxx12_Lock_policyE2EED2Ev;	.scl	2;	.type	32;	.endef
	.seh_proc	_ZNSt12__shared_ptrIN3cpr7SessionELN9__gnu_cxx12_Lock_policyE2EED2Ev
_ZNSt12__shared_ptrIN3cpr7SessionELN9__gnu_cxx12_Lock_policyE2EED2Ev:
.LFB13192:
	pushq	%rbp
	.seh_pushreg	%rbp
	movq	%rsp, %rbp
	.seh_setframe	%rbp, 0
	subq	$32, %rsp
	.seh_stackalloc	32
	.seh_endprologue
	movq	%rcx, 16(%rbp)
	movq	16(%rbp), %rax
	addq	$8, %rax
	movq	%rax, %rcx
	call	_ZNSt14__shared_countILN9__gnu_cxx12_Lock_policyE2EED1Ev
	nop
	addq	$32, %rsp
	popq	%rbp
	ret
	.seh_endproc
	.section	.text$_ZNSt12__shared_ptrIN3cpr7SessionELN9__gnu_cxx12_Lock_policyE2EED1Ev,"x"
	.linkonce discard
	.align 2
	.globl	_ZNSt12__shared_ptrIN3cpr7SessionELN9__gnu_cxx12_Lock_policyE2EED1Ev
	.def	_ZNSt12__shared_ptrIN3cpr7SessionELN9__gnu_cxx12_Lock_policyE2EED1Ev;	.scl	2;	.type	32;	.endef
	.seh_proc	_ZNSt12__shared_ptrIN3cpr7SessionELN9__gnu_cxx12_Lock_policyE2EED1Ev
_ZNSt12__shared_ptrIN3cpr7SessionELN9__gnu_cxx12_Lock_policyE2EED1Ev:
.LFB13193:
	pushq	%rbp
	.seh_pushreg	%rbp
	movq	%rsp, %rbp
	.seh_setframe	%rbp, 0
	subq	$32, %rsp
	.seh_stackalloc	32
	.seh_endprologue
	movq	%rcx, 16(%rbp)
	movq	16(%rbp), %rax
	addq	$8, %rax
	movq	%rax, %rcx
	call	_ZNSt14__shared_countILN9__gnu_cxx12_Lock_policyE2EED1Ev
	nop
	addq	$32, %rsp
	popq	%rbp
	ret
	.seh_endproc
	.section	.text$_ZNSt10shared_ptrIN3cpr7SessionEEC1ERKS2_,"x"
	.linkonce discard
	.align 2
	.globl	_ZNSt10shared_ptrIN3cpr7SessionEEC1ERKS2_
	.def	_ZNSt10shared_ptrIN3cpr7SessionEEC1ERKS2_;	.scl	2;	.type	32;	.endef
	.seh_proc	_ZNSt10shared_ptrIN3cpr7SessionEEC1ERKS2_
_ZNSt10shared_ptrIN3cpr7SessionEEC1ERKS2_:
.LFB13195:
	pushq	%rbp
	.seh_pushreg	%rbp
	movq	%rsp, %rbp
	.seh_setframe	%rbp, 0
	subq	$32, %rsp
	.seh_stackalloc	32
	.seh_endprologue
	movq	%rcx, 16(%rbp)
	movq	%rdx, 24(%rbp)
	movq	16(%rbp), %rax
	movq	24(%rbp), %rdx
	movq	%rax, %rcx
	call	_ZNSt12__shared_ptrIN3cpr7SessionELN9__gnu_cxx12_Lock_policyE2EEC2ERKS4_
	nop
	addq	$32, %rsp
	popq	%rbp
	ret
	.seh_endproc
	.section	.text$_ZNSt10shared_ptrIN3cpr7SessionEED1Ev,"x"
	.linkonce discard
	.align 2
	.globl	_ZNSt10shared_ptrIN3cpr7SessionEED1Ev
	.def	_ZNSt10shared_ptrIN3cpr7SessionEED1Ev;	.scl	2;	.type	32;	.endef
	.seh_proc	_ZNSt10shared_ptrIN3cpr7SessionEED1Ev
_ZNSt10shared_ptrIN3cpr7SessionEED1Ev:
.LFB13198:
	pushq	%rbp
	.seh_pushreg	%rbp
	movq	%rsp, %rbp
	.seh_setframe	%rbp, 0
	subq	$32, %rsp
	.seh_stackalloc	32
	.seh_endprologue
	movq	%rcx, 16(%rbp)
	movq	16(%rbp), %rax
	movq	%rax, %rcx
	call	_ZNSt12__shared_ptrIN3cpr7SessionELN9__gnu_cxx12_Lock_policyE2EED2Ev
	nop
	addq	$32, %rsp
	popq	%rbp
	ret
	.seh_endproc
	.section	.text$_ZNSt12__shared_ptrIN3cpr10CurlHolderELN9__gnu_cxx12_Lock_policyE2EED2Ev,"x"
	.linkonce discard
	.align 2
	.globl	_ZNSt12__shared_ptrIN3cpr10CurlHolderELN9__gnu_cxx12_Lock_policyE2EED2Ev
	.def	_ZNSt12__shared_ptrIN3cpr10CurlHolderELN9__gnu_cxx12_Lock_policyE2EED2Ev;	.scl	2;	.type	32;	.endef
	.seh_proc	_ZNSt12__shared_ptrIN3cpr10CurlHolderELN9__gnu_cxx12_Lock_policyE2EED2Ev
_ZNSt12__shared_ptrIN3cpr10CurlHolderELN9__gnu_cxx12_Lock_policyE2EED2Ev:
.LFB13202:
	pushq	%rbp
	.seh_pushreg	%rbp
	movq	%rsp, %rbp
	.seh_setframe	%rbp, 0
	subq	$32, %rsp
	.seh_stackalloc	32
	.seh_endprologue
	movq	%rcx, 16(%rbp)
	movq	16(%rbp), %rax
	addq	$8, %rax
	movq	%rax, %rcx
	call	_ZNSt14__shared_countILN9__gnu_cxx12_Lock_policyE2EED1Ev
	nop
	addq	$32, %rsp
	popq	%rbp
	ret
	.seh_endproc
	.section	.text$_ZNSt12__shared_ptrIN3cpr10CurlHolderELN9__gnu_cxx12_Lock_policyE2EED1Ev,"x"
	.linkonce discard
	.align 2
	.globl	_ZNSt12__shared_ptrIN3cpr10CurlHolderELN9__gnu_cxx12_Lock_policyE2EED1Ev
	.def	_ZNSt12__shared_ptrIN3cpr10CurlHolderELN9__gnu_cxx12_Lock_policyE2EED1Ev;	.scl	2;	.type	32;	.endef
	.seh_proc	_ZNSt12__shared_ptrIN3cpr10CurlHolderELN9__gnu_cxx12_Lock_policyE2EED1Ev
_ZNSt12__shared_ptrIN3cpr10CurlHolderELN9__gnu_cxx12_Lock_policyE2EED1Ev:
.LFB13203:
	pushq	%rbp
	.seh_pushreg	%rbp
	movq	%rsp, %rbp
	.seh_setframe	%rbp, 0
	subq	$32, %rsp
	.seh_stackalloc	32
	.seh_endprologue
	movq	%rcx, 16(%rbp)
	movq	16(%rbp), %rax
	addq	$8, %rax
	movq	%rax, %rcx
	call	_ZNSt14__shared_countILN9__gnu_cxx12_Lock_policyE2EED1Ev
	nop
	addq	$32, %rsp
	popq	%rbp
	ret
	.seh_endproc
	.section	.text$_ZNSt10shared_ptrIN3cpr10CurlHolderEED1Ev,"x"
	.linkonce discard
	.align 2
	.globl	_ZNSt10shared_ptrIN3cpr10CurlHolderEED1Ev
	.def	_ZNSt10shared_ptrIN3cpr10CurlHolderEED1Ev;	.scl	2;	.type	32;	.endef
	.seh_proc	_ZNSt10shared_ptrIN3cpr10CurlHolderEED1Ev
_ZNSt10shared_ptrIN3cpr10CurlHolderEED1Ev:
.LFB13205:
	pushq	%rbp
	.seh_pushreg	%rbp
	movq	%rsp, %rbp
	.seh_setframe	%rbp, 0
	subq	$32, %rsp
	.seh_stackalloc	32
	.seh_endprologue
	movq	%rcx, 16(%rbp)
	movq	16(%rbp), %rax
	movq	%rax, %rcx
	call	_ZNSt12__shared_ptrIN3cpr10CurlHolderELN9__gnu_cxx12_Lock_policyE2EED2Ev
	nop
	addq	$32, %rsp
	popq	%rbp
	ret
	.seh_endproc
	.section	.text$_ZNSt3mapINSt7__cxx1112basic_stringIcSt11char_traitsIcESaIcEEES5_N3cpr22CaseInsensitiveCompareESaISt4pairIKS5_S5_EEED1Ev,"x"
	.linkonce discard
	.align 2
	.globl	_ZNSt3mapINSt7__cxx1112basic_stringIcSt11char_traitsIcESaIcEEES5_N3cpr22CaseInsensitiveCompareESaISt4pairIKS5_S5_EEED1Ev
	.def	_ZNSt3mapINSt7__cxx1112basic_stringIcSt11char_traitsIcESaIcEEES5_N3cpr22CaseInsensitiveCompareESaISt4pairIKS5_S5_EEED1Ev;	.scl	2;	.type	32;	.endef
	.seh_proc	_ZNSt3mapINSt7__cxx1112basic_stringIcSt11char_traitsIcESaIcEEES5_N3cpr22CaseInsensitiveCompareESaISt4pairIKS5_S5_EEED1Ev
_ZNSt3mapINSt7__cxx1112basic_stringIcSt11char_traitsIcESaIcEEES5_N3cpr22CaseInsensitiveCompareESaISt4pairIKS5_S5_EEED1Ev:
.LFB13208:
	pushq	%rbp
	.seh_pushreg	%rbp
	movq	%rsp, %rbp
	.seh_setframe	%rbp, 0
	subq	$32, %rsp
	.seh_stackalloc	32
	.seh_endprologue
	movq	%rcx, 16(%rbp)
	movq	16(%rbp), %rax
	movq	%rax, %rcx
	call	_ZNSt8_Rb_treeINSt7__cxx1112basic_stringIcSt11char_traitsIcESaIcEEESt4pairIKS5_S5_ESt10_Select1stIS8_EN3cpr22CaseInsensitiveCompareESaIS8_EED1Ev
	nop
	addq	$32, %rsp
	popq	%rbp
	ret
	.seh_endproc
	.section	.text$_ZN3cpr3UrlD1Ev,"x"
	.linkonce discard
	.align 2
	.globl	_ZN3cpr3UrlD1Ev
	.def	_ZN3cpr3UrlD1Ev;	.scl	2;	.type	32;	.endef
	.seh_proc	_ZN3cpr3UrlD1Ev
_ZN3cpr3UrlD1Ev:
.LFB13211:
	pushq	%rbp
	.seh_pushreg	%rbp
	movq	%rsp, %rbp
	.seh_setframe	%rbp, 0
	subq	$32, %rsp
	.seh_stackalloc	32
	.seh_endprologue
	movq	%rcx, 16(%rbp)
	leaq	16+_ZTVN3cpr3UrlE(%rip), %rdx
	movq	16(%rbp), %rax
	movq	%rdx, (%rax)
	movq	16(%rbp), %rax
	movq	%rax, %rcx
	call	_ZN3cpr12StringHolderINS_3UrlEED2Ev
	nop
	addq	$32, %rsp
	popq	%rbp
	ret
	.seh_endproc
	.section	.text$_ZN3cpr3UrlD0Ev,"x"
	.linkonce discard
	.align 2
	.globl	_ZN3cpr3UrlD0Ev
	.def	_ZN3cpr3UrlD0Ev;	.scl	2;	.type	32;	.endef
	.seh_proc	_ZN3cpr3UrlD0Ev
_ZN3cpr3UrlD0Ev:
.LFB13212:
	pushq	%rbp
	.seh_pushreg	%rbp
	movq	%rsp, %rbp
	.seh_setframe	%rbp, 0
	subq	$32, %rsp
	.seh_stackalloc	32
	.seh_endprologue
	movq	%rcx, 16(%rbp)
	movq	16(%rbp), %rax
	movq	%rax, %rcx
	call	_ZN3cpr3UrlD1Ev
	movq	16(%rbp), %rax
	movl	$40, %edx
	movq	%rax, %rcx
	call	_ZdlPvy
	nop
	addq	$32, %rsp
	popq	%rbp
	ret
	.seh_endproc
	.section	.text$_ZN3cpr7CookiesD1Ev,"x"
	.linkonce discard
	.align 2
	.globl	_ZN3cpr7CookiesD1Ev
	.def	_ZN3cpr7CookiesD1Ev;	.scl	2;	.type	32;	.endef
	.seh_proc	_ZN3cpr7CookiesD1Ev
_ZN3cpr7CookiesD1Ev:
.LFB13215:
	pushq	%rbp
	.seh_pushreg	%rbp
	movq	%rsp, %rbp
	.seh_setframe	%rbp, 0
	subq	$32, %rsp
	.seh_stackalloc	32
	.seh_endprologue
	movq	%rcx, 16(%rbp)
	movq	16(%rbp), %rax
	addq	$8, %rax
	movq	%rax, %rcx
	call	_ZNSt6vectorIN3cpr6CookieESaIS1_EED1Ev
	nop
	addq	$32, %rsp
	popq	%rbp
	ret
	.seh_endproc
	.section	.text$_ZN3cpr5ErrorD1Ev,"x"
	.linkonce discard
	.align 2
	.globl	_ZN3cpr5ErrorD1Ev
	.def	_ZN3cpr5ErrorD1Ev;	.scl	2;	.type	32;	.endef
	.seh_proc	_ZN3cpr5ErrorD1Ev
_ZN3cpr5ErrorD1Ev:
.LFB13218:
	pushq	%rbp
	.seh_pushreg	%rbp
	movq	%rsp, %rbp
	.seh_setframe	%rbp, 0
	subq	$32, %rsp
	.seh_stackalloc	32
	.seh_endprologue
	movq	%rcx, 16(%rbp)
	movq	16(%rbp), %rax
	addq	$8, %rax
	movq	%rax, %rcx
	call	_ZNSt7__cxx1112basic_stringIcSt11char_traitsIcESaIcEED1Ev
	nop
	addq	$32, %rsp
	popq	%rbp
	ret
	.seh_endproc
	.section	.text$_ZN3cpr8ResponseD1Ev,"x"
	.linkonce discard
	.align 2
	.globl	_ZN3cpr8ResponseD1Ev
	.def	_ZN3cpr8ResponseD1Ev;	.scl	2;	.type	32;	.endef
	.seh_proc	_ZN3cpr8ResponseD1Ev
_ZN3cpr8ResponseD1Ev:
.LFB13220:
	pushq	%rbp
	.seh_pushreg	%rbp
	movq	%rsp, %rbp
	.seh_setframe	%rbp, 0
	subq	$32, %rsp
	.seh_stackalloc	32
	.seh_endprologue
	movq	%rcx, 16(%rbp)
	movq	16(%rbp), %rax
	addq	$288, %rax
	movq	%rax, %rcx
	call	_ZNSt7__cxx1112basic_stringIcSt11char_traitsIcESaIcEED1Ev
	movq	16(%rbp), %rax
	addq	$256, %rax
	movq	%rax, %rcx
	call	_ZNSt7__cxx1112basic_stringIcSt11char_traitsIcESaIcEED1Ev
	movq	16(%rbp), %rax
	addq	$224, %rax
	movq	%rax, %rcx
	call	_ZNSt7__cxx1112basic_stringIcSt11char_traitsIcESaIcEED1Ev
	movq	16(%rbp), %rax
	addq	$184, %rax
	movq	%rax, %rcx
	call	_ZN3cpr5ErrorD1Ev
	movq	16(%rbp), %rax
	addq	$152, %rax
	movq	%rax, %rcx
	call	_ZN3cpr7CookiesD1Ev
	movq	16(%rbp), %rax
	addq	$104, %rax
	movq	%rax, %rcx
	call	_ZN3cpr3UrlD1Ev
	movq	16(%rbp), %rax
	addq	$56, %rax
	movq	%rax, %rcx
	call	_ZNSt3mapINSt7__cxx1112basic_stringIcSt11char_traitsIcESaIcEEES5_N3cpr22CaseInsensitiveCompareESaISt4pairIKS5_S5_EEED1Ev
	movq	16(%rbp), %rax
	addq	$24, %rax
	movq	%rax, %rcx
	call	_ZNSt7__cxx1112basic_stringIcSt11char_traitsIcESaIcEED1Ev
	movq	16(%rbp), %rax
	movq	%rax, %rcx
	call	_ZNSt10shared_ptrIN3cpr10CurlHolderEED1Ev
	nop
	addq	$32, %rsp
	popq	%rbp
	ret
	.seh_endproc
	.text
	.align 2
	.def	_ZZN3cpr12MultiPerform13ReadMultiInfoEOSt8functionIFNS_8ResponseERNS_7SessionE8CURLcodeEEENKUlRKS2_E_clESA_;	.scl	3;	.type	32;	.endef
	.seh_proc	_ZZN3cpr12MultiPerform13ReadMultiInfoEOSt8functionIFNS_8ResponseERNS_7SessionE8CURLcodeEEENKUlRKS2_E_clESA_
_ZZN3cpr12MultiPerform13ReadMultiInfoEOSt8functionIFNS_8ResponseERNS_7SessionE8CURLcodeEEENKUlRKS2_E_clESA_:
.LFB13221:
	pushq	%rbp
	.seh_pushreg	%rbp
	pushq	%rbx
	.seh_pushreg	%rbx
	subq	$40, %rsp
	.seh_stackalloc	40
	leaq	32(%rsp), %rbp
	.seh_setframe	%rbp, 32
	.seh_endprologue
	movq	%rcx, 32(%rbp)
	movq	%rdx, 40(%rbp)
	movq	32(%rbp), %rax
	movq	(%rax), %rax
	addq	$24, %rax
	movq	%rax, %rcx
	call	_ZNKSt19__shared_ptr_accessIN3cpr10CurlHolderELN9__gnu_cxx12_Lock_policyE2ELb0ELb0EEptEv
	movq	(%rax), %rbx
	movq	40(%rbp), %rax
	movq	%rax, %rcx
	call	_ZNKSt19__shared_ptr_accessIN3cpr10CurlHolderELN9__gnu_cxx12_Lock_policyE2ELb0ELb0EEptEv
	movq	(%rax), %rax
	cmpq	%rax, %rbx
	sete	%al
	addq	$40, %rsp
	popq	%rbx
	popq	%rbp
	ret
	.seh_endproc
	.section	.text$_ZNSt12__shared_ptrIN3cpr10CurlHolderELN9__gnu_cxx12_Lock_policyE2EEC2ERKS4_,"x"
	.linkonce discard
	.align 2
	.globl	_ZNSt12__shared_ptrIN3cpr10CurlHolderELN9__gnu_cxx12_Lock_policyE2EEC2ERKS4_
	.def	_ZNSt12__shared_ptrIN3cpr10CurlHolderELN9__gnu_cxx12_Lock_policyE2EEC2ERKS4_;	.scl	2;	.type	32;	.endef
	.seh_proc	_ZNSt12__shared_ptrIN3cpr10CurlHolderELN9__gnu_cxx12_Lock_policyE2EEC2ERKS4_
_ZNSt12__shared_ptrIN3cpr10CurlHolderELN9__gnu_cxx12_Lock_policyE2EEC2ERKS4_:
.LFB13225:
	pushq	%rbp
	.seh_pushreg	%rbp
	movq	%rsp, %rbp
	.seh_setframe	%rbp, 0
	subq	$32, %rsp
	.seh_stackalloc	32
	.seh_endprologue
	movq	%rcx, 16(%rbp)
	movq	%rdx, 24(%rbp)
	movq	24(%rbp), %rax
	movq	(%rax), %rdx
	movq	16(%rbp), %rax
	movq	%rdx, (%rax)
	movq	16(%rbp), %rax
	addq	$8, %rax
	movq	24(%rbp), %rdx
	addq	$8, %rdx
	movq	%rax, %rcx
	call	_ZNSt14__shared_countILN9__gnu_cxx12_Lock_policyE2EEC1ERKS2_
	nop
	addq	$32, %rsp
	popq	%rbp
	ret
	.seh_endproc
	.section	.text$_ZNSt10shared_ptrIN3cpr10CurlHolderEEC1ERKS2_,"x"
	.linkonce discard
	.align 2
	.globl	_ZNSt10shared_ptrIN3cpr10CurlHolderEEC1ERKS2_
	.def	_ZNSt10shared_ptrIN3cpr10CurlHolderEEC1ERKS2_;	.scl	2;	.type	32;	.endef
	.seh_proc	_ZNSt10shared_ptrIN3cpr10CurlHolderEEC1ERKS2_
_ZNSt10shared_ptrIN3cpr10CurlHolderEEC1ERKS2_:
.LFB13228:
	pushq	%rbp
	.seh_pushreg	%rbp
	movq	%rsp, %rbp
	.seh_setframe	%rbp, 0
	subq	$32, %rsp
	.seh_stackalloc	32
	.seh_endprologue
	movq	%rcx, 16(%rbp)
	movq	%rdx, 24(%rbp)
	movq	16(%rbp), %rax
	movq	24(%rbp), %rdx
	movq	%rax, %rcx
	call	_ZNSt12__shared_ptrIN3cpr10CurlHolderELN9__gnu_cxx12_Lock_policyE2EEC2ERKS4_
	nop
	addq	$32, %rsp
	popq	%rbp
	ret
	.seh_endproc
	.section	.text$_ZNSt3mapINSt7__cxx1112basic_stringIcSt11char_traitsIcESaIcEEES5_N3cpr22CaseInsensitiveCompareESaISt4pairIKS5_S5_EEEC1ERKSC_,"x"
	.linkonce discard
	.align 2
	.globl	_ZNSt3mapINSt7__cxx1112basic_stringIcSt11char_traitsIcESaIcEEES5_N3cpr22CaseInsensitiveCompareESaISt4pairIKS5_S5_EEEC1ERKSC_
	.def	_ZNSt3mapINSt7__cxx1112basic_stringIcSt11char_traitsIcESaIcEEES5_N3cpr22CaseInsensitiveCompareESaISt4pairIKS5_S5_EEEC1ERKSC_;	.scl	2;	.type	32;	.endef
	.seh_proc	_ZNSt3mapINSt7__cxx1112basic_stringIcSt11char_traitsIcESaIcEEES5_N3cpr22CaseInsensitiveCompareESaISt4pairIKS5_S5_EEEC1ERKSC_
_ZNSt3mapINSt7__cxx1112basic_stringIcSt11char_traitsIcESaIcEEES5_N3cpr22CaseInsensitiveCompareESaISt4pairIKS5_S5_EEEC1ERKSC_:
.LFB13231:
	pushq	%rbp
	.seh_pushreg	%rbp
	movq	%rsp, %rbp
	.seh_setframe	%rbp, 0
	subq	$32, %rsp
	.seh_stackalloc	32
	.seh_endprologue
	movq	%rcx, 16(%rbp)
	movq	%rdx, 24(%rbp)
	movq	16(%rbp), %rax
	movq	24(%rbp), %rdx
	movq	%rax, %rcx
	call	_ZNSt8_Rb_treeINSt7__cxx1112basic_stringIcSt11char_traitsIcESaIcEEESt4pairIKS5_S5_ESt10_Select1stIS8_EN3cpr22CaseInsensitiveCompareESaIS8_EEC1ERKSE_
	nop
	addq	$32, %rsp
	popq	%rbp
	ret
	.seh_endproc
	.section	.text$_ZN3cpr12StringHolderINS_3UrlEEC2ERKS2_,"x"
	.linkonce discard
	.align 2
	.globl	_ZN3cpr12StringHolderINS_3UrlEEC2ERKS2_
	.def	_ZN3cpr12StringHolderINS_3UrlEEC2ERKS2_;	.scl	2;	.type	32;	.endef
	.seh_proc	_ZN3cpr12StringHolderINS_3UrlEEC2ERKS2_
_ZN3cpr12StringHolderINS_3UrlEEC2ERKS2_:
.LFB13234:
	pushq	%rbp
	.seh_pushreg	%rbp
	movq	%rsp, %rbp
	.seh_setframe	%rbp, 0
	subq	$32, %rsp
	.seh_stackalloc	32
	.seh_endprologue
	movq	%rcx, 16(%rbp)
	movq	%rdx, 24(%rbp)
	leaq	16+_ZTVN3cpr12StringHolderINS_3UrlEEE(%rip), %rdx
	movq	16(%rbp), %rax
	movq	%rdx, (%rax)
	movq	16(%rbp), %rax
	addq	$8, %rax
	movq	24(%rbp), %rdx
	addq	$8, %rdx
	movq	%rax, %rcx
	call	_ZNSt7__cxx1112basic_stringIcSt11char_traitsIcESaIcEEC1ERKS4_
	nop
	addq	$32, %rsp
	popq	%rbp
	ret
	.seh_endproc
	.section	.text$_ZN3cpr3UrlC1ERKS0_,"x"
	.linkonce discard
	.align 2
	.globl	_ZN3cpr3UrlC1ERKS0_
	.def	_ZN3cpr3UrlC1ERKS0_;	.scl	2;	.type	32;	.endef
	.seh_proc	_ZN3cpr3UrlC1ERKS0_
_ZN3cpr3UrlC1ERKS0_:
.LFB13237:
	pushq	%rbp
	.seh_pushreg	%rbp
	movq	%rsp, %rbp
	.seh_setframe	%rbp, 0
	subq	$32, %rsp
	.seh_stackalloc	32
	.seh_endprologue
	movq	%rcx, 16(%rbp)
	movq	%rdx, 24(%rbp)
	movq	16(%rbp), %rax
	movq	24(%rbp), %rdx
	movq	%rax, %rcx
	call	_ZN3cpr12StringHolderINS_3UrlEEC2ERKS2_
	leaq	16+_ZTVN3cpr3UrlE(%rip), %rdx
	movq	16(%rbp), %rax
	movq	%rdx, (%rax)
	nop
	addq	$32, %rsp
	popq	%rbp
	ret
	.seh_endproc
	.section	.text$_ZN3cpr7CookiesC1ERKS0_,"x"
	.linkonce discard
	.align 2
	.globl	_ZN3cpr7CookiesC1ERKS0_
	.def	_ZN3cpr7CookiesC1ERKS0_;	.scl	2;	.type	32;	.endef
	.seh_proc	_ZN3cpr7CookiesC1ERKS0_
_ZN3cpr7CookiesC1ERKS0_:
.LFB13240:
	pushq	%rbp
	.seh_pushreg	%rbp
	movq	%rsp, %rbp
	.seh_setframe	%rbp, 0
	subq	$32, %rsp
	.seh_stackalloc	32
	.seh_endprologue
	movq	%rcx, 16(%rbp)
	movq	%rdx, 24(%rbp)
	movq	24(%rbp), %rax
	movzbl	(%rax), %edx
	movq	16(%rbp), %rax
	movb	%dl, (%rax)
	movq	16(%rbp), %rax
	addq	$8, %rax
	movq	24(%rbp), %rdx
	addq	$8, %rdx
	movq	%rax, %rcx
	call	_ZNSt6vectorIN3cpr6CookieESaIS1_EEC1ERKS3_
	nop
	addq	$32, %rsp
	popq	%rbp
	ret
	.seh_endproc
	.section	.text$_ZN3cpr5ErrorC1ERKS0_,"x"
	.linkonce discard
	.align 2
	.globl	_ZN3cpr5ErrorC1ERKS0_
	.def	_ZN3cpr5ErrorC1ERKS0_;	.scl	2;	.type	32;	.endef
	.seh_proc	_ZN3cpr5ErrorC1ERKS0_
_ZN3cpr5ErrorC1ERKS0_:
.LFB13243:
	pushq	%rbp
	.seh_pushreg	%rbp
	movq	%rsp, %rbp
	.seh_setframe	%rbp, 0
	subq	$32, %rsp
	.seh_stackalloc	32
	.seh_endprologue
	movq	%rcx, 16(%rbp)
	movq	%rdx, 24(%rbp)
	movq	24(%rbp), %rax
	movl	(%rax), %edx
	movq	16(%rbp), %rax
	movl	%edx, (%rax)
	movq	16(%rbp), %rax
	addq	$8, %rax
	movq	24(%rbp), %rdx
	addq	$8, %rdx
	movq	%rax, %rcx
	call	_ZNSt7__cxx1112basic_stringIcSt11char_traitsIcESaIcEEC1ERKS4_
	nop
	addq	$32, %rsp
	popq	%rbp
	ret
	.seh_endproc
	.section	.text$_ZN3cpr8ResponseC1ERKS0_,"x"
	.linkonce discard
	.align 2
	.globl	_ZN3cpr8ResponseC1ERKS0_
	.def	_ZN3cpr8ResponseC1ERKS0_;	.scl	2;	.type	32;	.endef
	.seh_proc	_ZN3cpr8ResponseC1ERKS0_
_ZN3cpr8ResponseC1ERKS0_:
.LFB13245:
	pushq	%rbp
	.seh_pushreg	%rbp
	pushq	%rbx
	.seh_pushreg	%rbx
	subq	$40, %rsp
	.seh_stackalloc	40
	leaq	32(%rsp), %rbp
	.seh_setframe	%rbp, 32
	.seh_endprologue
	movq	%rcx, 32(%rbp)
	movq	%rdx, 40(%rbp)
	movq	32(%rbp), %rax
	movq	40(%rbp), %rdx
	movq	%rax, %rcx
	call	_ZNSt10shared_ptrIN3cpr10CurlHolderEEC1ERKS2_
	movq	40(%rbp), %rax
	movl	16(%rax), %edx
	movq	32(%rbp), %rax
	movl	%edx, 16(%rax)
	movq	32(%rbp), %rax
	addq	$24, %rax
	movq	40(%rbp), %rdx
	addq	$24, %rdx
	movq	%rax, %rcx
.LEHB20:
	call	_ZNSt7__cxx1112basic_stringIcSt11char_traitsIcESaIcEEC1ERKS4_
.LEHE20:
	movq	32(%rbp), %rax
	addq	$56, %rax
	movq	40(%rbp), %rdx
	addq	$56, %rdx
	movq	%rax, %rcx
.LEHB21:
	call	_ZNSt3mapINSt7__cxx1112basic_stringIcSt11char_traitsIcESaIcEEES5_N3cpr22CaseInsensitiveCompareESaISt4pairIKS5_S5_EEEC1ERKSC_
.LEHE21:
	movq	32(%rbp), %rax
	addq	$104, %rax
	movq	40(%rbp), %rdx
	addq	$104, %rdx
	movq	%rax, %rcx
.LEHB22:
	call	_ZN3cpr3UrlC1ERKS0_
.LEHE22:
	movq	40(%rbp), %rax
	movsd	144(%rax), %xmm0
	movq	32(%rbp), %rax
	movsd	%xmm0, 144(%rax)
	movq	32(%rbp), %rax
	addq	$152, %rax
	movq	40(%rbp), %rdx
	addq	$152, %rdx
	movq	%rax, %rcx
.LEHB23:
	call	_ZN3cpr7CookiesC1ERKS0_
.LEHE23:
	movq	32(%rbp), %rax
	addq	$184, %rax
	movq	40(%rbp), %rdx
	addq	$184, %rdx
	movq	%rax, %rcx
.LEHB24:
	call	_ZN3cpr5ErrorC1ERKS0_
.LEHE24:
	movq	32(%rbp), %rax
	addq	$224, %rax
	movq	40(%rbp), %rdx
	addq	$224, %rdx
	movq	%rax, %rcx
.LEHB25:
	call	_ZNSt7__cxx1112basic_stringIcSt11char_traitsIcESaIcEEC1ERKS4_
.LEHE25:
	movq	32(%rbp), %rax
	addq	$256, %rax
	movq	40(%rbp), %rdx
	addq	$256, %rdx
	movq	%rax, %rcx
.LEHB26:
	call	_ZNSt7__cxx1112basic_stringIcSt11char_traitsIcESaIcEEC1ERKS4_
.LEHE26:
	movq	32(%rbp), %rax
	addq	$288, %rax
	movq	40(%rbp), %rdx
	addq	$288, %rdx
	movq	%rax, %rcx
.LEHB27:
	call	_ZNSt7__cxx1112basic_stringIcSt11char_traitsIcESaIcEEC1ERKS4_
.LEHE27:
	movq	40(%rbp), %rax
	movq	320(%rax), %rdx
	movq	32(%rbp), %rax
	movq	%rdx, 320(%rax)
	movq	40(%rbp), %rax
	movq	328(%rax), %rdx
	movq	32(%rbp), %rax
	movq	%rdx, 328(%rax)
	movq	40(%rbp), %rax
	movl	336(%rax), %edx
	movq	32(%rbp), %rax
	movl	%edx, 336(%rax)
	jmp	.L175
.L174:
	movq	%rax, %rbx
	movq	32(%rbp), %rax
	addq	$256, %rax
	movq	%rax, %rcx
	call	_ZNSt7__cxx1112basic_stringIcSt11char_traitsIcESaIcEED1Ev
	jmp	.L160
.L173:
	movq	%rax, %rbx
.L160:
	movq	32(%rbp), %rax
	addq	$224, %rax
	movq	%rax, %rcx
	call	_ZNSt7__cxx1112basic_stringIcSt11char_traitsIcESaIcEED1Ev
	jmp	.L161
.L172:
	movq	%rax, %rbx
.L161:
	movq	32(%rbp), %rax
	addq	$184, %rax
	movq	%rax, %rcx
	call	_ZN3cpr5ErrorD1Ev
	jmp	.L162
.L171:
	movq	%rax, %rbx
.L162:
	movq	32(%rbp), %rax
	addq	$152, %rax
	movq	%rax, %rcx
	call	_ZN3cpr7CookiesD1Ev
	jmp	.L163
.L170:
	movq	%rax, %rbx
.L163:
	movq	32(%rbp), %rax
	addq	$104, %rax
	movq	%rax, %rcx
	call	_ZN3cpr3UrlD1Ev
	jmp	.L164
.L169:
	movq	%rax, %rbx
.L164:
	movq	32(%rbp), %rax
	addq	$56, %rax
	movq	%rax, %rcx
	call	_ZNSt3mapINSt7__cxx1112basic_stringIcSt11char_traitsIcESaIcEEES5_N3cpr22CaseInsensitiveCompareESaISt4pairIKS5_S5_EEED1Ev
	jmp	.L165
.L168:
	movq	%rax, %rbx
.L165:
	movq	32(%rbp), %rax
	addq	$24, %rax
	movq	%rax, %rcx
	call	_ZNSt7__cxx1112basic_stringIcSt11char_traitsIcESaIcEED1Ev
	jmp	.L166
.L167:
	movq	%rax, %rbx
.L166:
	movq	32(%rbp), %rax
	movq	%rax, %rcx
	call	_ZNSt10shared_ptrIN3cpr10CurlHolderEED1Ev
	movq	%rbx, %rax
	movq	%rax, %rcx
.LEHB28:
	call	_Unwind_Resume
	nop
.LEHE28:
.L175:
	addq	$40, %rsp
	popq	%rbx
	popq	%rbp
	ret
	.seh_handler	__gxx_personality_seh0, @unwind, @except
	.seh_handlerdata
.LLSDA13245:
	.byte	0xff
	.byte	0xff
	.byte	0x1
	.uleb128 .LLSDACSE13245-.LLSDACSB13245
.LLSDACSB13245:
	.uleb128 .LEHB20-.LFB13245
	.uleb128 .LEHE20-.LEHB20
	.uleb128 .L167-.LFB13245
	.uleb128 0
	.uleb128 .LEHB21-.LFB13245
	.uleb128 .LEHE21-.LEHB21
	.uleb128 .L168-.LFB13245
	.uleb128 0
	.uleb128 .LEHB22-.LFB13245
	.uleb128 .LEHE22-.LEHB22
	.uleb128 .L169-.LFB13245
	.uleb128 0
	.uleb128 .LEHB23-.LFB13245
	.uleb128 .LEHE23-.LEHB23
	.uleb128 .L170-.LFB13245
	.uleb128 0
	.uleb128 .LEHB24-.LFB13245
	.uleb128 .LEHE24-.LEHB24
	.uleb128 .L171-.LFB13245
	.uleb128 0
	.uleb128 .LEHB25-.LFB13245
	.uleb128 .LEHE25-.LEHB25
	.uleb128 .L172-.LFB13245
	.uleb128 0
	.uleb128 .LEHB26-.LFB13245
	.uleb128 .LEHE26-.LEHB26
	.uleb128 .L173-.LFB13245
	.uleb128 0
	.uleb128 .LEHB27-.LFB13245
	.uleb128 .LEHE27-.LEHB27
	.uleb128 .L174-.LFB13245
	.uleb128 0
	.uleb128 .LEHB28-.LFB13245
	.uleb128 .LEHE28-.LEHB28
	.uleb128 0
	.uleb128 0
.LLSDACSE13245:
	.section	.text$_ZN3cpr8ResponseC1ERKS0_,"x"
	.linkonce discard
	.seh_endproc
	.section .rdata,"dr"
	.align 8
.LC6:
	.ascii "Failed to find current session!\0"
	.text
	.align 2
	.globl	_ZN3cpr12MultiPerform13ReadMultiInfoEOSt8functionIFNS_8ResponseERNS_7SessionE8CURLcodeEE
	.def	_ZN3cpr12MultiPerform13ReadMultiInfoEOSt8functionIFNS_8ResponseERNS_7SessionE8CURLcodeEE;	.scl	2;	.type	32;	.endef
	.seh_proc	_ZN3cpr12MultiPerform13ReadMultiInfoEOSt8functionIFNS_8ResponseERNS_7SessionE8CURLcodeEE
_ZN3cpr12MultiPerform13ReadMultiInfoEOSt8functionIFNS_8ResponseERNS_7SessionE8CURLcodeEE:
.LFB13174:
	pushq	%rbp
	.seh_pushreg	%rbp
	pushq	%rsi
	.seh_pushreg	%rsi
	pushq	%rbx
	.seh_pushreg	%rbx
	subq	$864, %rsp
	.seh_stackalloc	864
	leaq	128(%rsp), %rbp
	.seh_setframe	%rbp, 128
	.seh_endprologue
	movq	%rcx, 768(%rbp)
	movq	%rdx, 776(%rbp)
	movq	%r8, 784(%rbp)
	leaq	320(%rbp), %rax
	movq	%rax, %rcx
	call	_ZNSt6vectorIN3cpr8ResponseESaIS1_EEC1Ev
	movq	$0, 312(%rbp)
.L180:
	movl	$0, 308(%rbp)
	movq	776(%rbp), %rax
	addq	$24, %rax
	movq	%rax, %rcx
	call	_ZNKSt10unique_ptrIN3cpr15CurlMultiHolderESt14default_deleteIS1_EEptEv
	movq	(%rax), %rax
	leaq	308(%rbp), %rdx
	movq	%rax, %rcx
	movq	__imp_curl_multi_info_read(%rip), %rax
.LEHB29:
	call	*%rax
	movq	%rax, 312(%rbp)
	movq	312(%rbp), %rax
	testq	%rax, %rax
	je	.L177
	leaq	312(%rbp), %rax
	movq	%rax, %rsi
	movq	776(%rbp), %rax
	movq	%rax, %rcx
	call	_ZNSt6vectorISt4pairISt10shared_ptrIN3cpr7SessionEENS2_12MultiPerform10HttpMethodEESaIS7_EE3endEv
	movq	%rax, %rbx
	movq	776(%rbp), %rax
	movq	%rax, %rcx
	call	_ZNSt6vectorISt4pairISt10shared_ptrIN3cpr7SessionEENS2_12MultiPerform10HttpMethodEESaIS7_EE5beginEv
	movq	%rsi, %r8
	movq	%rbx, %rdx
	movq	%rax, %rcx
	call	_ZSt7find_ifIN9__gnu_cxx17__normal_iteratorIPSt4pairISt10shared_ptrIN3cpr7SessionEENS4_12MultiPerform10HttpMethodEESt6vectorIS9_SaIS9_EEEEZNS7_13ReadMultiInfoEOSt8functionIFNS4_8ResponseERS5_8CURLcodeEEEUlRKS9_E_ET_SP_SP_T0_
	movq	%rax, 296(%rbp)
	movq	776(%rbp), %rax
	movq	%rax, %rcx
	call	_ZNSt6vectorISt4pairISt10shared_ptrIN3cpr7SessionEENS2_12MultiPerform10HttpMethodEESaIS7_EE3endEv
	movq	%rax, 344(%rbp)
	leaq	344(%rbp), %rdx
	leaq	296(%rbp), %rax
	movq	%rax, %rcx
	call	_ZN9__gnu_cxxeqIPSt4pairISt10shared_ptrIN3cpr7SessionEENS3_12MultiPerform10HttpMethodEESt6vectorIS8_SaIS8_EEEEbRKNS_17__normal_iteratorIT_T0_EESI_
	testb	%al, %al
	je	.L178
	leaq	.LC6(%rip), %rax
	movq	%rax, %rdx
	movq	.refptr._ZSt4cerr(%rip), %rax
	movq	%rax, %rcx
	call	_ZStlsISt11char_traitsIcEERSt13basic_ostreamIcT_ES5_PKc
	movq	%rax, %rcx
	movq	.refptr._ZSt4endlIcSt11char_traitsIcEERSt13basic_ostreamIT_T0_ES6_(%rip), %rax
	movq	%rax, %rdx
	call	_ZNSolsEPFRSoS_E
.LEHE29:
	jmp	.L179
.L178:
	leaq	296(%rbp), %rax
	movq	%rax, %rcx
	call	_ZNK9__gnu_cxx17__normal_iteratorIPSt4pairISt10shared_ptrIN3cpr7SessionEENS3_12MultiPerform10HttpMethodEESt6vectorIS8_SaIS8_EEEdeEv
	movq	%rax, %rdx
	leaq	272(%rbp), %rax
	movq	%rax, %rcx
	call	_ZNSt10shared_ptrIN3cpr7SessionEEC1ERKS2_
	movq	312(%rbp), %rax
	movl	16(%rax), %ebx
	leaq	272(%rbp), %rax
	movq	%rax, %rcx
	call	_ZNKSt19__shared_ptr_accessIN3cpr7SessionELN9__gnu_cxx12_Lock_policyE2ELb0ELb0EEdeEv
	movq	%rax, %rcx
	leaq	352(%rbp), %rax
	movq	784(%rbp), %rdx
	movl	%ebx, %r9d
	movq	%rcx, %r8
	movq	%rax, %rcx
.LEHB30:
	call	_ZNKSt8functionIFN3cpr8ResponseERNS0_7SessionE8CURLcodeEEclES3_S4_
.LEHE30:
	leaq	352(%rbp), %rdx
	leaq	320(%rbp), %rax
	movq	%rax, %rcx
.LEHB31:
	call	_ZNSt6vectorIN3cpr8ResponseESaIS1_EE9push_backEOS1_
.LEHE31:
	leaq	352(%rbp), %rax
	movq	%rax, %rcx
	call	_ZN3cpr8ResponseD1Ev
	leaq	272(%rbp), %rax
	movq	%rax, %rcx
	call	_ZNSt10shared_ptrIN3cpr7SessionEED1Ev
.L177:
	movq	312(%rbp), %rax
	testq	%rax, %rax
	jne	.L180
.L179:
	movq	768(%rbp), %rax
	movq	%rax, %rcx
	call	_ZNSt6vectorIN3cpr8ResponseESaIS1_EEC1Ev
	movq	776(%rbp), %rax
	movq	%rax, 728(%rbp)
	movq	728(%rbp), %rax
	movq	%rax, %rcx
	call	_ZNSt6vectorISt4pairISt10shared_ptrIN3cpr7SessionEENS2_12MultiPerform10HttpMethodEESaIS7_EE5beginEv
	movq	%rax, 264(%rbp)
	movq	728(%rbp), %rax
	movq	%rax, %rcx
	call	_ZNSt6vectorISt4pairISt10shared_ptrIN3cpr7SessionEENS2_12MultiPerform10HttpMethodEESaIS7_EE3endEv
	movq	%rax, 256(%rbp)
	jmp	.L181
.L182:
	leaq	264(%rbp), %rax
	movq	%rax, %rcx
	call	_ZNK9__gnu_cxx17__normal_iteratorIPSt4pairISt10shared_ptrIN3cpr7SessionEENS3_12MultiPerform10HttpMethodEESt6vectorIS8_SaIS8_EEEdeEv
	movq	%rax, 720(%rbp)
	movq	720(%rbp), %rax
	movq	%rax, %rcx
	call	_ZNKSt19__shared_ptr_accessIN3cpr7SessionELN9__gnu_cxx12_Lock_policyE2ELb0ELb0EEdeEv
	movq	%rax, 712(%rbp)
	movq	712(%rbp), %rsi
	leaq	320(%rbp), %rax
	movq	%rax, %rcx
	call	_ZNSt6vectorIN3cpr8ResponseESaIS1_EE3endEv
	movq	%rax, %rbx
	leaq	320(%rbp), %rax
	movq	%rax, %rcx
	call	_ZNSt6vectorIN3cpr8ResponseESaIS1_EE5beginEv
	movq	%rsi, %r8
	movq	%rbx, %rdx
	movq	%rax, %rcx
.LEHB32:
	call	_ZSt7find_ifIN9__gnu_cxx17__normal_iteratorIPN3cpr8ResponseESt6vectorIS3_SaIS3_EEEEZNS2_12MultiPerform13ReadMultiInfoEOSt8functionIFS3_RNS2_7SessionE8CURLcodeEEEUlRKS3_E_ET_SK_SK_T0_
	movq	%rax, 248(%rbp)
	leaq	248(%rbp), %rax
	movq	%rax, %rcx
	call	_ZNK9__gnu_cxx17__normal_iteratorIPN3cpr8ResponseESt6vectorIS2_SaIS2_EEEdeEv
	movq	%rax, %rdx
	leaq	-96(%rbp), %rax
	movq	%rax, %rcx
	call	_ZN3cpr8ResponseC1ERKS0_
.LEHE32:
	leaq	248(%rbp), %rdx
	leaq	704(%rbp), %rax
	movq	%rax, %rcx
	call	_ZN9__gnu_cxx17__normal_iteratorIPKN3cpr8ResponseESt6vectorIS2_SaIS2_EEEC1IPS2_vEERKNS0_IT_S7_EE
	movq	704(%rbp), %rdx
	leaq	320(%rbp), %rax
	movq	%rax, %rcx
.LEHB33:
	call	_ZNSt6vectorIN3cpr8ResponseESaIS1_EE5eraseEN9__gnu_cxx17__normal_iteratorIPKS1_S3_EE
	leaq	-96(%rbp), %rdx
	movq	768(%rbp), %rax
	movq	%rax, %rcx
	call	_ZNSt6vectorIN3cpr8ResponseESaIS1_EE9push_backERKS1_
.LEHE33:
	leaq	-96(%rbp), %rax
	movq	%rax, %rcx
	call	_ZN3cpr8ResponseD1Ev
	leaq	264(%rbp), %rax
	movq	%rax, %rcx
	call	_ZN9__gnu_cxx17__normal_iteratorIPSt4pairISt10shared_ptrIN3cpr7SessionEENS3_12MultiPerform10HttpMethodEESt6vectorIS8_SaIS8_EEEppEv
.L181:
	leaq	256(%rbp), %rdx
	leaq	264(%rbp), %rax
	movq	%rax, %rcx
	call	_ZN9__gnu_cxxneIPSt4pairISt10shared_ptrIN3cpr7SessionEENS3_12MultiPerform10HttpMethodEESt6vectorIS8_SaIS8_EEEEbRKNS_17__normal_iteratorIT_T0_EESI_
	testb	%al, %al
	jne	.L182
	leaq	320(%rbp), %rax
	movq	%rax, %rcx
	call	_ZNSt6vectorIN3cpr8ResponseESaIS1_EED1Ev
	jmp	.L194
.L190:
	movq	%rax, %rbx
	leaq	352(%rbp), %rax
	movq	%rax, %rcx
	call	_ZN3cpr8ResponseD1Ev
	jmp	.L185
.L189:
	movq	%rax, %rbx
.L185:
	leaq	272(%rbp), %rax
	movq	%rax, %rcx
	call	_ZNSt10shared_ptrIN3cpr7SessionEED1Ev
	jmp	.L186
.L193:
	movq	%rax, %rbx
	leaq	-96(%rbp), %rax
	movq	%rax, %rcx
	call	_ZN3cpr8ResponseD1Ev
	jmp	.L188
.L192:
	movq	%rax, %rbx
.L188:
	movq	768(%rbp), %rax
	movq	%rax, %rcx
	call	_ZNSt6vectorIN3cpr8ResponseESaIS1_EED1Ev
	jmp	.L186
.L191:
	movq	%rax, %rbx
.L186:
	leaq	320(%rbp), %rax
	movq	%rax, %rcx
	call	_ZNSt6vectorIN3cpr8ResponseESaIS1_EED1Ev
	movq	%rbx, %rax
	movq	%rax, %rcx
.LEHB34:
	call	_Unwind_Resume
.LEHE34:
.L194:
	movq	768(%rbp), %rax
	addq	$864, %rsp
	popq	%rbx
	popq	%rsi
	popq	%rbp
	ret
	.seh_handler	__gxx_personality_seh0, @unwind, @except
	.seh_handlerdata
.LLSDA13174:
	.byte	0xff
	.byte	0xff
	.byte	0x1
	.uleb128 .LLSDACSE13174-.LLSDACSB13174
.LLSDACSB13174:
	.uleb128 .LEHB29-.LFB13174
	.uleb128 .LEHE29-.LEHB29
	.uleb128 .L191-.LFB13174
	.uleb128 0
	.uleb128 .LEHB30-.LFB13174
	.uleb128 .LEHE30-.LEHB30
	.uleb128 .L189-.LFB13174
	.uleb128 0
	.uleb128 .LEHB31-.LFB13174
	.uleb128 .LEHE31-.LEHB31
	.uleb128 .L190-.LFB13174
	.uleb128 0
	.uleb128 .LEHB32-.LFB13174
	.uleb128 .LEHE32-.LEHB32
	.uleb128 .L192-.LFB13174
	.uleb128 0
	.uleb128 .LEHB33-.LFB13174
	.uleb128 .LEHE33-.LEHB33
	.uleb128 .L193-.LFB13174
	.uleb128 0
	.uleb128 .LEHB34-.LFB13174
	.uleb128 .LEHE34-.LEHB34
	.uleb128 0
	.uleb128 0
.LLSDACSE13174:
	.text
	.seh_endproc
	.align 2
	.def	_ZZN3cpr12MultiPerform11MakeRequestEvENKUlRNS_7SessionE8CURLcodeE_clES2_S3_;	.scl	3;	.type	32;	.endef
	.seh_proc	_ZZN3cpr12MultiPerform11MakeRequestEvENKUlRNS_7SessionE8CURLcodeE_clES2_S3_
_ZZN3cpr12MultiPerform11MakeRequestEvENKUlRNS_7SessionE8CURLcodeE_clES2_S3_:
.LFB13253:
	pushq	%rbp
	.seh_pushreg	%rbp
	movq	%rsp, %rbp
	.seh_setframe	%rbp, 0
	subq	$32, %rsp
	.seh_stackalloc	32
	.seh_endprologue
	movq	%rcx, 16(%rbp)
	movq	%rdx, 24(%rbp)
	movq	%r8, 32(%rbp)
	movl	%r9d, 40(%rbp)
	movq	16(%rbp), %rax
	movl	40(%rbp), %ecx
	movq	32(%rbp), %rdx
	movl	%ecx, %r8d
	movq	%rax, %rcx
	call	_ZN3cpr7Session8CompleteE8CURLcode
	movq	16(%rbp), %rax
	addq	$32, %rsp
	popq	%rbp
	ret
	.seh_endproc
	.section	.text$_ZNSt8functionIFN3cpr8ResponseERNS0_7SessionE8CURLcodeEED1Ev,"x"
	.linkonce discard
	.align 2
	.globl	_ZNSt8functionIFN3cpr8ResponseERNS0_7SessionE8CURLcodeEED1Ev
	.def	_ZNSt8functionIFN3cpr8ResponseERNS0_7SessionE8CURLcodeEED1Ev;	.scl	2;	.type	32;	.endef
	.seh_proc	_ZNSt8functionIFN3cpr8ResponseERNS0_7SessionE8CURLcodeEED1Ev
_ZNSt8functionIFN3cpr8ResponseERNS0_7SessionE8CURLcodeEED1Ev:
.LFB13260:
	pushq	%rbp
	.seh_pushreg	%rbp
	movq	%rsp, %rbp
	.seh_setframe	%rbp, 0
	subq	$32, %rsp
	.seh_stackalloc	32
	.seh_endprologue
	movq	%rcx, 16(%rbp)
	movq	16(%rbp), %rax
	movq	%rax, %rcx
	call	_ZNSt14_Function_baseD2Ev
	nop
	addq	$32, %rsp
	popq	%rbp
	ret
	.seh_endproc
	.text
	.align 2
	.globl	_ZN3cpr12MultiPerform11MakeRequestEv
	.def	_ZN3cpr12MultiPerform11MakeRequestEv;	.scl	2;	.type	32;	.endef
	.seh_proc	_ZN3cpr12MultiPerform11MakeRequestEv
_ZN3cpr12MultiPerform11MakeRequestEv:
.LFB13252:
	pushq	%rbp
	.seh_pushreg	%rbp
	pushq	%rbx
	.seh_pushreg	%rbx
	subq	$88, %rsp
	.seh_stackalloc	88
	leaq	80(%rsp), %rbp
	.seh_setframe	%rbp, 80
	.seh_endprologue
	movq	%rcx, 32(%rbp)
	movq	%rdx, 40(%rbp)
	movq	40(%rbp), %rax
	addq	$40, %rax
	movq	%rax, %rcx
	call	_ZNKSt5queueISt10shared_ptrIN3cpr16InterceptorMultiEESt5dequeIS3_SaIS3_EEE5emptyEv
	xorl	$1, %eax
	testb	%al, %al
	je	.L199
	movq	32(%rbp), %rax
	movq	40(%rbp), %rdx
	movq	%rax, %rcx
.LEHB35:
	call	_ZN3cpr12MultiPerform9interceptEv
	jmp	.L198
.L199:
	movq	40(%rbp), %rax
	movq	%rax, %rcx
	call	_ZN3cpr12MultiPerform14DoMultiPerformEv
.LEHE35:
	leaq	-1(%rbp), %rdx
	leaq	-48(%rbp), %rax
	movq	%rax, %rcx
	call	_ZNSt8functionIFN3cpr8ResponseERNS0_7SessionE8CURLcodeEEC1IZNS0_12MultiPerform11MakeRequestEvEUlS3_S4_E_vEEOT_
	movq	32(%rbp), %rax
	leaq	-48(%rbp), %rcx
	movq	40(%rbp), %rdx
	movq	%rcx, %r8
	movq	%rax, %rcx
.LEHB36:
	call	_ZN3cpr12MultiPerform13ReadMultiInfoEOSt8functionIFNS_8ResponseERNS_7SessionE8CURLcodeEE
.LEHE36:
	nop
	leaq	-48(%rbp), %rax
	movq	%rax, %rcx
	call	_ZNSt8functionIFN3cpr8ResponseERNS0_7SessionE8CURLcodeEED1Ev
	jmp	.L198
.L202:
	movq	%rax, %rbx
	leaq	-48(%rbp), %rax
	movq	%rax, %rcx
	call	_ZNSt8functionIFN3cpr8ResponseERNS0_7SessionE8CURLcodeEED1Ev
	movq	%rbx, %rax
	movq	%rax, %rcx
.LEHB37:
	call	_Unwind_Resume
.LEHE37:
.L198:
	movq	32(%rbp), %rax
	addq	$88, %rsp
	popq	%rbx
	popq	%rbp
	ret
	.seh_handler	__gxx_personality_seh0, @unwind, @except
	.seh_handlerdata
.LLSDA13252:
	.byte	0xff
	.byte	0xff
	.byte	0x1
	.uleb128 .LLSDACSE13252-.LLSDACSB13252
.LLSDACSB13252:
	.uleb128 .LEHB35-.LFB13252
	.uleb128 .LEHE35-.LEHB35
	.uleb128 0
	.uleb128 0
	.uleb128 .LEHB36-.LFB13252
	.uleb128 .LEHE36-.LEHB36
	.uleb128 .L202-.LFB13252
	.uleb128 0
	.uleb128 .LEHB37-.LFB13252
	.uleb128 .LEHE37-.LEHB37
	.uleb128 0
	.uleb128 0
.LLSDACSE13252:
	.text
	.seh_endproc
	.align 2
	.def	_ZZN3cpr12MultiPerform19MakeDownloadRequestEvENKUlRNS_7SessionE8CURLcodeE_clES2_S3_;	.scl	3;	.type	32;	.endef
	.seh_proc	_ZZN3cpr12MultiPerform19MakeDownloadRequestEvENKUlRNS_7SessionE8CURLcodeE_clES2_S3_
_ZZN3cpr12MultiPerform19MakeDownloadRequestEvENKUlRNS_7SessionE8CURLcodeE_clES2_S3_:
.LFB13262:
	pushq	%rbp
	.seh_pushreg	%rbp
	movq	%rsp, %rbp
	.seh_setframe	%rbp, 0
	subq	$32, %rsp
	.seh_stackalloc	32
	.seh_endprologue
	movq	%rcx, 16(%rbp)
	movq	%rdx, 24(%rbp)
	movq	%r8, 32(%rbp)
	movl	%r9d, 40(%rbp)
	movq	16(%rbp), %rax
	movl	40(%rbp), %ecx
	movq	32(%rbp), %rdx
	movl	%ecx, %r8d
	movq	%rax, %rcx
	call	_ZN3cpr7Session16CompleteDownloadE8CURLcode
	movq	16(%rbp), %rax
	addq	$32, %rsp
	popq	%rbp
	ret
	.seh_endproc
	.align 2
	.globl	_ZN3cpr12MultiPerform19MakeDownloadRequestEv
	.def	_ZN3cpr12MultiPerform19MakeDownloadRequestEv;	.scl	2;	.type	32;	.endef
	.seh_proc	_ZN3cpr12MultiPerform19MakeDownloadRequestEv
_ZN3cpr12MultiPerform19MakeDownloadRequestEv:
.LFB13261:
	pushq	%rbp
	.seh_pushreg	%rbp
	pushq	%rbx
	.seh_pushreg	%rbx
	subq	$88, %rsp
	.seh_stackalloc	88
	leaq	80(%rsp), %rbp
	.seh_setframe	%rbp, 80
	.seh_endprologue
	movq	%rcx, 32(%rbp)
	movq	%rdx, 40(%rbp)
	movq	40(%rbp), %rax
	addq	$40, %rax
	movq	%rax, %rcx
	call	_ZNKSt5queueISt10shared_ptrIN3cpr16InterceptorMultiEESt5dequeIS3_SaIS3_EEE5emptyEv
	xorl	$1, %eax
	testb	%al, %al
	je	.L206
	movq	32(%rbp), %rax
	movq	40(%rbp), %rdx
	movq	%rax, %rcx
.LEHB38:
	call	_ZN3cpr12MultiPerform9interceptEv
	jmp	.L205
.L206:
	movq	40(%rbp), %rax
	movq	%rax, %rcx
	call	_ZN3cpr12MultiPerform14DoMultiPerformEv
.LEHE38:
	leaq	-1(%rbp), %rdx
	leaq	-48(%rbp), %rax
	movq	%rax, %rcx
	call	_ZNSt8functionIFN3cpr8ResponseERNS0_7SessionE8CURLcodeEEC1IZNS0_12MultiPerform19MakeDownloadRequestEvEUlS3_S4_E_vEEOT_
	movq	32(%rbp), %rax
	leaq	-48(%rbp), %rcx
	movq	40(%rbp), %rdx
	movq	%rcx, %r8
	movq	%rax, %rcx
.LEHB39:
	call	_ZN3cpr12MultiPerform13ReadMultiInfoEOSt8functionIFNS_8ResponseERNS_7SessionE8CURLcodeEE
.LEHE39:
	nop
	leaq	-48(%rbp), %rax
	movq	%rax, %rcx
	call	_ZNSt8functionIFN3cpr8ResponseERNS0_7SessionE8CURLcodeEED1Ev
	jmp	.L205
.L209:
	movq	%rax, %rbx
	leaq	-48(%rbp), %rax
	movq	%rax, %rcx
	call	_ZNSt8functionIFN3cpr8ResponseERNS0_7SessionE8CURLcodeEED1Ev
	movq	%rbx, %rax
	movq	%rax, %rcx
.LEHB40:
	call	_Unwind_Resume
.LEHE40:
.L205:
	movq	32(%rbp), %rax
	addq	$88, %rsp
	popq	%rbx
	popq	%rbp
	ret
	.seh_handler	__gxx_personality_seh0, @unwind, @except
	.seh_handlerdata
.LLSDA13261:
	.byte	0xff
	.byte	0xff
	.byte	0x1
	.uleb128 .LLSDACSE13261-.LLSDACSB13261
.LLSDACSB13261:
	.uleb128 .LEHB38-.LFB13261
	.uleb128 .LEHE38-.LEHB38
	.uleb128 0
	.uleb128 0
	.uleb128 .LEHB39-.LFB13261
	.uleb128 .LEHE39-.LEHB39
	.uleb128 .L209-.LFB13261
	.uleb128 0
	.uleb128 .LEHB40-.LFB13261
	.uleb128 .LEHE40-.LEHB40
	.uleb128 0
	.uleb128 0
.LLSDACSE13261:
	.text
	.seh_endproc
	.section .rdata,"dr"
	.align 8
.LC7:
	.ascii "PrepareSessions failed: Undefined HttpMethod or download without arguments!\0"
	.text
	.align 2
	.globl	_ZN3cpr12MultiPerform15PrepareSessionsEv
	.def	_ZN3cpr12MultiPerform15PrepareSessionsEv;	.scl	2;	.type	32;	.endef
	.seh_proc	_ZN3cpr12MultiPerform15PrepareSessionsEv
_ZN3cpr12MultiPerform15PrepareSessionsEv:
.LFB13267:
	pushq	%rbp
	.seh_pushreg	%rbp
	movq	%rsp, %rbp
	.seh_setframe	%rbp, 0
	subq	$64, %rsp
	.seh_stackalloc	64
	.seh_endprologue
	movq	%rcx, 16(%rbp)
	movq	16(%rbp), %rax
	movq	%rax, -8(%rbp)
	movq	-8(%rbp), %rax
	movq	%rax, %rcx
	call	_ZNSt6vectorISt4pairISt10shared_ptrIN3cpr7SessionEENS2_12MultiPerform10HttpMethodEESaIS7_EE5beginEv
	movq	%rax, -24(%rbp)
	movq	-8(%rbp), %rax
	movq	%rax, %rcx
	call	_ZNSt6vectorISt4pairISt10shared_ptrIN3cpr7SessionEENS2_12MultiPerform10HttpMethodEESaIS7_EE3endEv
	movq	%rax, -32(%rbp)
	jmp	.L211
.L223:
	leaq	-24(%rbp), %rax
	movq	%rax, %rcx
	call	_ZNK9__gnu_cxx17__normal_iteratorIPSt4pairISt10shared_ptrIN3cpr7SessionEENS3_12MultiPerform10HttpMethodEESt6vectorIS8_SaIS8_EEEdeEv
	movq	%rax, -16(%rbp)
	movq	-16(%rbp), %rax
	movl	16(%rax), %eax
	cmpl	$7, %eax
	ja	.L212
	movl	%eax, %eax
	leaq	0(,%rax,4), %rdx
	leaq	.L214(%rip), %rax
	movl	(%rdx,%rax), %eax
	cltq
	leaq	.L214(%rip), %rdx
	addq	%rdx, %rax
	jmp	*%rax
	.section .rdata,"dr"
	.align 4
.L214:
	.long	.L212-.L214
	.long	.L220-.L214
	.long	.L219-.L214
	.long	.L218-.L214
	.long	.L217-.L214
	.long	.L216-.L214
	.long	.L215-.L214
	.long	.L213-.L214
	.text
.L220:
	movq	-16(%rbp), %rax
	movq	%rax, %rcx
	call	_ZNKSt19__shared_ptr_accessIN3cpr7SessionELN9__gnu_cxx12_Lock_policyE2ELb0ELb0EEptEv
	movq	%rax, %rcx
	call	_ZN3cpr7Session10PrepareGetEv
	jmp	.L221
.L219:
	movq	-16(%rbp), %rax
	movq	%rax, %rcx
	call	_ZNKSt19__shared_ptr_accessIN3cpr7SessionELN9__gnu_cxx12_Lock_policyE2ELb0ELb0EEptEv
	movq	%rax, %rcx
	call	_ZN3cpr7Session11PreparePostEv
	jmp	.L221
.L218:
	movq	-16(%rbp), %rax
	movq	%rax, %rcx
	call	_ZNKSt19__shared_ptr_accessIN3cpr7SessionELN9__gnu_cxx12_Lock_policyE2ELb0ELb0EEptEv
	movq	%rax, %rcx
	call	_ZN3cpr7Session10PreparePutEv
	jmp	.L221
.L217:
	movq	-16(%rbp), %rax
	movq	%rax, %rcx
	call	_ZNKSt19__shared_ptr_accessIN3cpr7SessionELN9__gnu_cxx12_Lock_policyE2ELb0ELb0EEptEv
	movq	%rax, %rcx
	call	_ZN3cpr7Session13PrepareDeleteEv
	jmp	.L221
.L216:
	movq	-16(%rbp), %rax
	movq	%rax, %rcx
	call	_ZNKSt19__shared_ptr_accessIN3cpr7SessionELN9__gnu_cxx12_Lock_policyE2ELb0ELb0EEptEv
	movq	%rax, %rcx
	call	_ZN3cpr7Session12PreparePatchEv
	jmp	.L221
.L215:
	movq	-16(%rbp), %rax
	movq	%rax, %rcx
	call	_ZNKSt19__shared_ptr_accessIN3cpr7SessionELN9__gnu_cxx12_Lock_policyE2ELb0ELb0EEptEv
	movq	%rax, %rcx
	call	_ZN3cpr7Session11PrepareHeadEv
	jmp	.L221
.L213:
	movq	-16(%rbp), %rax
	movq	%rax, %rcx
	call	_ZNKSt19__shared_ptr_accessIN3cpr7SessionELN9__gnu_cxx12_Lock_policyE2ELb0ELb0EEptEv
	movq	%rax, %rcx
	call	_ZN3cpr7Session14PrepareOptionsEv
	jmp	.L221
.L212:
	leaq	.LC7(%rip), %rax
	movq	%rax, %rdx
	movq	.refptr._ZSt4cerr(%rip), %rax
	movq	%rax, %rcx
	call	_ZStlsISt11char_traitsIcEERSt13basic_ostreamIcT_ES5_PKc
	movq	%rax, %rcx
	movq	.refptr._ZSt4endlIcSt11char_traitsIcEERSt13basic_ostreamIT_T0_ES6_(%rip), %rax
	movq	%rax, %rdx
	call	_ZNSolsEPFRSoS_E
	jmp	.L210
.L221:
	leaq	-24(%rbp), %rax
	movq	%rax, %rcx
	call	_ZN9__gnu_cxx17__normal_iteratorIPSt4pairISt10shared_ptrIN3cpr7SessionEENS3_12MultiPerform10HttpMethodEESt6vectorIS8_SaIS8_EEEppEv
.L211:
	leaq	-32(%rbp), %rdx
	leaq	-24(%rbp), %rax
	movq	%rax, %rcx
	call	_ZN9__gnu_cxxneIPSt4pairISt10shared_ptrIN3cpr7SessionEENS3_12MultiPerform10HttpMethodEESt6vectorIS8_SaIS8_EEEEbRKNS_17__normal_iteratorIT_T0_EESI_
	testb	%al, %al
	jne	.L223
.L210:
	addq	$64, %rsp
	popq	%rbp
	ret
	.seh_endproc
	.section .rdata,"dr"
	.align 8
.LC8:
	.ascii "PrepareSessions failed: Undefined HttpMethod or non download method with arguments!\0"
	.text
	.align 2
	.globl	_ZN3cpr12MultiPerform22PrepareDownloadSessionEyRKNS_13WriteCallbackE
	.def	_ZN3cpr12MultiPerform22PrepareDownloadSessionEyRKNS_13WriteCallbackE;	.scl	2;	.type	32;	.endef
	.seh_proc	_ZN3cpr12MultiPerform22PrepareDownloadSessionEyRKNS_13WriteCallbackE
_ZN3cpr12MultiPerform22PrepareDownloadSessionEyRKNS_13WriteCallbackE:
.LFB13268:
	pushq	%rbp
	.seh_pushreg	%rbp
	movq	%rsp, %rbp
	.seh_setframe	%rbp, 0
	subq	$48, %rsp
	.seh_stackalloc	48
	.seh_endprologue
	movq	%rcx, 16(%rbp)
	movq	%rdx, 24(%rbp)
	movq	%r8, 32(%rbp)
	movq	16(%rbp), %rax
	movq	24(%rbp), %rdx
	movq	%rax, %rcx
	call	_ZNSt6vectorISt4pairISt10shared_ptrIN3cpr7SessionEENS2_12MultiPerform10HttpMethodEESaIS7_EEixEy
	movq	%rax, -8(%rbp)
	movq	-8(%rbp), %rax
	movl	16(%rax), %eax
	cmpl	$8, %eax
	jne	.L225
	movq	-8(%rbp), %rax
	movq	%rax, %rcx
	call	_ZNKSt19__shared_ptr_accessIN3cpr7SessionELN9__gnu_cxx12_Lock_policyE2ELb0ELb0EEptEv
	movq	%rax, %rcx
	movq	32(%rbp), %rax
	movq	%rax, %rdx
	call	_ZN3cpr7Session15PrepareDownloadERKNS_13WriteCallbackE
	jmp	.L224
.L225:
	leaq	.LC8(%rip), %rax
	movq	%rax, %rdx
	movq	.refptr._ZSt4cerr(%rip), %rax
	movq	%rax, %rcx
	call	_ZStlsISt11char_traitsIcEERSt13basic_ostreamIcT_ES5_PKc
	movq	%rax, %rcx
	movq	.refptr._ZSt4endlIcSt11char_traitsIcEERSt13basic_ostreamIT_T0_ES6_(%rip), %rax
	movq	%rax, %rdx
	call	_ZNSolsEPFRSoS_E
	nop
.L224:
	addq	$48, %rsp
	popq	%rbp
	ret
	.seh_endproc
	.align 2
	.globl	_ZN3cpr12MultiPerform22PrepareDownloadSessionEyRSt14basic_ofstreamIcSt11char_traitsIcEE
	.def	_ZN3cpr12MultiPerform22PrepareDownloadSessionEyRSt14basic_ofstreamIcSt11char_traitsIcEE;	.scl	2;	.type	32;	.endef
	.seh_proc	_ZN3cpr12MultiPerform22PrepareDownloadSessionEyRSt14basic_ofstreamIcSt11char_traitsIcEE
_ZN3cpr12MultiPerform22PrepareDownloadSessionEyRSt14basic_ofstreamIcSt11char_traitsIcEE:
.LFB13269:
	pushq	%rbp
	.seh_pushreg	%rbp
	movq	%rsp, %rbp
	.seh_setframe	%rbp, 0
	subq	$48, %rsp
	.seh_stackalloc	48
	.seh_endprologue
	movq	%rcx, 16(%rbp)
	movq	%rdx, 24(%rbp)
	movq	%r8, 32(%rbp)
	movq	16(%rbp), %rax
	movq	24(%rbp), %rdx
	movq	%rax, %rcx
	call	_ZNSt6vectorISt4pairISt10shared_ptrIN3cpr7SessionEENS2_12MultiPerform10HttpMethodEESaIS7_EEixEy
	movq	%rax, -8(%rbp)
	movq	-8(%rbp), %rax
	movl	16(%rax), %eax
	cmpl	$8, %eax
	jne	.L228
	movq	-8(%rbp), %rax
	movq	%rax, %rcx
	call	_ZNKSt19__shared_ptr_accessIN3cpr7SessionELN9__gnu_cxx12_Lock_policyE2ELb0ELb0EEptEv
	movq	%rax, %rcx
	movq	32(%rbp), %rax
	movq	%rax, %rdx
	call	_ZN3cpr7Session15PrepareDownloadERSt14basic_ofstreamIcSt11char_traitsIcEE
	jmp	.L227
.L228:
	leaq	.LC8(%rip), %rax
	movq	%rax, %rdx
	movq	.refptr._ZSt4cerr(%rip), %rax
	movq	%rax, %rcx
	call	_ZStlsISt11char_traitsIcEERSt13basic_ostreamIcT_ES5_PKc
	movq	%rax, %rcx
	movq	.refptr._ZSt4endlIcSt11char_traitsIcEERSt13basic_ostreamIT_T0_ES6_(%rip), %rax
	movq	%rax, %rdx
	call	_ZNSolsEPFRSoS_E
	nop
.L227:
	addq	$48, %rsp
	popq	%rbp
	ret
	.seh_endproc
	.align 2
	.globl	_ZN3cpr12MultiPerform13SetHttpMethodENS0_10HttpMethodE
	.def	_ZN3cpr12MultiPerform13SetHttpMethodENS0_10HttpMethodE;	.scl	2;	.type	32;	.endef
	.seh_proc	_ZN3cpr12MultiPerform13SetHttpMethodENS0_10HttpMethodE
_ZN3cpr12MultiPerform13SetHttpMethodENS0_10HttpMethodE:
.LFB13270:
	pushq	%rbp
	.seh_pushreg	%rbp
	movq	%rsp, %rbp
	.seh_setframe	%rbp, 0
	subq	$64, %rsp
	.seh_stackalloc	64
	.seh_endprologue
	movq	%rcx, 16(%rbp)
	movl	%edx, 24(%rbp)
	movq	16(%rbp), %rax
	movq	%rax, -8(%rbp)
	movq	-8(%rbp), %rax
	movq	%rax, %rcx
	call	_ZNSt6vectorISt4pairISt10shared_ptrIN3cpr7SessionEENS2_12MultiPerform10HttpMethodEESaIS7_EE5beginEv
	movq	%rax, -24(%rbp)
	movq	-8(%rbp), %rax
	movq	%rax, %rcx
	call	_ZNSt6vectorISt4pairISt10shared_ptrIN3cpr7SessionEENS2_12MultiPerform10HttpMethodEESaIS7_EE3endEv
	movq	%rax, -32(%rbp)
	jmp	.L231
.L232:
	leaq	-24(%rbp), %rax
	movq	%rax, %rcx
	call	_ZNK9__gnu_cxx17__normal_iteratorIPSt4pairISt10shared_ptrIN3cpr7SessionEENS3_12MultiPerform10HttpMethodEESt6vectorIS8_SaIS8_EEEdeEv
	movq	%rax, -16(%rbp)
	movq	-16(%rbp), %rax
	movl	24(%rbp), %edx
	movl	%edx, 16(%rax)
	leaq	-24(%rbp), %rax
	movq	%rax, %rcx
	call	_ZN9__gnu_cxx17__normal_iteratorIPSt4pairISt10shared_ptrIN3cpr7SessionEENS3_12MultiPerform10HttpMethodEESt6vectorIS8_SaIS8_EEEppEv
.L231:
	leaq	-32(%rbp), %rdx
	leaq	-24(%rbp), %rax
	movq	%rax, %rcx
	call	_ZN9__gnu_cxxneIPSt4pairISt10shared_ptrIN3cpr7SessionEENS3_12MultiPerform10HttpMethodEESt6vectorIS8_SaIS8_EEEEbRKNS_17__normal_iteratorIT_T0_EESI_
	testb	%al, %al
	jne	.L232
	nop
	nop
	addq	$64, %rsp
	popq	%rbp
	ret
	.seh_endproc
	.align 2
	.globl	_ZN3cpr12MultiPerform10PrepareGetEv
	.def	_ZN3cpr12MultiPerform10PrepareGetEv;	.scl	2;	.type	32;	.endef
	.seh_proc	_ZN3cpr12MultiPerform10PrepareGetEv
_ZN3cpr12MultiPerform10PrepareGetEv:
.LFB13271:
	pushq	%rbp
	.seh_pushreg	%rbp
	movq	%rsp, %rbp
	.seh_setframe	%rbp, 0
	subq	$32, %rsp
	.seh_stackalloc	32
	.seh_endprologue
	movq	%rcx, 16(%rbp)
	movq	16(%rbp), %rax
	movl	$1, %edx
	movq	%rax, %rcx
	call	_ZN3cpr12MultiPerform13SetHttpMethodENS0_10HttpMethodE
	movq	16(%rbp), %rax
	movq	%rax, %rcx
	call	_ZN3cpr12MultiPerform15PrepareSessionsEv
	nop
	addq	$32, %rsp
	popq	%rbp
	ret
	.seh_endproc
	.align 2
	.globl	_ZN3cpr12MultiPerform13PrepareDeleteEv
	.def	_ZN3cpr12MultiPerform13PrepareDeleteEv;	.scl	2;	.type	32;	.endef
	.seh_proc	_ZN3cpr12MultiPerform13PrepareDeleteEv
_ZN3cpr12MultiPerform13PrepareDeleteEv:
.LFB13272:
	pushq	%rbp
	.seh_pushreg	%rbp
	movq	%rsp, %rbp
	.seh_setframe	%rbp, 0
	subq	$32, %rsp
	.seh_stackalloc	32
	.seh_endprologue
	movq	%rcx, 16(%rbp)
	movq	16(%rbp), %rax
	movl	$4, %edx
	movq	%rax, %rcx
	call	_ZN3cpr12MultiPerform13SetHttpMethodENS0_10HttpMethodE
	movq	16(%rbp), %rax
	movq	%rax, %rcx
	call	_ZN3cpr12MultiPerform15PrepareSessionsEv
	nop
	addq	$32, %rsp
	popq	%rbp
	ret
	.seh_endproc
	.align 2
	.globl	_ZN3cpr12MultiPerform10PreparePutEv
	.def	_ZN3cpr12MultiPerform10PreparePutEv;	.scl	2;	.type	32;	.endef
	.seh_proc	_ZN3cpr12MultiPerform10PreparePutEv
_ZN3cpr12MultiPerform10PreparePutEv:
.LFB13273:
	pushq	%rbp
	.seh_pushreg	%rbp
	movq	%rsp, %rbp
	.seh_setframe	%rbp, 0
	subq	$32, %rsp
	.seh_stackalloc	32
	.seh_endprologue
	movq	%rcx, 16(%rbp)
	movq	16(%rbp), %rax
	movl	$3, %edx
	movq	%rax, %rcx
	call	_ZN3cpr12MultiPerform13SetHttpMethodENS0_10HttpMethodE
	movq	16(%rbp), %rax
	movq	%rax, %rcx
	call	_ZN3cpr12MultiPerform15PrepareSessionsEv
	nop
	addq	$32, %rsp
	popq	%rbp
	ret
	.seh_endproc
	.align 2
	.globl	_ZN3cpr12MultiPerform12PreparePatchEv
	.def	_ZN3cpr12MultiPerform12PreparePatchEv;	.scl	2;	.type	32;	.endef
	.seh_proc	_ZN3cpr12MultiPerform12PreparePatchEv
_ZN3cpr12MultiPerform12PreparePatchEv:
.LFB13274:
	pushq	%rbp
	.seh_pushreg	%rbp
	movq	%rsp, %rbp
	.seh_setframe	%rbp, 0
	subq	$32, %rsp
	.seh_stackalloc	32
	.seh_endprologue
	movq	%rcx, 16(%rbp)
	movq	16(%rbp), %rax
	movl	$5, %edx
	movq	%rax, %rcx
	call	_ZN3cpr12MultiPerform13SetHttpMethodENS0_10HttpMethodE
	movq	16(%rbp), %rax
	movq	%rax, %rcx
	call	_ZN3cpr12MultiPerform15PrepareSessionsEv
	nop
	addq	$32, %rsp
	popq	%rbp
	ret
	.seh_endproc
	.align 2
	.globl	_ZN3cpr12MultiPerform11PrepareHeadEv
	.def	_ZN3cpr12MultiPerform11PrepareHeadEv;	.scl	2;	.type	32;	.endef
	.seh_proc	_ZN3cpr12MultiPerform11PrepareHeadEv
_ZN3cpr12MultiPerform11PrepareHeadEv:
.LFB13275:
	pushq	%rbp
	.seh_pushreg	%rbp
	movq	%rsp, %rbp
	.seh_setframe	%rbp, 0
	subq	$32, %rsp
	.seh_stackalloc	32
	.seh_endprologue
	movq	%rcx, 16(%rbp)
	movq	16(%rbp), %rax
	movl	$6, %edx
	movq	%rax, %rcx
	call	_ZN3cpr12MultiPerform13SetHttpMethodENS0_10HttpMethodE
	movq	16(%rbp), %rax
	movq	%rax, %rcx
	call	_ZN3cpr12MultiPerform15PrepareSessionsEv
	nop
	addq	$32, %rsp
	popq	%rbp
	ret
	.seh_endproc
	.align 2
	.globl	_ZN3cpr12MultiPerform14PrepareOptionsEv
	.def	_ZN3cpr12MultiPerform14PrepareOptionsEv;	.scl	2;	.type	32;	.endef
	.seh_proc	_ZN3cpr12MultiPerform14PrepareOptionsEv
_ZN3cpr12MultiPerform14PrepareOptionsEv:
.LFB13276:
	pushq	%rbp
	.seh_pushreg	%rbp
	movq	%rsp, %rbp
	.seh_setframe	%rbp, 0
	subq	$32, %rsp
	.seh_stackalloc	32
	.seh_endprologue
	movq	%rcx, 16(%rbp)
	movq	16(%rbp), %rax
	movl	$7, %edx
	movq	%rax, %rcx
	call	_ZN3cpr12MultiPerform13SetHttpMethodENS0_10HttpMethodE
	movq	16(%rbp), %rax
	movq	%rax, %rcx
	call	_ZN3cpr12MultiPerform15PrepareSessionsEv
	nop
	addq	$32, %rsp
	popq	%rbp
	ret
	.seh_endproc
	.align 2
	.globl	_ZN3cpr12MultiPerform11PreparePostEv
	.def	_ZN3cpr12MultiPerform11PreparePostEv;	.scl	2;	.type	32;	.endef
	.seh_proc	_ZN3cpr12MultiPerform11PreparePostEv
_ZN3cpr12MultiPerform11PreparePostEv:
.LFB13277:
	pushq	%rbp
	.seh_pushreg	%rbp
	movq	%rsp, %rbp
	.seh_setframe	%rbp, 0
	subq	$32, %rsp
	.seh_stackalloc	32
	.seh_endprologue
	movq	%rcx, 16(%rbp)
	movq	16(%rbp), %rax
	movl	$2, %edx
	movq	%rax, %rcx
	call	_ZN3cpr12MultiPerform13SetHttpMethodENS0_10HttpMethodE
	movq	16(%rbp), %rax
	movq	%rax, %rcx
	call	_ZN3cpr12MultiPerform15PrepareSessionsEv
	nop
	addq	$32, %rsp
	popq	%rbp
	ret
	.seh_endproc
	.align 2
	.globl	_ZN3cpr12MultiPerform3GetEv
	.def	_ZN3cpr12MultiPerform3GetEv;	.scl	2;	.type	32;	.endef
	.seh_proc	_ZN3cpr12MultiPerform3GetEv
_ZN3cpr12MultiPerform3GetEv:
.LFB13278:
	pushq	%rbp
	.seh_pushreg	%rbp
	movq	%rsp, %rbp
	.seh_setframe	%rbp, 0
	subq	$32, %rsp
	.seh_stackalloc	32
	.seh_endprologue
	movq	%rcx, 16(%rbp)
	movq	%rdx, 24(%rbp)
	movq	24(%rbp), %rax
	movq	%rax, %rcx
	call	_ZN3cpr12MultiPerform10PrepareGetEv
	movq	16(%rbp), %rax
	movq	24(%rbp), %rdx
	movq	%rax, %rcx
	call	_ZN3cpr12MultiPerform11MakeRequestEv
	movq	16(%rbp), %rax
	addq	$32, %rsp
	popq	%rbp
	ret
	.seh_endproc
	.align 2
	.globl	_ZN3cpr12MultiPerform6DeleteEv
	.def	_ZN3cpr12MultiPerform6DeleteEv;	.scl	2;	.type	32;	.endef
	.seh_proc	_ZN3cpr12MultiPerform6DeleteEv
_ZN3cpr12MultiPerform6DeleteEv:
.LFB13279:
	pushq	%rbp
	.seh_pushreg	%rbp
	movq	%rsp, %rbp
	.seh_setframe	%rbp, 0
	subq	$32, %rsp
	.seh_stackalloc	32
	.seh_endprologue
	movq	%rcx, 16(%rbp)
	movq	%rdx, 24(%rbp)
	movq	24(%rbp), %rax
	movq	%rax, %rcx
	call	_ZN3cpr12MultiPerform13PrepareDeleteEv
	movq	16(%rbp), %rax
	movq	24(%rbp), %rdx
	movq	%rax, %rcx
	call	_ZN3cpr12MultiPerform11MakeRequestEv
	movq	16(%rbp), %rax
	addq	$32, %rsp
	popq	%rbp
	ret
	.seh_endproc
	.align 2
	.globl	_ZN3cpr12MultiPerform3PutEv
	.def	_ZN3cpr12MultiPerform3PutEv;	.scl	2;	.type	32;	.endef
	.seh_proc	_ZN3cpr12MultiPerform3PutEv
_ZN3cpr12MultiPerform3PutEv:
.LFB13280:
	pushq	%rbp
	.seh_pushreg	%rbp
	movq	%rsp, %rbp
	.seh_setframe	%rbp, 0
	subq	$32, %rsp
	.seh_stackalloc	32
	.seh_endprologue
	movq	%rcx, 16(%rbp)
	movq	%rdx, 24(%rbp)
	movq	24(%rbp), %rax
	movq	%rax, %rcx
	call	_ZN3cpr12MultiPerform10PreparePutEv
	movq	16(%rbp), %rax
	movq	24(%rbp), %rdx
	movq	%rax, %rcx
	call	_ZN3cpr12MultiPerform11MakeRequestEv
	movq	16(%rbp), %rax
	addq	$32, %rsp
	popq	%rbp
	ret
	.seh_endproc
	.align 2
	.globl	_ZN3cpr12MultiPerform4HeadEv
	.def	_ZN3cpr12MultiPerform4HeadEv;	.scl	2;	.type	32;	.endef
	.seh_proc	_ZN3cpr12MultiPerform4HeadEv
_ZN3cpr12MultiPerform4HeadEv:
.LFB13281:
	pushq	%rbp
	.seh_pushreg	%rbp
	movq	%rsp, %rbp
	.seh_setframe	%rbp, 0
	subq	$32, %rsp
	.seh_stackalloc	32
	.seh_endprologue
	movq	%rcx, 16(%rbp)
	movq	%rdx, 24(%rbp)
	movq	24(%rbp), %rax
	movq	%rax, %rcx
	call	_ZN3cpr12MultiPerform11PrepareHeadEv
	movq	16(%rbp), %rax
	movq	24(%rbp), %rdx
	movq	%rax, %rcx
	call	_ZN3cpr12MultiPerform11MakeRequestEv
	movq	16(%rbp), %rax
	addq	$32, %rsp
	popq	%rbp
	ret
	.seh_endproc
	.align 2
	.globl	_ZN3cpr12MultiPerform7OptionsEv
	.def	_ZN3cpr12MultiPerform7OptionsEv;	.scl	2;	.type	32;	.endef
	.seh_proc	_ZN3cpr12MultiPerform7OptionsEv
_ZN3cpr12MultiPerform7OptionsEv:
.LFB13282:
	pushq	%rbp
	.seh_pushreg	%rbp
	movq	%rsp, %rbp
	.seh_setframe	%rbp, 0
	subq	$32, %rsp
	.seh_stackalloc	32
	.seh_endprologue
	movq	%rcx, 16(%rbp)
	movq	%rdx, 24(%rbp)
	movq	24(%rbp), %rax
	movq	%rax, %rcx
	call	_ZN3cpr12MultiPerform14PrepareOptionsEv
	movq	16(%rbp), %rax
	movq	24(%rbp), %rdx
	movq	%rax, %rcx
	call	_ZN3cpr12MultiPerform11MakeRequestEv
	movq	16(%rbp), %rax
	addq	$32, %rsp
	popq	%rbp
	ret
	.seh_endproc
	.align 2
	.globl	_ZN3cpr12MultiPerform5PatchEv
	.def	_ZN3cpr12MultiPerform5PatchEv;	.scl	2;	.type	32;	.endef
	.seh_proc	_ZN3cpr12MultiPerform5PatchEv
_ZN3cpr12MultiPerform5PatchEv:
.LFB13283:
	pushq	%rbp
	.seh_pushreg	%rbp
	movq	%rsp, %rbp
	.seh_setframe	%rbp, 0
	subq	$32, %rsp
	.seh_stackalloc	32
	.seh_endprologue
	movq	%rcx, 16(%rbp)
	movq	%rdx, 24(%rbp)
	movq	24(%rbp), %rax
	movq	%rax, %rcx
	call	_ZN3cpr12MultiPerform12PreparePatchEv
	movq	16(%rbp), %rax
	movq	24(%rbp), %rdx
	movq	%rax, %rcx
	call	_ZN3cpr12MultiPerform11MakeRequestEv
	movq	16(%rbp), %rax
	addq	$32, %rsp
	popq	%rbp
	ret
	.seh_endproc
	.align 2
	.globl	_ZN3cpr12MultiPerform4PostEv
	.def	_ZN3cpr12MultiPerform4PostEv;	.scl	2;	.type	32;	.endef
	.seh_proc	_ZN3cpr12MultiPerform4PostEv
_ZN3cpr12MultiPerform4PostEv:
.LFB13284:
	pushq	%rbp
	.seh_pushreg	%rbp
	movq	%rsp, %rbp
	.seh_setframe	%rbp, 0
	subq	$32, %rsp
	.seh_stackalloc	32
	.seh_endprologue
	movq	%rcx, 16(%rbp)
	movq	%rdx, 24(%rbp)
	movq	24(%rbp), %rax
	movq	%rax, %rcx
	call	_ZN3cpr12MultiPerform11PreparePostEv
	movq	16(%rbp), %rax
	movq	24(%rbp), %rdx
	movq	%rax, %rcx
	call	_ZN3cpr12MultiPerform11MakeRequestEv
	movq	16(%rbp), %rax
	addq	$32, %rsp
	popq	%rbp
	ret
	.seh_endproc
	.align 2
	.globl	_ZN3cpr12MultiPerform7PerformEv
	.def	_ZN3cpr12MultiPerform7PerformEv;	.scl	2;	.type	32;	.endef
	.seh_proc	_ZN3cpr12MultiPerform7PerformEv
_ZN3cpr12MultiPerform7PerformEv:
.LFB13285:
	pushq	%rbp
	.seh_pushreg	%rbp
	movq	%rsp, %rbp
	.seh_setframe	%rbp, 0
	subq	$32, %rsp
	.seh_stackalloc	32
	.seh_endprologue
	movq	%rcx, 16(%rbp)
	movq	%rdx, 24(%rbp)
	movq	24(%rbp), %rax
	movq	%rax, %rcx
	call	_ZN3cpr12MultiPerform15PrepareSessionsEv
	movq	16(%rbp), %rax
	movq	24(%rbp), %rdx
	movq	%rax, %rcx
	call	_ZN3cpr12MultiPerform11MakeRequestEv
	movq	16(%rbp), %rax
	addq	$32, %rsp
	popq	%rbp
	ret
	.seh_endproc
	.section .rdata,"dr"
	.align 8
.LC9:
	.ascii "Failed to proceed with session: Cannot mix download and non-download methods!\0"
	.text
	.align 2
	.globl	_ZN3cpr12MultiPerform7proceedEv
	.def	_ZN3cpr12MultiPerform7proceedEv;	.scl	2;	.type	32;	.endef
	.seh_proc	_ZN3cpr12MultiPerform7proceedEv
_ZN3cpr12MultiPerform7proceedEv:
.LFB13286:
	pushq	%rbp
	.seh_pushreg	%rbp
	pushq	%rsi
	.seh_pushreg	%rsi
	pushq	%rbx
	.seh_pushreg	%rbx
	subq	$80, %rsp
	.seh_stackalloc	80
	leaq	80(%rsp), %rbp
	.seh_setframe	%rbp, 80
	.seh_endprologue
	movq	%rcx, 32(%rbp)
	movq	%rdx, 40(%rbp)
	movq	40(%rbp), %rax
	movq	%rax, %rcx
	call	_ZNKSt6vectorISt4pairISt10shared_ptrIN3cpr7SessionEENS2_12MultiPerform10HttpMethodEESaIS7_EE5emptyEv
	xorl	$1, %eax
	testb	%al, %al
	je	.L257
	movq	40(%rbp), %rax
	movq	%rax, %rcx
	call	_ZNSt6vectorISt4pairISt10shared_ptrIN3cpr7SessionEENS2_12MultiPerform10HttpMethodEESaIS7_EE5frontEv
	movl	16(%rax), %eax
	cmpl	$8, %eax
	sete	%al
	movb	%al, -1(%rbp)
	movq	40(%rbp), %rax
	movq	%rax, -16(%rbp)
	movq	-16(%rbp), %rax
	movq	%rax, %rcx
	call	_ZNSt6vectorISt4pairISt10shared_ptrIN3cpr7SessionEENS2_12MultiPerform10HttpMethodEESaIS7_EE5beginEv
	movq	%rax, -40(%rbp)
	movq	-16(%rbp), %rax
	movq	%rax, %rcx
	call	_ZNSt6vectorISt4pairISt10shared_ptrIN3cpr7SessionEENS2_12MultiPerform10HttpMethodEESaIS7_EE3endEv
	movq	%rax, -48(%rbp)
	jmp	.L258
.L262:
	leaq	-40(%rbp), %rax
	movq	%rax, %rcx
	call	_ZNK9__gnu_cxx17__normal_iteratorIPSt4pairISt10shared_ptrIN3cpr7SessionEENS3_12MultiPerform10HttpMethodEESt6vectorIS8_SaIS8_EEEdeEv
	movq	%rax, -24(%rbp)
	movq	-24(%rbp), %rax
	movl	16(%rax), %eax
	movl	%eax, -28(%rbp)
	cmpb	$0, -1(%rbp)
	je	.L259
	cmpl	$8, -28(%rbp)
	jne	.L260
.L259:
	movzbl	-1(%rbp), %eax
	xorl	$1, %eax
	testb	%al, %al
	je	.L261
	cmpl	$8, -28(%rbp)
	jne	.L261
.L260:
	movl	$16, %ecx
	call	__cxa_allocate_exception
	movq	%rax, %rbx
	leaq	.LC9(%rip), %rax
	movq	%rax, %rdx
	movq	%rbx, %rcx
.LEHB41:
	call	_ZNSt16invalid_argumentC1EPKc
.LEHE41:
	movq	.refptr._ZNSt16invalid_argumentD1Ev(%rip), %r8
	leaq	_ZTISt16invalid_argument(%rip), %rax
	movq	%rax, %rdx
	movq	%rbx, %rcx
.LEHB42:
	call	__cxa_throw
.L261:
	leaq	-40(%rbp), %rax
	movq	%rax, %rcx
	call	_ZN9__gnu_cxx17__normal_iteratorIPSt4pairISt10shared_ptrIN3cpr7SessionEENS3_12MultiPerform10HttpMethodEESt6vectorIS8_SaIS8_EEEppEv
.L258:
	leaq	-48(%rbp), %rdx
	leaq	-40(%rbp), %rax
	movq	%rax, %rcx
	call	_ZN9__gnu_cxxneIPSt4pairISt10shared_ptrIN3cpr7SessionEENS3_12MultiPerform10HttpMethodEESt6vectorIS8_SaIS8_EEEEbRKNS_17__normal_iteratorIT_T0_EESI_
	testb	%al, %al
	jne	.L262
	movq	40(%rbp), %rax
	movzbl	-1(%rbp), %edx
	movb	%dl, 32(%rax)
.L257:
	movq	40(%rbp), %rax
	movq	%rax, %rcx
	call	_ZN3cpr12MultiPerform15PrepareSessionsEv
	movq	32(%rbp), %rax
	movq	40(%rbp), %rdx
	movq	%rax, %rcx
	call	_ZN3cpr12MultiPerform11MakeRequestEv
	jmp	.L266
.L265:
	movq	%rax, %rsi
	movq	%rbx, %rcx
	call	__cxa_free_exception
	movq	%rsi, %rax
	movq	%rax, %rcx
	call	_Unwind_Resume
.LEHE42:
.L266:
	movq	32(%rbp), %rax
	addq	$80, %rsp
	popq	%rbx
	popq	%rsi
	popq	%rbp
	ret
	.seh_handler	__gxx_personality_seh0, @unwind, @except
	.seh_handlerdata
.LLSDA13286:
	.byte	0xff
	.byte	0xff
	.byte	0x1
	.uleb128 .LLSDACSE13286-.LLSDACSB13286
.LLSDACSB13286:
	.uleb128 .LEHB41-.LFB13286
	.uleb128 .LEHE41-.LEHB41
	.uleb128 .L265-.LFB13286
	.uleb128 0
	.uleb128 .LEHB42-.LFB13286
	.uleb128 .LEHE42-.LEHB42
	.uleb128 0
	.uleb128 0
.LLSDACSE13286:
	.text
	.seh_endproc
	.section	.text$_ZNSt12__shared_ptrIN3cpr16InterceptorMultiELN9__gnu_cxx12_Lock_policyE2EEC2ERKS4_,"x"
	.linkonce discard
	.align 2
	.globl	_ZNSt12__shared_ptrIN3cpr16InterceptorMultiELN9__gnu_cxx12_Lock_policyE2EEC2ERKS4_
	.def	_ZNSt12__shared_ptrIN3cpr16InterceptorMultiELN9__gnu_cxx12_Lock_policyE2EEC2ERKS4_;	.scl	2;	.type	32;	.endef
	.seh_proc	_ZNSt12__shared_ptrIN3cpr16InterceptorMultiELN9__gnu_cxx12_Lock_policyE2EEC2ERKS4_
_ZNSt12__shared_ptrIN3cpr16InterceptorMultiELN9__gnu_cxx12_Lock_policyE2EEC2ERKS4_:
.LFB13291:
	pushq	%rbp
	.seh_pushreg	%rbp
	movq	%rsp, %rbp
	.seh_setframe	%rbp, 0
	subq	$32, %rsp
	.seh_stackalloc	32
	.seh_endprologue
	movq	%rcx, 16(%rbp)
	movq	%rdx, 24(%rbp)
	movq	24(%rbp), %rax
	movq	(%rax), %rdx
	movq	16(%rbp), %rax
	movq	%rdx, (%rax)
	movq	16(%rbp), %rax
	addq	$8, %rax
	movq	24(%rbp), %rdx
	addq	$8, %rdx
	movq	%rax, %rcx
	call	_ZNSt14__shared_countILN9__gnu_cxx12_Lock_policyE2EEC1ERKS2_
	nop
	addq	$32, %rsp
	popq	%rbp
	ret
	.seh_endproc
	.section	.text$_ZNSt12__shared_ptrIN3cpr16InterceptorMultiELN9__gnu_cxx12_Lock_policyE2EED2Ev,"x"
	.linkonce discard
	.align 2
	.globl	_ZNSt12__shared_ptrIN3cpr16InterceptorMultiELN9__gnu_cxx12_Lock_policyE2EED2Ev
	.def	_ZNSt12__shared_ptrIN3cpr16InterceptorMultiELN9__gnu_cxx12_Lock_policyE2EED2Ev;	.scl	2;	.type	32;	.endef
	.seh_proc	_ZNSt12__shared_ptrIN3cpr16InterceptorMultiELN9__gnu_cxx12_Lock_policyE2EED2Ev
_ZNSt12__shared_ptrIN3cpr16InterceptorMultiELN9__gnu_cxx12_Lock_policyE2EED2Ev:
.LFB13294:
	pushq	%rbp
	.seh_pushreg	%rbp
	movq	%rsp, %rbp
	.seh_setframe	%rbp, 0
	subq	$32, %rsp
	.seh_stackalloc	32
	.seh_endprologue
	movq	%rcx, 16(%rbp)
	movq	16(%rbp), %rax
	addq	$8, %rax
	movq	%rax, %rcx
	call	_ZNSt14__shared_countILN9__gnu_cxx12_Lock_policyE2EED1Ev
	nop
	addq	$32, %rsp
	popq	%rbp
	ret
	.seh_endproc
	.section	.text$_ZNSt10shared_ptrIN3cpr16InterceptorMultiEEC1ERKS2_,"x"
	.linkonce discard
	.align 2
	.globl	_ZNSt10shared_ptrIN3cpr16InterceptorMultiEEC1ERKS2_
	.def	_ZNSt10shared_ptrIN3cpr16InterceptorMultiEEC1ERKS2_;	.scl	2;	.type	32;	.endef
	.seh_proc	_ZNSt10shared_ptrIN3cpr16InterceptorMultiEEC1ERKS2_
_ZNSt10shared_ptrIN3cpr16InterceptorMultiEEC1ERKS2_:
.LFB13297:
	pushq	%rbp
	.seh_pushreg	%rbp
	movq	%rsp, %rbp
	.seh_setframe	%rbp, 0
	subq	$32, %rsp
	.seh_stackalloc	32
	.seh_endprologue
	movq	%rcx, 16(%rbp)
	movq	%rdx, 24(%rbp)
	movq	16(%rbp), %rax
	movq	24(%rbp), %rdx
	movq	%rax, %rcx
	call	_ZNSt12__shared_ptrIN3cpr16InterceptorMultiELN9__gnu_cxx12_Lock_policyE2EEC2ERKS4_
	nop
	addq	$32, %rsp
	popq	%rbp
	ret
	.seh_endproc
	.section	.text$_ZNSt10shared_ptrIN3cpr16InterceptorMultiEED1Ev,"x"
	.linkonce discard
	.align 2
	.globl	_ZNSt10shared_ptrIN3cpr16InterceptorMultiEED1Ev
	.def	_ZNSt10shared_ptrIN3cpr16InterceptorMultiEED1Ev;	.scl	2;	.type	32;	.endef
	.seh_proc	_ZNSt10shared_ptrIN3cpr16InterceptorMultiEED1Ev
_ZNSt10shared_ptrIN3cpr16InterceptorMultiEED1Ev:
.LFB13300:
	pushq	%rbp
	.seh_pushreg	%rbp
	movq	%rsp, %rbp
	.seh_setframe	%rbp, 0
	subq	$32, %rsp
	.seh_stackalloc	32
	.seh_endprologue
	movq	%rcx, 16(%rbp)
	movq	16(%rbp), %rax
	movq	%rax, %rcx
	call	_ZNSt12__shared_ptrIN3cpr16InterceptorMultiELN9__gnu_cxx12_Lock_policyE2EED2Ev
	nop
	addq	$32, %rsp
	popq	%rbp
	ret
	.seh_endproc
	.text
	.align 2
	.globl	_ZN3cpr12MultiPerform9interceptEv
	.def	_ZN3cpr12MultiPerform9interceptEv;	.scl	2;	.type	32;	.endef
	.seh_proc	_ZN3cpr12MultiPerform9interceptEv
_ZN3cpr12MultiPerform9interceptEv:
.LFB13287:
	pushq	%rbp
	.seh_pushreg	%rbp
	pushq	%rbx
	.seh_pushreg	%rbx
	subq	$56, %rsp
	.seh_stackalloc	56
	leaq	48(%rsp), %rbp
	.seh_setframe	%rbp, 48
	.seh_endprologue
	movq	%rcx, 32(%rbp)
	movq	%rdx, 40(%rbp)
	movq	40(%rbp), %rax
	addq	$40, %rax
	movq	%rax, %rcx
	call	_ZNSt5queueISt10shared_ptrIN3cpr16InterceptorMultiEESt5dequeIS3_SaIS3_EEE5frontEv
	movq	%rax, %rdx
	leaq	-16(%rbp), %rax
	movq	%rax, %rcx
	call	_ZNSt10shared_ptrIN3cpr16InterceptorMultiEEC1ERKS2_
	movq	40(%rbp), %rax
	addq	$40, %rax
	movq	%rax, %rcx
	call	_ZNSt5queueISt10shared_ptrIN3cpr16InterceptorMultiEESt5dequeIS3_SaIS3_EEE3popEv
	leaq	-16(%rbp), %rax
	movq	%rax, %rcx
	call	_ZNKSt19__shared_ptr_accessIN3cpr16InterceptorMultiELN9__gnu_cxx12_Lock_policyE2ELb0ELb0EEptEv
	movq	(%rax), %rdx
	addq	$16, %rdx
	movq	(%rdx), %r9
	movq	32(%rbp), %rcx
	movq	40(%rbp), %rdx
	movq	%rdx, %r8
	movq	%rax, %rdx
.LEHB43:
	call	*%r9
.LEHE43:
	nop
	leaq	-16(%rbp), %rax
	movq	%rax, %rcx
	call	_ZNSt10shared_ptrIN3cpr16InterceptorMultiEED1Ev
	jmp	.L275
.L274:
	movq	%rax, %rbx
	leaq	-16(%rbp), %rax
	movq	%rax, %rcx
	call	_ZNSt10shared_ptrIN3cpr16InterceptorMultiEED1Ev
	movq	%rbx, %rax
	movq	%rax, %rcx
.LEHB44:
	call	_Unwind_Resume
.LEHE44:
.L275:
	movq	32(%rbp), %rax
	addq	$56, %rsp
	popq	%rbx
	popq	%rbp
	ret
	.seh_handler	__gxx_personality_seh0, @unwind, @except
	.seh_handlerdata
.LLSDA13287:
	.byte	0xff
	.byte	0xff
	.byte	0x1
	.uleb128 .LLSDACSE13287-.LLSDACSB13287
.LLSDACSB13287:
	.uleb128 .LEHB43-.LFB13287
	.uleb128 .LEHE43-.LEHB43
	.uleb128 .L274-.LFB13287
	.uleb128 0
	.uleb128 .LEHB44-.LFB13287
	.uleb128 .LEHE44-.LEHB44
	.uleb128 0
	.uleb128 0
.LLSDACSE13287:
	.text
	.seh_endproc
	.align 2
	.globl	_ZN3cpr12MultiPerform14AddInterceptorERKSt10shared_ptrINS_16InterceptorMultiEE
	.def	_ZN3cpr12MultiPerform14AddInterceptorERKSt10shared_ptrINS_16InterceptorMultiEE;	.scl	2;	.type	32;	.endef
	.seh_proc	_ZN3cpr12MultiPerform14AddInterceptorERKSt10shared_ptrINS_16InterceptorMultiEE
_ZN3cpr12MultiPerform14AddInterceptorERKSt10shared_ptrINS_16InterceptorMultiEE:
.LFB13301:
	pushq	%rbp
	.seh_pushreg	%rbp
	movq	%rsp, %rbp
	.seh_setframe	%rbp, 0
	subq	$32, %rsp
	.seh_stackalloc	32
	.seh_endprologue
	movq	%rcx, 16(%rbp)
	movq	%rdx, 24(%rbp)
	movq	16(%rbp), %rax
	leaq	40(%rax), %rcx
	movq	24(%rbp), %rax
	movq	%rax, %rdx
	call	_ZNSt5queueISt10shared_ptrIN3cpr16InterceptorMultiEESt5dequeIS3_SaIS3_EEE4pushERKS3_
	nop
	addq	$32, %rsp
	popq	%rbp
	ret
	.seh_endproc
	.section	.text$_ZNSt16_Sp_counted_baseILN9__gnu_cxx12_Lock_policyE2EE24_M_release_last_use_coldEv,"x"
	.linkonce discard
	.align 2
	.globl	_ZNSt16_Sp_counted_baseILN9__gnu_cxx12_Lock_policyE2EE24_M_release_last_use_coldEv
	.def	_ZNSt16_Sp_counted_baseILN9__gnu_cxx12_Lock_policyE2EE24_M_release_last_use_coldEv;	.scl	2;	.type	32;	.endef
	.seh_proc	_ZNSt16_Sp_counted_baseILN9__gnu_cxx12_Lock_policyE2EE24_M_release_last_use_coldEv
_ZNSt16_Sp_counted_baseILN9__gnu_cxx12_Lock_policyE2EE24_M_release_last_use_coldEv:
.LFB13308:
	pushq	%rbp
	.seh_pushreg	%rbp
	movq	%rsp, %rbp
	.seh_setframe	%rbp, 0
	subq	$32, %rsp
	.seh_stackalloc	32
	.seh_endprologue
	movq	%rcx, 16(%rbp)
	movq	16(%rbp), %rax
	movq	%rax, %rcx
	call	_ZNSt16_Sp_counted_baseILN9__gnu_cxx12_Lock_policyE2EE19_M_release_last_useEv
	nop
	addq	$32, %rsp
	popq	%rbp
	ret
	.seh_endproc
	.section	.text$_ZN9__gnu_cxx11char_traitsIcE6lengthEPKc,"x"
	.linkonce discard
	.align 2
	.globl	_ZN9__gnu_cxx11char_traitsIcE6lengthEPKc
	.def	_ZN9__gnu_cxx11char_traitsIcE6lengthEPKc;	.scl	2;	.type	32;	.endef
	.seh_proc	_ZN9__gnu_cxx11char_traitsIcE6lengthEPKc
_ZN9__gnu_cxx11char_traitsIcE6lengthEPKc:
.LFB13309:
	pushq	%rbp
	.seh_pushreg	%rbp
	movq	%rsp, %rbp
	.seh_setframe	%rbp, 0
	subq	$48, %rsp
	.seh_stackalloc	48
	.seh_endprologue
	movq	%rcx, 16(%rbp)
	movq	$0, -8(%rbp)
	jmp	.L279
.L280:
	addq	$1, -8(%rbp)
.L279:
	movb	$0, -9(%rbp)
	movq	16(%rbp), %rdx
	movq	-8(%rbp), %rax
	leaq	(%rdx,%rax), %rcx
	leaq	-9(%rbp), %rax
	movq	%rax, %rdx
	call	_ZN9__gnu_cxx11char_traitsIcE2eqERKcS3_
	xorl	$1, %eax
	testb	%al, %al
	jne	.L280
	movq	-8(%rbp), %rax
	addq	$48, %rsp
	popq	%rbp
	ret
	.seh_endproc
	.section	.text$_ZNSt7__cxx1112basic_stringIcSt11char_traitsIcESaIcEE12_Alloc_hiderD1Ev,"x"
	.linkonce discard
	.align 2
	.globl	_ZNSt7__cxx1112basic_stringIcSt11char_traitsIcESaIcEE12_Alloc_hiderD1Ev
	.def	_ZNSt7__cxx1112basic_stringIcSt11char_traitsIcESaIcEE12_Alloc_hiderD1Ev;	.scl	2;	.type	32;	.endef
	.seh_proc	_ZNSt7__cxx1112basic_stringIcSt11char_traitsIcESaIcEE12_Alloc_hiderD1Ev
_ZNSt7__cxx1112basic_stringIcSt11char_traitsIcESaIcEE12_Alloc_hiderD1Ev:
.LFB13406:
	pushq	%rbp
	.seh_pushreg	%rbp
	movq	%rsp, %rbp
	.seh_setframe	%rbp, 0
	subq	$48, %rsp
	.seh_stackalloc	48
	.seh_endprologue
	movq	%rcx, 16(%rbp)
	movq	16(%rbp), %rax
	movq	%rax, -8(%rbp)
	movq	-8(%rbp), %rax
	movq	%rax, %rcx
	call	_ZNSt15__new_allocatorIcED2Ev
	nop
	nop
	addq	$48, %rsp
	popq	%rbp
	ret
	.seh_endproc
	.section	.text$_ZNSt12_Vector_baseIN3cpr6CookieESaIS1_EED2Ev,"x"
	.linkonce discard
	.align 2
	.globl	_ZNSt12_Vector_baseIN3cpr6CookieESaIS1_EED2Ev
	.def	_ZNSt12_Vector_baseIN3cpr6CookieESaIS1_EED2Ev;	.scl	2;	.type	32;	.endef
	.seh_proc	_ZNSt12_Vector_baseIN3cpr6CookieESaIS1_EED2Ev
_ZNSt12_Vector_baseIN3cpr6CookieESaIS1_EED2Ev:
.LFB13632:
	pushq	%rbp
	.seh_pushreg	%rbp
	movq	%rsp, %rbp
	.seh_setframe	%rbp, 0
	subq	$32, %rsp
	.seh_stackalloc	32
	.seh_endprologue
	movq	%rcx, 16(%rbp)
	movq	16(%rbp), %rax
	movq	16(%rax), %rdx
	movq	16(%rbp), %rax
	movq	(%rax), %rax
	subq	%rax, %rdx
	sarq	$3, %rdx
	movabsq	$-8737931403336103397, %rax
	imulq	%rdx, %rax
	movq	%rax, %rcx
	movq	16(%rbp), %rax
	movq	(%rax), %rdx
	movq	16(%rbp), %rax
	movq	%rcx, %r8
	movq	%rax, %rcx
	call	_ZNSt12_Vector_baseIN3cpr6CookieESaIS1_EE13_M_deallocateEPS1_y
	movq	16(%rbp), %rax
	movq	%rax, %rcx
	call	_ZNSt12_Vector_baseIN3cpr6CookieESaIS1_EE12_Vector_implD1Ev
	nop
	addq	$32, %rsp
	popq	%rbp
	ret
	.seh_handler	__gxx_personality_seh0, @unwind, @except
	.seh_handlerdata
.LLSDA13632:
	.byte	0xff
	.byte	0xff
	.byte	0x1
	.uleb128 .LLSDACSE13632-.LLSDACSB13632
.LLSDACSB13632:
.LLSDACSE13632:
	.section	.text$_ZNSt12_Vector_baseIN3cpr6CookieESaIS1_EED2Ev,"x"
	.linkonce discard
	.seh_endproc
	.section	.text$_ZNSt6vectorIN3cpr6CookieESaIS1_EED1Ev,"x"
	.linkonce discard
	.align 2
	.globl	_ZNSt6vectorIN3cpr6CookieESaIS1_EED1Ev
	.def	_ZNSt6vectorIN3cpr6CookieESaIS1_EED1Ev;	.scl	2;	.type	32;	.endef
	.seh_proc	_ZNSt6vectorIN3cpr6CookieESaIS1_EED1Ev
_ZNSt6vectorIN3cpr6CookieESaIS1_EED1Ev:
.LFB13636:
	pushq	%rbp
	.seh_pushreg	%rbp
	movq	%rsp, %rbp
	.seh_setframe	%rbp, 0
	subq	$64, %rsp
	.seh_stackalloc	64
	.seh_endprologue
	movq	%rcx, 16(%rbp)
	movq	16(%rbp), %rax
	movq	%rax, %rcx
	call	_ZNSt12_Vector_baseIN3cpr6CookieESaIS1_EE19_M_get_Tp_allocatorEv
	movq	16(%rbp), %rdx
	movq	8(%rdx), %rdx
	movq	16(%rbp), %rcx
	movq	(%rcx), %rcx
	movq	%rcx, -8(%rbp)
	movq	%rdx, -16(%rbp)
	movq	%rax, -24(%rbp)
	movq	-16(%rbp), %rdx
	movq	-8(%rbp), %rax
	movq	%rax, %rcx
	call	_ZSt8_DestroyIPN3cpr6CookieEEvT_S3_
	nop
	movq	16(%rbp), %rax
	movq	%rax, %rcx
	call	_ZNSt12_Vector_baseIN3cpr6CookieESaIS1_EED2Ev
	nop
	addq	$64, %rsp
	popq	%rbp
	ret
	.seh_handler	__gxx_personality_seh0, @unwind, @except
	.seh_handlerdata
.LLSDA13636:
	.byte	0xff
	.byte	0xff
	.byte	0x1
	.uleb128 .LLSDACSE13636-.LLSDACSB13636
.LLSDACSB13636:
.LLSDACSE13636:
	.section	.text$_ZNSt6vectorIN3cpr6CookieESaIS1_EED1Ev,"x"
	.linkonce discard
	.seh_endproc
	.section .rdata,"dr"
	.align 8
.LC10:
	.ascii "basic_string: construction from null is not valid\0"
	.section	.text$_ZNSt7__cxx1112basic_stringIcSt11char_traitsIcESaIcEEC1IS3_EEPKcRKS3_,"x"
	.linkonce discard
	.align 2
	.globl	_ZNSt7__cxx1112basic_stringIcSt11char_traitsIcESaIcEEC1IS3_EEPKcRKS3_
	.def	_ZNSt7__cxx1112basic_stringIcSt11char_traitsIcESaIcEEC1IS3_EEPKcRKS3_;	.scl	2;	.type	32;	.endef
	.seh_proc	_ZNSt7__cxx1112basic_stringIcSt11char_traitsIcESaIcEEC1IS3_EEPKcRKS3_
_ZNSt7__cxx1112basic_stringIcSt11char_traitsIcESaIcEEC1IS3_EEPKcRKS3_:
.LFB13699:
	pushq	%rbp
	.seh_pushreg	%rbp
	pushq	%rsi
	.seh_pushreg	%rsi
	pushq	%rbx
	.seh_pushreg	%rbx
	subq	$48, %rsp
	.seh_stackalloc	48
	leaq	48(%rsp), %rbp
	.seh_setframe	%rbp, 48
	.seh_endprologue
	movq	%rcx, 32(%rbp)
	movq	%rdx, 40(%rbp)
	movq	%r8, 48(%rbp)
	movq	32(%rbp), %rbx
	movq	32(%rbp), %rax
	movq	%rax, %rcx
	call	_ZNSt7__cxx1112basic_stringIcSt11char_traitsIcESaIcEE13_M_local_dataEv
	movq	48(%rbp), %rdx
	movq	%rdx, %r8
	movq	%rax, %rdx
	movq	%rbx, %rcx
	call	_ZNSt7__cxx1112basic_stringIcSt11char_traitsIcESaIcEE12_Alloc_hiderC1EPcRKS3_
	cmpq	$0, 40(%rbp)
	jne	.L286
	leaq	.LC10(%rip), %rax
	movq	%rax, %rcx
.LEHB45:
	call	_ZSt19__throw_logic_errorPKc
.L286:
	movq	40(%rbp), %rax
	movq	%rax, %rcx
	call	_ZNSt11char_traitsIcE6lengthEPKc
	movq	40(%rbp), %rdx
	addq	%rdx, %rax
	movq	%rax, -8(%rbp)
	movq	-8(%rbp), %rcx
	movq	40(%rbp), %rdx
	movq	32(%rbp), %rax
	movl	%esi, %r9d
	movq	%rcx, %r8
	movq	%rax, %rcx
	call	_ZNSt7__cxx1112basic_stringIcSt11char_traitsIcESaIcEE12_M_constructIPKcEEvT_S8_St20forward_iterator_tag
.LEHE45:
	jmp	.L289
.L288:
	movq	%rax, %rbx
	movq	32(%rbp), %rax
	movq	%rax, %rcx
	call	_ZNSt7__cxx1112basic_stringIcSt11char_traitsIcESaIcEE12_Alloc_hiderD1Ev
	movq	%rbx, %rax
	movq	%rax, %rcx
.LEHB46:
	call	_Unwind_Resume
	nop
.LEHE46:
.L289:
	addq	$48, %rsp
	popq	%rbx
	popq	%rsi
	popq	%rbp
	ret
	.seh_handler	__gxx_personality_seh0, @unwind, @except
	.seh_handlerdata
.LLSDA13699:
	.byte	0xff
	.byte	0xff
	.byte	0x1
	.uleb128 .LLSDACSE13699-.LLSDACSB13699
.LLSDACSB13699:
	.uleb128 .LEHB45-.LFB13699
	.uleb128 .LEHE45-.LEHB45
	.uleb128 .L288-.LFB13699
	.uleb128 0
	.uleb128 .LEHB46-.LFB13699
	.uleb128 .LEHE46-.LEHB46
	.uleb128 0
	.uleb128 0
.LLSDACSE13699:
	.section	.text$_ZNSt7__cxx1112basic_stringIcSt11char_traitsIcESaIcEEC1IS3_EEPKcRKS3_,"x"
	.linkonce discard
	.seh_endproc
	.section	.text$_ZNSt14__shared_countILN9__gnu_cxx12_Lock_policyE2EED1Ev,"x"
	.linkonce discard
	.align 2
	.globl	_ZNSt14__shared_countILN9__gnu_cxx12_Lock_policyE2EED1Ev
	.def	_ZNSt14__shared_countILN9__gnu_cxx12_Lock_policyE2EED1Ev;	.scl	2;	.type	32;	.endef
	.seh_proc	_ZNSt14__shared_countILN9__gnu_cxx12_Lock_policyE2EED1Ev
_ZNSt14__shared_countILN9__gnu_cxx12_Lock_policyE2EED1Ev:
.LFB13729:
	pushq	%rbp
	.seh_pushreg	%rbp
	movq	%rsp, %rbp
	.seh_setframe	%rbp, 0
	subq	$32, %rsp
	.seh_stackalloc	32
	.seh_endprologue
	movq	%rcx, 16(%rbp)
	movq	16(%rbp), %rax
	movq	(%rax), %rax
	testq	%rax, %rax
	je	.L292
	movq	16(%rbp), %rax
	movq	(%rax), %rax
	movq	%rax, %rcx
	call	_ZNSt16_Sp_counted_baseILN9__gnu_cxx12_Lock_policyE2EE10_M_releaseEv
.L292:
	nop
	addq	$32, %rsp
	popq	%rbp
	ret
	.seh_endproc
	.section	.text$_ZNSt14__shared_countILN9__gnu_cxx12_Lock_policyE2EEC1Ev,"x"
	.linkonce discard
	.align 2
	.globl	_ZNSt14__shared_countILN9__gnu_cxx12_Lock_policyE2EEC1Ev
	.def	_ZNSt14__shared_countILN9__gnu_cxx12_Lock_policyE2EEC1Ev;	.scl	2;	.type	32;	.endef
	.seh_proc	_ZNSt14__shared_countILN9__gnu_cxx12_Lock_policyE2EEC1Ev
_ZNSt14__shared_countILN9__gnu_cxx12_Lock_policyE2EEC1Ev:
.LFB13736:
	pushq	%rbp
	.seh_pushreg	%rbp
	movq	%rsp, %rbp
	.seh_setframe	%rbp, 0
	.seh_endprologue
	movq	%rcx, 16(%rbp)
	movq	16(%rbp), %rax
	movq	$0, (%rax)
	nop
	popq	%rbp
	ret
	.seh_endproc
	.section	.text$_ZSt3maxIyERKT_S2_S2_,"x"
	.linkonce discard
	.globl	_ZSt3maxIyERKT_S2_S2_
	.def	_ZSt3maxIyERKT_S2_S2_;	.scl	2;	.type	32;	.endef
	.seh_proc	_ZSt3maxIyERKT_S2_S2_
_ZSt3maxIyERKT_S2_S2_:
.LFB13808:
	pushq	%rbp
	.seh_pushreg	%rbp
	movq	%rsp, %rbp
	.seh_setframe	%rbp, 0
	.seh_endprologue
	movq	%rcx, 16(%rbp)
	movq	%rdx, 24(%rbp)
	movq	16(%rbp), %rax
	movq	(%rax), %rdx
	movq	24(%rbp), %rax
	movq	(%rax), %rax
	cmpq	%rax, %rdx
	jnb	.L295
	movq	24(%rbp), %rax
	jmp	.L296
.L295:
	movq	16(%rbp), %rax
.L296:
	popq	%rbp
	ret
	.seh_endproc
	.section	.text$_ZNSt14_Function_baseC2Ev,"x"
	.linkonce discard
	.align 2
	.globl	_ZNSt14_Function_baseC2Ev
	.def	_ZNSt14_Function_baseC2Ev;	.scl	2;	.type	32;	.endef
	.seh_proc	_ZNSt14_Function_baseC2Ev
_ZNSt14_Function_baseC2Ev:
.LFB13819:
	pushq	%rbp
	.seh_pushreg	%rbp
	movq	%rsp, %rbp
	.seh_setframe	%rbp, 0
	.seh_endprologue
	movq	%rcx, 16(%rbp)
	movq	16(%rbp), %rax
	movq	$0, (%rax)
	movq	$0, 8(%rax)
	movq	16(%rbp), %rax
	movq	$0, 16(%rax)
	nop
	popq	%rbp
	ret
	.seh_endproc
	.section	.text$_ZNSt8_Rb_treeINSt7__cxx1112basic_stringIcSt11char_traitsIcESaIcEEESt4pairIKS5_S5_ESt10_Select1stIS8_EN3cpr22CaseInsensitiveCompareESaIS8_EED1Ev,"x"
	.linkonce discard
	.align 2
	.globl	_ZNSt8_Rb_treeINSt7__cxx1112basic_stringIcSt11char_traitsIcESaIcEEESt4pairIKS5_S5_ESt10_Select1stIS8_EN3cpr22CaseInsensitiveCompareESaIS8_EED1Ev
	.def	_ZNSt8_Rb_treeINSt7__cxx1112basic_stringIcSt11char_traitsIcESaIcEEESt4pairIKS5_S5_ESt10_Select1stIS8_EN3cpr22CaseInsensitiveCompareESaIS8_EED1Ev;	.scl	2;	.type	32;	.endef
	.seh_proc	_ZNSt8_Rb_treeINSt7__cxx1112basic_stringIcSt11char_traitsIcESaIcEEESt4pairIKS5_S5_ESt10_Select1stIS8_EN3cpr22CaseInsensitiveCompareESaIS8_EED1Ev
_ZNSt8_Rb_treeINSt7__cxx1112basic_stringIcSt11char_traitsIcESaIcEEESt4pairIKS5_S5_ESt10_Select1stIS8_EN3cpr22CaseInsensitiveCompareESaIS8_EED1Ev:
.LFB13886:
	pushq	%rbp
	.seh_pushreg	%rbp
	movq	%rsp, %rbp
	.seh_setframe	%rbp, 0
	subq	$32, %rsp
	.seh_stackalloc	32
	.seh_endprologue
	movq	%rcx, 16(%rbp)
	movq	16(%rbp), %rax
	movq	%rax, %rcx
	call	_ZNSt8_Rb_treeINSt7__cxx1112basic_stringIcSt11char_traitsIcESaIcEEESt4pairIKS5_S5_ESt10_Select1stIS8_EN3cpr22CaseInsensitiveCompareESaIS8_EE8_M_beginEv
	movq	%rax, %rdx
	movq	16(%rbp), %rax
	movq	%rax, %rcx
	call	_ZNSt8_Rb_treeINSt7__cxx1112basic_stringIcSt11char_traitsIcESaIcEEESt4pairIKS5_S5_ESt10_Select1stIS8_EN3cpr22CaseInsensitiveCompareESaIS8_EE8_M_eraseEPSt13_Rb_tree_nodeIS8_E
	movq	16(%rbp), %rax
	movq	%rax, %rcx
	call	_ZNSt8_Rb_treeINSt7__cxx1112basic_stringIcSt11char_traitsIcESaIcEEESt4pairIKS5_S5_ESt10_Select1stIS8_EN3cpr22CaseInsensitiveCompareESaIS8_EE13_Rb_tree_implISC_Lb1EED1Ev
	nop
	addq	$32, %rsp
	popq	%rbp
	ret
	.seh_handler	__gxx_personality_seh0, @unwind, @except
	.seh_handlerdata
.LLSDA13886:
	.byte	0xff
	.byte	0xff
	.byte	0x1
	.uleb128 .LLSDACSE13886-.LLSDACSB13886
.LLSDACSB13886:
.LLSDACSE13886:
	.section	.text$_ZNSt8_Rb_treeINSt7__cxx1112basic_stringIcSt11char_traitsIcESaIcEEESt4pairIKS5_S5_ESt10_Select1stIS8_EN3cpr22CaseInsensitiveCompareESaIS8_EED1Ev,"x"
	.linkonce discard
	.seh_endproc
	.section	.text$_ZSt7forwardIN3cpr21AcceptEncodingMethodsEEOT_RNSt16remove_referenceIS2_E4typeE,"x"
	.linkonce discard
	.globl	_ZSt7forwardIN3cpr21AcceptEncodingMethodsEEOT_RNSt16remove_referenceIS2_E4typeE
	.def	_ZSt7forwardIN3cpr21AcceptEncodingMethodsEEOT_RNSt16remove_referenceIS2_E4typeE;	.scl	2;	.type	32;	.endef
	.seh_proc	_ZSt7forwardIN3cpr21AcceptEncodingMethodsEEOT_RNSt16remove_referenceIS2_E4typeE
_ZSt7forwardIN3cpr21AcceptEncodingMethodsEEOT_RNSt16remove_referenceIS2_E4typeE:
.LFB14045:
	pushq	%rbp
	.seh_pushreg	%rbp
	movq	%rsp, %rbp
	.seh_setframe	%rbp, 0
	.seh_endprologue
	movq	%rcx, 16(%rbp)
	movq	16(%rbp), %rax
	popq	%rbp
	ret
	.seh_endproc
	.section	.text$_ZSt7forwardIRA9_KcEOT_RNSt16remove_referenceIS3_E4typeE,"x"
	.linkonce discard
	.globl	_ZSt7forwardIRA9_KcEOT_RNSt16remove_referenceIS3_E4typeE
	.def	_ZSt7forwardIRA9_KcEOT_RNSt16remove_referenceIS3_E4typeE;	.scl	2;	.type	32;	.endef
	.seh_proc	_ZSt7forwardIRA9_KcEOT_RNSt16remove_referenceIS3_E4typeE
_ZSt7forwardIRA9_KcEOT_RNSt16remove_referenceIS3_E4typeE:
.LFB14046:
	pushq	%rbp
	.seh_pushreg	%rbp
	movq	%rsp, %rbp
	.seh_setframe	%rbp, 0
	.seh_endprologue
	movq	%rcx, 16(%rbp)
	movq	16(%rbp), %rax
	popq	%rbp
	ret
	.seh_endproc
	.section	.text$_ZSt7forwardIRA8_KcEOT_RNSt16remove_referenceIS3_E4typeE,"x"
	.linkonce discard
	.globl	_ZSt7forwardIRA8_KcEOT_RNSt16remove_referenceIS3_E4typeE
	.def	_ZSt7forwardIRA8_KcEOT_RNSt16remove_referenceIS3_E4typeE;	.scl	2;	.type	32;	.endef
	.seh_proc	_ZSt7forwardIRA8_KcEOT_RNSt16remove_referenceIS3_E4typeE
_ZSt7forwardIRA8_KcEOT_RNSt16remove_referenceIS3_E4typeE:
.LFB14047:
	pushq	%rbp
	.seh_pushreg	%rbp
	movq	%rsp, %rbp
	.seh_setframe	%rbp, 0
	.seh_endprologue
	movq	%rcx, 16(%rbp)
	movq	16(%rbp), %rax
	popq	%rbp
	ret
	.seh_endproc
	.section	.text$_ZSt7forwardIRA5_KcEOT_RNSt16remove_referenceIS3_E4typeE,"x"
	.linkonce discard
	.globl	_ZSt7forwardIRA5_KcEOT_RNSt16remove_referenceIS3_E4typeE
	.def	_ZSt7forwardIRA5_KcEOT_RNSt16remove_referenceIS3_E4typeE;	.scl	2;	.type	32;	.endef
	.seh_proc	_ZSt7forwardIRA5_KcEOT_RNSt16remove_referenceIS3_E4typeE
_ZSt7forwardIRA5_KcEOT_RNSt16remove_referenceIS3_E4typeE:
.LFB14048:
	pushq	%rbp
	.seh_pushreg	%rbp
	movq	%rsp, %rbp
	.seh_setframe	%rbp, 0
	.seh_endprologue
	movq	%rcx, 16(%rbp)
	movq	16(%rbp), %rax
	popq	%rbp
	ret
	.seh_endproc
	.section	.text$_ZNSt3mapIN3cpr21AcceptEncodingMethodsENSt7__cxx1112basic_stringIcSt11char_traitsIcESaIcEEESt4lessIS1_ESaISt4pairIKS1_S7_EEEC1ESt16initializer_listISC_ERKS9_RKSD_,"x"
	.linkonce discard
	.align 2
	.globl	_ZNSt3mapIN3cpr21AcceptEncodingMethodsENSt7__cxx1112basic_stringIcSt11char_traitsIcESaIcEEESt4lessIS1_ESaISt4pairIKS1_S7_EEEC1ESt16initializer_listISC_ERKS9_RKSD_
	.def	_ZNSt3mapIN3cpr21AcceptEncodingMethodsENSt7__cxx1112basic_stringIcSt11char_traitsIcESaIcEEESt4lessIS1_ESaISt4pairIKS1_S7_EEEC1ESt16initializer_listISC_ERKS9_RKSD_;	.scl	2;	.type	32;	.endef
	.seh_proc	_ZNSt3mapIN3cpr21AcceptEncodingMethodsENSt7__cxx1112basic_stringIcSt11char_traitsIcESaIcEEESt4lessIS1_ESaISt4pairIKS1_S7_EEEC1ESt16initializer_listISC_ERKS9_RKSD_
_ZNSt3mapIN3cpr21AcceptEncodingMethodsENSt7__cxx1112basic_stringIcSt11char_traitsIcESaIcEEESt4lessIS1_ESaISt4pairIKS1_S7_EEEC1ESt16initializer_listISC_ERKS9_RKSD_:
.LFB14057:
	pushq	%rbp
	.seh_pushreg	%rbp
	pushq	%rsi
	.seh_pushreg	%rsi
	pushq	%rbx
	.seh_pushreg	%rbx
	subq	$80, %rsp
	.seh_stackalloc	80
	leaq	80(%rsp), %rbp
	.seh_setframe	%rbp, 80
	.seh_endprologue
	movq	%rcx, 32(%rbp)
	movq	%rdx, %rbx
	movq	(%rbx), %rax
	movq	8(%rbx), %rdx
	movq	%rax, -48(%rbp)
	movq	%rdx, -40(%rbp)
	movq	%r8, 48(%rbp)
	movq	%r9, 56(%rbp)
	movq	32(%rbp), %rax
	movq	56(%rbp), %rdx
	movq	%rdx, -8(%rbp)
	leaq	-25(%rbp), %rdx
	movq	%rdx, -16(%rbp)
	movq	-8(%rbp), %rdx
	movq	%rdx, -24(%rbp)
	nop
	nop
	leaq	-25(%rbp), %rcx
	movq	48(%rbp), %rdx
	movq	%rcx, %r8
	movq	%rax, %rcx
.LEHB47:
	call	_ZNSt8_Rb_treeIN3cpr21AcceptEncodingMethodsESt4pairIKS1_NSt7__cxx1112basic_stringIcSt11char_traitsIcESaIcEEEESt10_Select1stISA_ESt4lessIS1_ESaISA_EEC1ERKSE_RKSF_
.LEHE47:
	leaq	-25(%rbp), %rax
	movq	%rax, %rcx
	call	_ZNSt15__new_allocatorISt4pairIKN3cpr21AcceptEncodingMethodsENSt7__cxx1112basic_stringIcSt11char_traitsIcESaIcEEEEED2Ev
	nop
	movq	32(%rbp), %rbx
	leaq	-48(%rbp), %rax
	movq	%rax, %rcx
	call	_ZNKSt16initializer_listISt4pairIKN3cpr21AcceptEncodingMethodsENSt7__cxx1112basic_stringIcSt11char_traitsIcESaIcEEEEE3endEv
	movq	%rax, %rsi
	leaq	-48(%rbp), %rax
	movq	%rax, %rcx
	call	_ZNKSt16initializer_listISt4pairIKN3cpr21AcceptEncodingMethodsENSt7__cxx1112basic_stringIcSt11char_traitsIcESaIcEEEEE5beginEv
	movq	%rsi, %r8
	movq	%rax, %rdx
	movq	%rbx, %rcx
.LEHB48:
	call	_ZNSt8_Rb_treeIN3cpr21AcceptEncodingMethodsESt4pairIKS1_NSt7__cxx1112basic_stringIcSt11char_traitsIcESaIcEEEESt10_Select1stISA_ESt4lessIS1_ESaISA_EE22_M_insert_range_uniqueIPKSA_EENSt9enable_ifIXsrSt7is_sameISA_NSt15iterator_traitsIT_E10value_typeEE5valueEvE4typeESN_SN_
.LEHE48:
	jmp	.L312
.L310:
	movq	%rax, %rbx
	leaq	-25(%rbp), %rax
	movq	%rax, %rcx
	call	_ZNSt15__new_allocatorISt4pairIKN3cpr21AcceptEncodingMethodsENSt7__cxx1112basic_stringIcSt11char_traitsIcESaIcEEEEED2Ev
	nop
	movq	%rbx, %rax
	movq	%rax, %rcx
.LEHB49:
	call	_Unwind_Resume
.L311:
	movq	%rax, %rbx
	movq	32(%rbp), %rax
	movq	%rax, %rcx
	call	_ZNSt8_Rb_treeIN3cpr21AcceptEncodingMethodsESt4pairIKS1_NSt7__cxx1112basic_stringIcSt11char_traitsIcESaIcEEEESt10_Select1stISA_ESt4lessIS1_ESaISA_EED1Ev
	movq	%rbx, %rax
	movq	%rax, %rcx
	call	_Unwind_Resume
	nop
.LEHE49:
.L312:
	addq	$80, %rsp
	popq	%rbx
	popq	%rsi
	popq	%rbp
	ret
	.seh_handler	__gxx_personality_seh0, @unwind, @except
	.seh_handlerdata
.LLSDA14057:
	.byte	0xff
	.byte	0xff
	.byte	0x1
	.uleb128 .LLSDACSE14057-.LLSDACSB14057
.LLSDACSB14057:
	.uleb128 .LEHB47-.LFB14057
	.uleb128 .LEHE47-.LEHB47
	.uleb128 .L310-.LFB14057
	.uleb128 0
	.uleb128 .LEHB48-.LFB14057
	.uleb128 .LEHE48-.LEHB48
	.uleb128 .L311-.LFB14057
	.uleb128 0
	.uleb128 .LEHB49-.LFB14057
	.uleb128 .LEHE49-.LEHB49
	.uleb128 0
	.uleb128 0
.LLSDACSE14057:
	.section	.text$_ZNSt3mapIN3cpr21AcceptEncodingMethodsENSt7__cxx1112basic_stringIcSt11char_traitsIcESaIcEEESt4lessIS1_ESaISt4pairIKS1_S7_EEEC1ESt16initializer_listISC_ERKS9_RKSD_,"x"
	.linkonce discard
	.seh_endproc
	.section	.text$_ZNSt12_Vector_baseISt4pairISt10shared_ptrIN3cpr7SessionEENS2_12MultiPerform10HttpMethodEESaIS7_EE12_Vector_implC1Ev,"x"
	.linkonce discard
	.align 2
	.globl	_ZNSt12_Vector_baseISt4pairISt10shared_ptrIN3cpr7SessionEENS2_12MultiPerform10HttpMethodEESaIS7_EE12_Vector_implC1Ev
	.def	_ZNSt12_Vector_baseISt4pairISt10shared_ptrIN3cpr7SessionEENS2_12MultiPerform10HttpMethodEESaIS7_EE12_Vector_implC1Ev;	.scl	2;	.type	32;	.endef
	.seh_proc	_ZNSt12_Vector_baseISt4pairISt10shared_ptrIN3cpr7SessionEENS2_12MultiPerform10HttpMethodEESaIS7_EE12_Vector_implC1Ev
_ZNSt12_Vector_baseISt4pairISt10shared_ptrIN3cpr7SessionEENS2_12MultiPerform10HttpMethodEESaIS7_EE12_Vector_implC1Ev:
.LFB14217:
	pushq	%rbp
	.seh_pushreg	%rbp
	movq	%rsp, %rbp
	.seh_setframe	%rbp, 0
	subq	$48, %rsp
	.seh_stackalloc	48
	.seh_endprologue
	movq	%rcx, 16(%rbp)
	movq	16(%rbp), %rax
	movq	%rax, -8(%rbp)
	movq	-8(%rbp), %rax
	movq	%rax, -16(%rbp)
	nop
	nop
	movq	16(%rbp), %rax
	movq	%rax, %rcx
	call	_ZNSt12_Vector_baseISt4pairISt10shared_ptrIN3cpr7SessionEENS2_12MultiPerform10HttpMethodEESaIS7_EE17_Vector_impl_dataC2Ev
	nop
	addq	$48, %rsp
	popq	%rbp
	ret
	.seh_endproc
	.section	.text$_ZNSt12_Vector_baseISt4pairISt10shared_ptrIN3cpr7SessionEENS2_12MultiPerform10HttpMethodEESaIS7_EED2Ev,"x"
	.linkonce discard
	.align 2
	.globl	_ZNSt12_Vector_baseISt4pairISt10shared_ptrIN3cpr7SessionEENS2_12MultiPerform10HttpMethodEESaIS7_EED2Ev
	.def	_ZNSt12_Vector_baseISt4pairISt10shared_ptrIN3cpr7SessionEENS2_12MultiPerform10HttpMethodEESaIS7_EED2Ev;	.scl	2;	.type	32;	.endef
	.seh_proc	_ZNSt12_Vector_baseISt4pairISt10shared_ptrIN3cpr7SessionEENS2_12MultiPerform10HttpMethodEESaIS7_EED2Ev
_ZNSt12_Vector_baseISt4pairISt10shared_ptrIN3cpr7SessionEENS2_12MultiPerform10HttpMethodEESaIS7_EED2Ev:
.LFB14222:
	pushq	%rbp
	.seh_pushreg	%rbp
	movq	%rsp, %rbp
	.seh_setframe	%rbp, 0
	subq	$32, %rsp
	.seh_stackalloc	32
	.seh_endprologue
	movq	%rcx, 16(%rbp)
	movq	16(%rbp), %rax
	movq	16(%rax), %rdx
	movq	16(%rbp), %rax
	movq	(%rax), %rax
	subq	%rax, %rdx
	sarq	$3, %rdx
	movabsq	$-6148914691236517205, %rax
	imulq	%rdx, %rax
	movq	%rax, %rcx
	movq	16(%rbp), %rax
	movq	(%rax), %rdx
	movq	16(%rbp), %rax
	movq	%rcx, %r8
	movq	%rax, %rcx
	call	_ZNSt12_Vector_baseISt4pairISt10shared_ptrIN3cpr7SessionEENS2_12MultiPerform10HttpMethodEESaIS7_EE13_M_deallocateEPS7_y
	movq	16(%rbp), %rax
	movq	%rax, %rcx
	call	_ZNSt12_Vector_baseISt4pairISt10shared_ptrIN3cpr7SessionEENS2_12MultiPerform10HttpMethodEESaIS7_EE12_Vector_implD1Ev
	nop
	addq	$32, %rsp
	popq	%rbp
	ret
	.seh_handler	__gxx_personality_seh0, @unwind, @except
	.seh_handlerdata
.LLSDA14222:
	.byte	0xff
	.byte	0xff
	.byte	0x1
	.uleb128 .LLSDACSE14222-.LLSDACSB14222
.LLSDACSB14222:
.LLSDACSE14222:
	.section	.text$_ZNSt12_Vector_baseISt4pairISt10shared_ptrIN3cpr7SessionEENS2_12MultiPerform10HttpMethodEESaIS7_EED2Ev,"x"
	.linkonce discard
	.seh_endproc
	.section	.text$_ZNSt6vectorISt4pairISt10shared_ptrIN3cpr7SessionEENS2_12MultiPerform10HttpMethodEESaIS7_EED1Ev,"x"
	.linkonce discard
	.align 2
	.globl	_ZNSt6vectorISt4pairISt10shared_ptrIN3cpr7SessionEENS2_12MultiPerform10HttpMethodEESaIS7_EED1Ev
	.def	_ZNSt6vectorISt4pairISt10shared_ptrIN3cpr7SessionEENS2_12MultiPerform10HttpMethodEESaIS7_EED1Ev;	.scl	2;	.type	32;	.endef
	.seh_proc	_ZNSt6vectorISt4pairISt10shared_ptrIN3cpr7SessionEENS2_12MultiPerform10HttpMethodEESaIS7_EED1Ev
_ZNSt6vectorISt4pairISt10shared_ptrIN3cpr7SessionEENS2_12MultiPerform10HttpMethodEESaIS7_EED1Ev:
.LFB14226:
	pushq	%rbp
	.seh_pushreg	%rbp
	movq	%rsp, %rbp
	.seh_setframe	%rbp, 0
	subq	$64, %rsp
	.seh_stackalloc	64
	.seh_endprologue
	movq	%rcx, 16(%rbp)
	movq	16(%rbp), %rax
	movq	%rax, %rcx
	call	_ZNSt12_Vector_baseISt4pairISt10shared_ptrIN3cpr7SessionEENS2_12MultiPerform10HttpMethodEESaIS7_EE19_M_get_Tp_allocatorEv
	movq	16(%rbp), %rdx
	movq	8(%rdx), %rdx
	movq	16(%rbp), %rcx
	movq	(%rcx), %rcx
	movq	%rcx, -8(%rbp)
	movq	%rdx, -16(%rbp)
	movq	%rax, -24(%rbp)
	movq	-16(%rbp), %rdx
	movq	-8(%rbp), %rax
	movq	%rax, %rcx
	call	_ZSt8_DestroyIPSt4pairISt10shared_ptrIN3cpr7SessionEENS2_12MultiPerform10HttpMethodEEEvT_S9_
	nop
	movq	16(%rbp), %rax
	movq	%rax, %rcx
	call	_ZNSt12_Vector_baseISt4pairISt10shared_ptrIN3cpr7SessionEENS2_12MultiPerform10HttpMethodEESaIS7_EED2Ev
	nop
	addq	$64, %rsp
	popq	%rbp
	ret
	.seh_handler	__gxx_personality_seh0, @unwind, @except
	.seh_handlerdata
.LLSDA14226:
	.byte	0xff
	.byte	0xff
	.byte	0x1
	.uleb128 .LLSDACSE14226-.LLSDACSB14226
.LLSDACSB14226:
.LLSDACSE14226:
	.section	.text$_ZNSt6vectorISt4pairISt10shared_ptrIN3cpr7SessionEENS2_12MultiPerform10HttpMethodEESaIS7_EED1Ev,"x"
	.linkonce discard
	.seh_endproc
	.section	.text$_ZNSt15__uniq_ptr_dataIN3cpr15CurlMultiHolderESt14default_deleteIS1_ELb1ELb1EECI1St15__uniq_ptr_implIS1_S3_EEPS1_,"x"
	.linkonce discard
	.align 2
	.globl	_ZNSt15__uniq_ptr_dataIN3cpr15CurlMultiHolderESt14default_deleteIS1_ELb1ELb1EECI1St15__uniq_ptr_implIS1_S3_EEPS1_
	.def	_ZNSt15__uniq_ptr_dataIN3cpr15CurlMultiHolderESt14default_deleteIS1_ELb1ELb1EECI1St15__uniq_ptr_implIS1_S3_EEPS1_;	.scl	2;	.type	32;	.endef
	.seh_proc	_ZNSt15__uniq_ptr_dataIN3cpr15CurlMultiHolderESt14default_deleteIS1_ELb1ELb1EECI1St15__uniq_ptr_implIS1_S3_EEPS1_
_ZNSt15__uniq_ptr_dataIN3cpr15CurlMultiHolderESt14default_deleteIS1_ELb1ELb1EECI1St15__uniq_ptr_implIS1_S3_EEPS1_:
.LFB14230:
	pushq	%rbp
	.seh_pushreg	%rbp
	movq	%rsp, %rbp
	.seh_setframe	%rbp, 0
	subq	$32, %rsp
	.seh_stackalloc	32
	.seh_endprologue
	movq	%rcx, 16(%rbp)
	movq	%rdx, 24(%rbp)
	movq	16(%rbp), %rax
	movq	24(%rbp), %rdx
	movq	%rax, %rcx
	call	_ZNSt15__uniq_ptr_implIN3cpr15CurlMultiHolderESt14default_deleteIS1_EEC2EPS1_
	nop
	addq	$32, %rsp
	popq	%rbp
	ret
	.seh_endproc
	.section	.text$_ZNSt10unique_ptrIN3cpr15CurlMultiHolderESt14default_deleteIS1_EEC1IS3_vEEPS1_,"x"
	.linkonce discard
	.align 2
	.globl	_ZNSt10unique_ptrIN3cpr15CurlMultiHolderESt14default_deleteIS1_EEC1IS3_vEEPS1_
	.def	_ZNSt10unique_ptrIN3cpr15CurlMultiHolderESt14default_deleteIS1_EEC1IS3_vEEPS1_;	.scl	2;	.type	32;	.endef
	.seh_proc	_ZNSt10unique_ptrIN3cpr15CurlMultiHolderESt14default_deleteIS1_EEC1IS3_vEEPS1_
_ZNSt10unique_ptrIN3cpr15CurlMultiHolderESt14default_deleteIS1_EEC1IS3_vEEPS1_:
.LFB14232:
	pushq	%rbp
	.seh_pushreg	%rbp
	movq	%rsp, %rbp
	.seh_setframe	%rbp, 0
	subq	$32, %rsp
	.seh_stackalloc	32
	.seh_endprologue
	movq	%rcx, 16(%rbp)
	movq	%rdx, 24(%rbp)
	movq	16(%rbp), %rax
	movq	24(%rbp), %rdx
	movq	%rax, %rcx
	call	_ZNSt15__uniq_ptr_dataIN3cpr15CurlMultiHolderESt14default_deleteIS1_ELb1ELb1EECI1St15__uniq_ptr_implIS1_S3_EEPS1_
	nop
	addq	$32, %rsp
	popq	%rbp
	ret
	.seh_endproc
	.section	.text$_ZNSt10unique_ptrIN3cpr15CurlMultiHolderESt14default_deleteIS1_EED1Ev,"x"
	.linkonce discard
	.align 2
	.globl	_ZNSt10unique_ptrIN3cpr15CurlMultiHolderESt14default_deleteIS1_EED1Ev
	.def	_ZNSt10unique_ptrIN3cpr15CurlMultiHolderESt14default_deleteIS1_EED1Ev;	.scl	2;	.type	32;	.endef
	.seh_proc	_ZNSt10unique_ptrIN3cpr15CurlMultiHolderESt14default_deleteIS1_EED1Ev
_ZNSt10unique_ptrIN3cpr15CurlMultiHolderESt14default_deleteIS1_EED1Ev:
.LFB14235:
	pushq	%rbp
	.seh_pushreg	%rbp
	pushq	%rbx
	.seh_pushreg	%rbx
	subq	$56, %rsp
	.seh_stackalloc	56
	leaq	48(%rsp), %rbp
	.seh_setframe	%rbp, 48
	.seh_endprologue
	movq	%rcx, 32(%rbp)
	movq	32(%rbp), %rax
	movq	%rax, %rcx
	call	_ZNSt15__uniq_ptr_implIN3cpr15CurlMultiHolderESt14default_deleteIS1_EE6_M_ptrEv
	movq	%rax, -8(%rbp)
	movq	-8(%rbp), %rax
	movq	(%rax), %rax
	testq	%rax, %rax
	je	.L319
	movq	32(%rbp), %rax
	movq	%rax, %rcx
	call	_ZNSt10unique_ptrIN3cpr15CurlMultiHolderESt14default_deleteIS1_EE11get_deleterEv
	movq	%rax, %rbx
	movq	-8(%rbp), %rax
	movq	%rax, %rcx
	call	_ZSt4moveIRPN3cpr15CurlMultiHolderEEONSt16remove_referenceIT_E4typeEOS5_
	movq	(%rax), %rax
	movq	%rax, %rdx
	movq	%rbx, %rcx
	call	_ZNKSt14default_deleteIN3cpr15CurlMultiHolderEEclEPS1_
.L319:
	movq	-8(%rbp), %rax
	movq	$0, (%rax)
	nop
	addq	$56, %rsp
	popq	%rbx
	popq	%rbp
	ret
	.seh_endproc
	.section	.text$_ZNSt5dequeISt10shared_ptrIN3cpr16InterceptorMultiEESaIS3_EEC1Ev,"x"
	.linkonce discard
	.align 2
	.globl	_ZNSt5dequeISt10shared_ptrIN3cpr16InterceptorMultiEESaIS3_EEC1Ev
	.def	_ZNSt5dequeISt10shared_ptrIN3cpr16InterceptorMultiEESaIS3_EEC1Ev;	.scl	2;	.type	32;	.endef
	.seh_proc	_ZNSt5dequeISt10shared_ptrIN3cpr16InterceptorMultiEESaIS3_EEC1Ev
_ZNSt5dequeISt10shared_ptrIN3cpr16InterceptorMultiEESaIS3_EEC1Ev:
.LFB14239:
	pushq	%rbp
	.seh_pushreg	%rbp
	movq	%rsp, %rbp
	.seh_setframe	%rbp, 0
	subq	$32, %rsp
	.seh_stackalloc	32
	.seh_endprologue
	movq	%rcx, 16(%rbp)
	movq	16(%rbp), %rax
	movq	%rax, %rcx
	call	_ZNSt11_Deque_baseISt10shared_ptrIN3cpr16InterceptorMultiEESaIS3_EEC2Ev
	nop
	addq	$32, %rsp
	popq	%rbp
	ret
	.seh_endproc
	.section	.text$_ZNSt5queueISt10shared_ptrIN3cpr16InterceptorMultiEESt5dequeIS3_SaIS3_EEEC1IS6_vEEv,"x"
	.linkonce discard
	.align 2
	.globl	_ZNSt5queueISt10shared_ptrIN3cpr16InterceptorMultiEESt5dequeIS3_SaIS3_EEEC1IS6_vEEv
	.def	_ZNSt5queueISt10shared_ptrIN3cpr16InterceptorMultiEESt5dequeIS3_SaIS3_EEEC1IS6_vEEv;	.scl	2;	.type	32;	.endef
	.seh_proc	_ZNSt5queueISt10shared_ptrIN3cpr16InterceptorMultiEESt5dequeIS3_SaIS3_EEEC1IS6_vEEv
_ZNSt5queueISt10shared_ptrIN3cpr16InterceptorMultiEESt5dequeIS3_SaIS3_EEEC1IS6_vEEv:
.LFB14241:
	pushq	%rbp
	.seh_pushreg	%rbp
	movq	%rsp, %rbp
	.seh_setframe	%rbp, 0
	subq	$32, %rsp
	.seh_stackalloc	32
	.seh_endprologue
	movq	%rcx, 16(%rbp)
	movq	16(%rbp), %rax
	pxor	%xmm0, %xmm0
	movups	%xmm0, (%rax)
	movups	%xmm0, 16(%rax)
	movups	%xmm0, 32(%rax)
	movups	%xmm0, 48(%rax)
	movups	%xmm0, 64(%rax)
	movq	16(%rbp), %rax
	movq	%rax, %rcx
	call	_ZNSt5dequeISt10shared_ptrIN3cpr16InterceptorMultiEESaIS3_EEC1Ev
	nop
	addq	$32, %rsp
	popq	%rbp
	ret
	.seh_endproc
	.section	.text$_ZNSt5dequeISt10shared_ptrIN3cpr16InterceptorMultiEESaIS3_EED1Ev,"x"
	.linkonce discard
	.align 2
	.globl	_ZNSt5dequeISt10shared_ptrIN3cpr16InterceptorMultiEESaIS3_EED1Ev
	.def	_ZNSt5dequeISt10shared_ptrIN3cpr16InterceptorMultiEESaIS3_EED1Ev;	.scl	2;	.type	32;	.endef
	.seh_proc	_ZNSt5dequeISt10shared_ptrIN3cpr16InterceptorMultiEESaIS3_EED1Ev
_ZNSt5dequeISt10shared_ptrIN3cpr16InterceptorMultiEESaIS3_EED1Ev:
.LFB14244:
	pushq	%rbp
	.seh_pushreg	%rbp
	pushq	%rbx
	.seh_pushreg	%rbx
	subq	$104, %rsp
	.seh_stackalloc	104
	leaq	96(%rsp), %rbp
	.seh_setframe	%rbp, 96
	.seh_endprologue
	movq	%rcx, 32(%rbp)
	movq	32(%rbp), %rax
	movq	%rax, %rcx
	call	_ZNSt11_Deque_baseISt10shared_ptrIN3cpr16InterceptorMultiEESaIS3_EE19_M_get_Tp_allocatorEv
	movq	%rax, %rbx
	leaq	-64(%rbp), %rax
	movq	32(%rbp), %rdx
	movq	%rax, %rcx
	call	_ZNSt5dequeISt10shared_ptrIN3cpr16InterceptorMultiEESaIS3_EE3endEv
	leaq	-32(%rbp), %rax
	movq	32(%rbp), %rdx
	movq	%rax, %rcx
	call	_ZNSt5dequeISt10shared_ptrIN3cpr16InterceptorMultiEESaIS3_EE5beginEv
	leaq	-64(%rbp), %rcx
	leaq	-32(%rbp), %rdx
	movq	32(%rbp), %rax
	movq	%rbx, %r9
	movq	%rcx, %r8
	movq	%rax, %rcx
	call	_ZNSt5dequeISt10shared_ptrIN3cpr16InterceptorMultiEESaIS3_EE15_M_destroy_dataESt15_Deque_iteratorIS3_RS3_PS3_ES9_RKS4_
	movq	32(%rbp), %rax
	movq	%rax, %rcx
	call	_ZNSt11_Deque_baseISt10shared_ptrIN3cpr16InterceptorMultiEESaIS3_EED2Ev
	nop
	addq	$104, %rsp
	popq	%rbx
	popq	%rbp
	ret
	.seh_handler	__gxx_personality_seh0, @unwind, @except
	.seh_handlerdata
.LLSDA14244:
	.byte	0xff
	.byte	0xff
	.byte	0x1
	.uleb128 .LLSDACSE14244-.LLSDACSB14244
.LLSDACSB14244:
.LLSDACSE14244:
	.section	.text$_ZNSt5dequeISt10shared_ptrIN3cpr16InterceptorMultiEESaIS3_EED1Ev,"x"
	.linkonce discard
	.seh_endproc
	.section	.text$_ZNSt6vectorISt4pairISt10shared_ptrIN3cpr7SessionEENS2_12MultiPerform10HttpMethodEESaIS7_EE5beginEv,"x"
	.linkonce discard
	.align 2
	.globl	_ZNSt6vectorISt4pairISt10shared_ptrIN3cpr7SessionEENS2_12MultiPerform10HttpMethodEESaIS7_EE5beginEv
	.def	_ZNSt6vectorISt4pairISt10shared_ptrIN3cpr7SessionEENS2_12MultiPerform10HttpMethodEESaIS7_EE5beginEv;	.scl	2;	.type	32;	.endef
	.seh_proc	_ZNSt6vectorISt4pairISt10shared_ptrIN3cpr7SessionEENS2_12MultiPerform10HttpMethodEESaIS7_EE5beginEv
_ZNSt6vectorISt4pairISt10shared_ptrIN3cpr7SessionEENS2_12MultiPerform10HttpMethodEESaIS7_EE5beginEv:
.LFB14245:
	pushq	%rbp
	.seh_pushreg	%rbp
	movq	%rsp, %rbp
	.seh_setframe	%rbp, 0
	subq	$48, %rsp
	.seh_stackalloc	48
	.seh_endprologue
	movq	%rcx, 16(%rbp)
	movq	16(%rbp), %rdx
	leaq	-8(%rbp), %rax
	movq	%rax, %rcx
	call	_ZN9__gnu_cxx17__normal_iteratorIPSt4pairISt10shared_ptrIN3cpr7SessionEENS3_12MultiPerform10HttpMethodEESt6vectorIS8_SaIS8_EEEC1ERKS9_
	movq	-8(%rbp), %rax
	addq	$48, %rsp
	popq	%rbp
	ret
	.seh_endproc
	.section	.text$_ZNSt6vectorISt4pairISt10shared_ptrIN3cpr7SessionEENS2_12MultiPerform10HttpMethodEESaIS7_EE3endEv,"x"
	.linkonce discard
	.align 2
	.globl	_ZNSt6vectorISt4pairISt10shared_ptrIN3cpr7SessionEENS2_12MultiPerform10HttpMethodEESaIS7_EE3endEv
	.def	_ZNSt6vectorISt4pairISt10shared_ptrIN3cpr7SessionEENS2_12MultiPerform10HttpMethodEESaIS7_EE3endEv;	.scl	2;	.type	32;	.endef
	.seh_proc	_ZNSt6vectorISt4pairISt10shared_ptrIN3cpr7SessionEENS2_12MultiPerform10HttpMethodEESaIS7_EE3endEv
_ZNSt6vectorISt4pairISt10shared_ptrIN3cpr7SessionEENS2_12MultiPerform10HttpMethodEESaIS7_EE3endEv:
.LFB14246:
	pushq	%rbp
	.seh_pushreg	%rbp
	movq	%rsp, %rbp
	.seh_setframe	%rbp, 0
	subq	$48, %rsp
	.seh_stackalloc	48
	.seh_endprologue
	movq	%rcx, 16(%rbp)
	movq	16(%rbp), %rax
	leaq	8(%rax), %rdx
	leaq	-8(%rbp), %rax
	movq	%rax, %rcx
	call	_ZN9__gnu_cxx17__normal_iteratorIPSt4pairISt10shared_ptrIN3cpr7SessionEENS3_12MultiPerform10HttpMethodEESt6vectorIS8_SaIS8_EEEC1ERKS9_
	movq	-8(%rbp), %rax
	addq	$48, %rsp
	popq	%rbp
	ret
	.seh_endproc
	.section	.text$_ZN9__gnu_cxxneIPSt4pairISt10shared_ptrIN3cpr7SessionEENS3_12MultiPerform10HttpMethodEESt6vectorIS8_SaIS8_EEEEbRKNS_17__normal_iteratorIT_T0_EESI_,"x"
	.linkonce discard
	.globl	_ZN9__gnu_cxxneIPSt4pairISt10shared_ptrIN3cpr7SessionEENS3_12MultiPerform10HttpMethodEESt6vectorIS8_SaIS8_EEEEbRKNS_17__normal_iteratorIT_T0_EESI_
	.def	_ZN9__gnu_cxxneIPSt4pairISt10shared_ptrIN3cpr7SessionEENS3_12MultiPerform10HttpMethodEESt6vectorIS8_SaIS8_EEEEbRKNS_17__normal_iteratorIT_T0_EESI_;	.scl	2;	.type	32;	.endef
	.seh_proc	_ZN9__gnu_cxxneIPSt4pairISt10shared_ptrIN3cpr7SessionEENS3_12MultiPerform10HttpMethodEESt6vectorIS8_SaIS8_EEEEbRKNS_17__normal_iteratorIT_T0_EESI_
_ZN9__gnu_cxxneIPSt4pairISt10shared_ptrIN3cpr7SessionEENS3_12MultiPerform10HttpMethodEESt6vectorIS8_SaIS8_EEEEbRKNS_17__normal_iteratorIT_T0_EESI_:
.LFB14247:
	pushq	%rbp
	.seh_pushreg	%rbp
	pushq	%rbx
	.seh_pushreg	%rbx
	subq	$40, %rsp
	.seh_stackalloc	40
	leaq	32(%rsp), %rbp
	.seh_setframe	%rbp, 32
	.seh_endprologue
	movq	%rcx, 32(%rbp)
	movq	%rdx, 40(%rbp)
	movq	32(%rbp), %rax
	movq	%rax, %rcx
	call	_ZNK9__gnu_cxx17__normal_iteratorIPSt4pairISt10shared_ptrIN3cpr7SessionEENS3_12MultiPerform10HttpMethodEESt6vectorIS8_SaIS8_EEE4baseEv
	movq	(%rax), %rbx
	movq	40(%rbp), %rax
	movq	%rax, %rcx
	call	_ZNK9__gnu_cxx17__normal_iteratorIPSt4pairISt10shared_ptrIN3cpr7SessionEENS3_12MultiPerform10HttpMethodEESt6vectorIS8_SaIS8_EEE4baseEv
	movq	(%rax), %rax
	cmpq	%rax, %rbx
	setne	%al
	addq	$40, %rsp
	popq	%rbx
	popq	%rbp
	ret
	.seh_endproc
	.section	.text$_ZN9__gnu_cxx17__normal_iteratorIPSt4pairISt10shared_ptrIN3cpr7SessionEENS3_12MultiPerform10HttpMethodEESt6vectorIS8_SaIS8_EEEppEv,"x"
	.linkonce discard
	.align 2
	.globl	_ZN9__gnu_cxx17__normal_iteratorIPSt4pairISt10shared_ptrIN3cpr7SessionEENS3_12MultiPerform10HttpMethodEESt6vectorIS8_SaIS8_EEEppEv
	.def	_ZN9__gnu_cxx17__normal_iteratorIPSt4pairISt10shared_ptrIN3cpr7SessionEENS3_12MultiPerform10HttpMethodEESt6vectorIS8_SaIS8_EEEppEv;	.scl	2;	.type	32;	.endef
	.seh_proc	_ZN9__gnu_cxx17__normal_iteratorIPSt4pairISt10shared_ptrIN3cpr7SessionEENS3_12MultiPerform10HttpMethodEESt6vectorIS8_SaIS8_EEEppEv
_ZN9__gnu_cxx17__normal_iteratorIPSt4pairISt10shared_ptrIN3cpr7SessionEENS3_12MultiPerform10HttpMethodEESt6vectorIS8_SaIS8_EEEppEv:
.LFB14248:
	pushq	%rbp
	.seh_pushreg	%rbp
	movq	%rsp, %rbp
	.seh_setframe	%rbp, 0
	.seh_endprologue
	movq	%rcx, 16(%rbp)
	movq	16(%rbp), %rax
	movq	(%rax), %rax
	leaq	24(%rax), %rdx
	movq	16(%rbp), %rax
	movq	%rdx, (%rax)
	movq	16(%rbp), %rax
	popq	%rbp
	ret
	.seh_endproc
	.section	.text$_ZNK9__gnu_cxx17__normal_iteratorIPSt4pairISt10shared_ptrIN3cpr7SessionEENS3_12MultiPerform10HttpMethodEESt6vectorIS8_SaIS8_EEEdeEv,"x"
	.linkonce discard
	.align 2
	.globl	_ZNK9__gnu_cxx17__normal_iteratorIPSt4pairISt10shared_ptrIN3cpr7SessionEENS3_12MultiPerform10HttpMethodEESt6vectorIS8_SaIS8_EEEdeEv
	.def	_ZNK9__gnu_cxx17__normal_iteratorIPSt4pairISt10shared_ptrIN3cpr7SessionEENS3_12MultiPerform10HttpMethodEESt6vectorIS8_SaIS8_EEEdeEv;	.scl	2;	.type	32;	.endef
	.seh_proc	_ZNK9__gnu_cxx17__normal_iteratorIPSt4pairISt10shared_ptrIN3cpr7SessionEENS3_12MultiPerform10HttpMethodEESt6vectorIS8_SaIS8_EEEdeEv
_ZNK9__gnu_cxx17__normal_iteratorIPSt4pairISt10shared_ptrIN3cpr7SessionEENS3_12MultiPerform10HttpMethodEESt6vectorIS8_SaIS8_EEEdeEv:
.LFB14249:
	pushq	%rbp
	.seh_pushreg	%rbp
	movq	%rsp, %rbp
	.seh_setframe	%rbp, 0
	.seh_endprologue
	movq	%rcx, 16(%rbp)
	movq	16(%rbp), %rax
	movq	(%rax), %rax
	popq	%rbp
	ret
	.seh_endproc
	.section	.text$_ZNKSt19__shared_ptr_accessIN3cpr7SessionELN9__gnu_cxx12_Lock_policyE2ELb0ELb0EEptEv,"x"
	.linkonce discard
	.align 2
	.globl	_ZNKSt19__shared_ptr_accessIN3cpr7SessionELN9__gnu_cxx12_Lock_policyE2ELb0ELb0EEptEv
	.def	_ZNKSt19__shared_ptr_accessIN3cpr7SessionELN9__gnu_cxx12_Lock_policyE2ELb0ELb0EEptEv;	.scl	2;	.type	32;	.endef
	.seh_proc	_ZNKSt19__shared_ptr_accessIN3cpr7SessionELN9__gnu_cxx12_Lock_policyE2ELb0ELb0EEptEv
_ZNKSt19__shared_ptr_accessIN3cpr7SessionELN9__gnu_cxx12_Lock_policyE2ELb0ELb0EEptEv:
.LFB14250:
	pushq	%rbp
	.seh_pushreg	%rbp
	movq	%rsp, %rbp
	.seh_setframe	%rbp, 0
	subq	$32, %rsp
	.seh_stackalloc	32
	.seh_endprologue
	movq	%rcx, 16(%rbp)
	movq	16(%rbp), %rax
	movq	%rax, %rcx
	call	_ZNKSt19__shared_ptr_accessIN3cpr7SessionELN9__gnu_cxx12_Lock_policyE2ELb0ELb0EE6_M_getEv
	addq	$32, %rsp
	popq	%rbp
	ret
	.seh_endproc
	.section	.text$_ZNKSt10unique_ptrIN3cpr15CurlMultiHolderESt14default_deleteIS1_EEptEv,"x"
	.linkonce discard
	.align 2
	.globl	_ZNKSt10unique_ptrIN3cpr15CurlMultiHolderESt14default_deleteIS1_EEptEv
	.def	_ZNKSt10unique_ptrIN3cpr15CurlMultiHolderESt14default_deleteIS1_EEptEv;	.scl	2;	.type	32;	.endef
	.seh_proc	_ZNKSt10unique_ptrIN3cpr15CurlMultiHolderESt14default_deleteIS1_EEptEv
_ZNKSt10unique_ptrIN3cpr15CurlMultiHolderESt14default_deleteIS1_EEptEv:
.LFB14251:
	pushq	%rbp
	.seh_pushreg	%rbp
	movq	%rsp, %rbp
	.seh_setframe	%rbp, 0
	subq	$32, %rsp
	.seh_stackalloc	32
	.seh_endprologue
	movq	%rcx, 16(%rbp)
	movq	16(%rbp), %rax
	movq	%rax, %rcx
	call	_ZNKSt10unique_ptrIN3cpr15CurlMultiHolderESt14default_deleteIS1_EE3getEv
	addq	$32, %rsp
	popq	%rbp
	ret
	.seh_endproc
	.section	.text$_ZNKSt19__shared_ptr_accessIN3cpr10CurlHolderELN9__gnu_cxx12_Lock_policyE2ELb0ELb0EEptEv,"x"
	.linkonce discard
	.align 2
	.globl	_ZNKSt19__shared_ptr_accessIN3cpr10CurlHolderELN9__gnu_cxx12_Lock_policyE2ELb0ELb0EEptEv
	.def	_ZNKSt19__shared_ptr_accessIN3cpr10CurlHolderELN9__gnu_cxx12_Lock_policyE2ELb0ELb0EEptEv;	.scl	2;	.type	32;	.endef
	.seh_proc	_ZNKSt19__shared_ptr_accessIN3cpr10CurlHolderELN9__gnu_cxx12_Lock_policyE2ELb0ELb0EEptEv
_ZNKSt19__shared_ptr_accessIN3cpr10CurlHolderELN9__gnu_cxx12_Lock_policyE2ELb0ELb0EEptEv:
.LFB14252:
	pushq	%rbp
	.seh_pushreg	%rbp
	movq	%rsp, %rbp
	.seh_setframe	%rbp, 0
	subq	$32, %rsp
	.seh_stackalloc	32
	.seh_endprologue
	movq	%rcx, 16(%rbp)
	movq	16(%rbp), %rax
	movq	%rax, %rcx
	call	_ZNKSt19__shared_ptr_accessIN3cpr10CurlHolderELN9__gnu_cxx12_Lock_policyE2ELb0ELb0EE6_M_getEv
	addq	$32, %rsp
	popq	%rbp
	ret
	.seh_endproc
	.section	.text$_ZNKSt6vectorISt4pairISt10shared_ptrIN3cpr7SessionEENS2_12MultiPerform10HttpMethodEESaIS7_EE5emptyEv,"x"
	.linkonce discard
	.align 2
	.globl	_ZNKSt6vectorISt4pairISt10shared_ptrIN3cpr7SessionEENS2_12MultiPerform10HttpMethodEESaIS7_EE5emptyEv
	.def	_ZNKSt6vectorISt4pairISt10shared_ptrIN3cpr7SessionEENS2_12MultiPerform10HttpMethodEESaIS7_EE5emptyEv;	.scl	2;	.type	32;	.endef
	.seh_proc	_ZNKSt6vectorISt4pairISt10shared_ptrIN3cpr7SessionEENS2_12MultiPerform10HttpMethodEESaIS7_EE5emptyEv
_ZNKSt6vectorISt4pairISt10shared_ptrIN3cpr7SessionEENS2_12MultiPerform10HttpMethodEESaIS7_EE5emptyEv:
.LFB14256:
	pushq	%rbp
	.seh_pushreg	%rbp
	movq	%rsp, %rbp
	.seh_setframe	%rbp, 0
	subq	$48, %rsp
	.seh_stackalloc	48
	.seh_endprologue
	movq	%rcx, 16(%rbp)
	movq	16(%rbp), %rax
	movq	%rax, %rcx
	call	_ZNKSt6vectorISt4pairISt10shared_ptrIN3cpr7SessionEENS2_12MultiPerform10HttpMethodEESaIS7_EE3endEv
	movq	%rax, -16(%rbp)
	movq	16(%rbp), %rax
	movq	%rax, %rcx
	call	_ZNKSt6vectorISt4pairISt10shared_ptrIN3cpr7SessionEENS2_12MultiPerform10HttpMethodEESaIS7_EE5beginEv
	movq	%rax, -8(%rbp)
	leaq	-16(%rbp), %rdx
	leaq	-8(%rbp), %rax
	movq	%rax, %rcx
	call	_ZN9__gnu_cxxeqIPKSt4pairISt10shared_ptrIN3cpr7SessionEENS3_12MultiPerform10HttpMethodEESt6vectorIS8_SaIS8_EEEEbRKNS_17__normal_iteratorIT_T0_EESJ_
	addq	$48, %rsp
	popq	%rbp
	ret
	.seh_endproc
	.section	.text$_ZNSt6vectorISt4pairISt10shared_ptrIN3cpr7SessionEENS2_12MultiPerform10HttpMethodEESaIS7_EE12emplace_backIJRS4_RS6_EEERS7_DpOT_,"x"
	.linkonce discard
	.align 2
	.globl	_ZNSt6vectorISt4pairISt10shared_ptrIN3cpr7SessionEENS2_12MultiPerform10HttpMethodEESaIS7_EE12emplace_backIJRS4_RS6_EEERS7_DpOT_
	.def	_ZNSt6vectorISt4pairISt10shared_ptrIN3cpr7SessionEENS2_12MultiPerform10HttpMethodEESaIS7_EE12emplace_backIJRS4_RS6_EEERS7_DpOT_;	.scl	2;	.type	32;	.endef
	.seh_proc	_ZNSt6vectorISt4pairISt10shared_ptrIN3cpr7SessionEENS2_12MultiPerform10HttpMethodEESaIS7_EE12emplace_backIJRS4_RS6_EEERS7_DpOT_
_ZNSt6vectorISt4pairISt10shared_ptrIN3cpr7SessionEENS2_12MultiPerform10HttpMethodEESaIS7_EE12emplace_backIJRS4_RS6_EEERS7_DpOT_:
.LFB14257:
	pushq	%rbp
	.seh_pushreg	%rbp
	pushq	%rsi
	.seh_pushreg	%rsi
	pushq	%rbx
	.seh_pushreg	%rbx
	subq	$96, %rsp
	.seh_stackalloc	96
	leaq	96(%rsp), %rbp
	.seh_setframe	%rbp, 96
	.seh_endprologue
	movq	%rcx, 32(%rbp)
	movq	%rdx, 40(%rbp)
	movq	%r8, 48(%rbp)
	movq	32(%rbp), %rax
	movq	8(%rax), %rdx
	movq	32(%rbp), %rax
	movq	16(%rax), %rax
	cmpq	%rax, %rdx
	je	.L342
	movq	48(%rbp), %rax
	movq	%rax, %rcx
	call	_ZSt7forwardIRN3cpr12MultiPerform10HttpMethodEEOT_RNSt16remove_referenceIS4_E4typeE
	movq	%rax, %rbx
	movq	40(%rbp), %rax
	movq	%rax, %rcx
	call	_ZSt7forwardIRSt10shared_ptrIN3cpr7SessionEEEOT_RNSt16remove_referenceIS5_E4typeE
	movq	32(%rbp), %rdx
	movq	8(%rdx), %rdx
	movq	32(%rbp), %rcx
	movq	%rcx, -8(%rbp)
	movq	%rdx, -16(%rbp)
	movq	%rax, -24(%rbp)
	movq	%rbx, -32(%rbp)
	movq	-32(%rbp), %rax
	movq	%rax, %rcx
	call	_ZSt7forwardIRN3cpr12MultiPerform10HttpMethodEEOT_RNSt16remove_referenceIS4_E4typeE
	movq	%rax, %rbx
	movq	-24(%rbp), %rax
	movq	%rax, %rcx
	call	_ZSt7forwardIRSt10shared_ptrIN3cpr7SessionEEEOT_RNSt16remove_referenceIS5_E4typeE
	movq	-16(%rbp), %rdx
	movq	%rdx, -40(%rbp)
	movq	%rax, -48(%rbp)
	movq	%rbx, -56(%rbp)
	movq	-8(%rbp), %rax
	movq	%rax, -64(%rbp)
	movq	-40(%rbp), %rax
	movq	%rax, %rdx
	movl	$24, %ecx
	call	_ZnwyPv
	movq	%rax, %rbx
	movq	-56(%rbp), %rax
	movq	%rax, %rcx
	call	_ZSt7forwardIRN3cpr12MultiPerform10HttpMethodEEOT_RNSt16remove_referenceIS4_E4typeE
	movq	%rax, %rsi
	movq	-48(%rbp), %rax
	movq	%rax, %rcx
	call	_ZSt7forwardIRSt10shared_ptrIN3cpr7SessionEEEOT_RNSt16remove_referenceIS5_E4typeE
	movq	%rsi, %r8
	movq	%rax, %rdx
	movq	%rbx, %rcx
	call	_ZNSt4pairISt10shared_ptrIN3cpr7SessionEENS1_12MultiPerform10HttpMethodEEC1IRS3_RS5_Lb1EEEOT_OT0_
	nop
	nop
	movq	32(%rbp), %rax
	movq	8(%rax), %rax
	leaq	24(%rax), %rdx
	movq	32(%rbp), %rax
	movq	%rdx, 8(%rax)
	jmp	.L343
.L342:
	movq	48(%rbp), %rax
	movq	%rax, %rcx
	call	_ZSt7forwardIRN3cpr12MultiPerform10HttpMethodEEOT_RNSt16remove_referenceIS4_E4typeE
	movq	%rax, %rbx
	movq	40(%rbp), %rax
	movq	%rax, %rcx
	call	_ZSt7forwardIRSt10shared_ptrIN3cpr7SessionEEEOT_RNSt16remove_referenceIS5_E4typeE
	movq	%rax, %rdx
	movq	32(%rbp), %rax
	movq	%rbx, %r8
	movq	%rax, %rcx
	call	_ZNSt6vectorISt4pairISt10shared_ptrIN3cpr7SessionEENS2_12MultiPerform10HttpMethodEESaIS7_EE17_M_realloc_appendIJRS4_RS6_EEEvDpOT_
.L343:
	movq	32(%rbp), %rax
	movq	%rax, %rcx
	call	_ZNSt6vectorISt4pairISt10shared_ptrIN3cpr7SessionEENS2_12MultiPerform10HttpMethodEESaIS7_EE4backEv
	addq	$96, %rsp
	popq	%rbx
	popq	%rsi
	popq	%rbp
	ret
	.seh_endproc
	.text
	.def	_ZSt7find_ifIN9__gnu_cxx17__normal_iteratorIPSt4pairISt10shared_ptrIN3cpr7SessionEENS4_12MultiPerform10HttpMethodEESt6vectorIS9_SaIS9_EEEEZNS7_13RemoveSessionERKS6_EUlRKS9_E_ET_SK_SK_T0_;	.scl	3;	.type	32;	.endef
	.seh_proc	_ZSt7find_ifIN9__gnu_cxx17__normal_iteratorIPSt4pairISt10shared_ptrIN3cpr7SessionEENS4_12MultiPerform10HttpMethodEESt6vectorIS9_SaIS9_EEEEZNS7_13RemoveSessionERKS6_EUlRKS9_E_ET_SK_SK_T0_
_ZSt7find_ifIN9__gnu_cxx17__normal_iteratorIPSt4pairISt10shared_ptrIN3cpr7SessionEENS4_12MultiPerform10HttpMethodEESt6vectorIS9_SaIS9_EEEEZNS7_13RemoveSessionERKS6_EUlRKS9_E_ET_SK_SK_T0_:
.LFB14263:
	pushq	%rbp
	.seh_pushreg	%rbp
	movq	%rsp, %rbp
	.seh_setframe	%rbp, 0
	subq	$32, %rsp
	.seh_stackalloc	32
	.seh_endprologue
	movq	%rcx, 16(%rbp)
	movq	%rdx, 24(%rbp)
	movq	%r8, 32(%rbp)
	movq	32(%rbp), %rax
	movq	%rax, %rcx
	call	_ZN9__gnu_cxx5__ops11__pred_iterIZN3cpr12MultiPerform13RemoveSessionERKSt10shared_ptrINS2_7SessionEEEUlRKSt4pairIS6_NS3_10HttpMethodEEE_EENS0_10_Iter_predIT_EESG_
	movq	%rax, %rcx
	movq	24(%rbp), %rdx
	movq	16(%rbp), %rax
	movq	%rcx, %r8
	movq	%rax, %rcx
	call	_ZSt9__find_ifIN9__gnu_cxx17__normal_iteratorIPSt4pairISt10shared_ptrIN3cpr7SessionEENS4_12MultiPerform10HttpMethodEESt6vectorIS9_SaIS9_EEEENS0_5__ops10_Iter_predIZNS7_13RemoveSessionERKS6_EUlRKS9_E_EEET_SN_SN_T0_
	addq	$32, %rsp
	popq	%rbp
	ret
	.seh_endproc
	.section	.text$_ZN9__gnu_cxxeqIPSt4pairISt10shared_ptrIN3cpr7SessionEENS3_12MultiPerform10HttpMethodEESt6vectorIS8_SaIS8_EEEEbRKNS_17__normal_iteratorIT_T0_EESI_,"x"
	.linkonce discard
	.globl	_ZN9__gnu_cxxeqIPSt4pairISt10shared_ptrIN3cpr7SessionEENS3_12MultiPerform10HttpMethodEESt6vectorIS8_SaIS8_EEEEbRKNS_17__normal_iteratorIT_T0_EESI_
	.def	_ZN9__gnu_cxxeqIPSt4pairISt10shared_ptrIN3cpr7SessionEENS3_12MultiPerform10HttpMethodEESt6vectorIS8_SaIS8_EEEEbRKNS_17__normal_iteratorIT_T0_EESI_;	.scl	2;	.type	32;	.endef
	.seh_proc	_ZN9__gnu_cxxeqIPSt4pairISt10shared_ptrIN3cpr7SessionEENS3_12MultiPerform10HttpMethodEESt6vectorIS8_SaIS8_EEEEbRKNS_17__normal_iteratorIT_T0_EESI_
_ZN9__gnu_cxxeqIPSt4pairISt10shared_ptrIN3cpr7SessionEENS3_12MultiPerform10HttpMethodEESt6vectorIS8_SaIS8_EEEEbRKNS_17__normal_iteratorIT_T0_EESI_:
.LFB14264:
	pushq	%rbp
	.seh_pushreg	%rbp
	pushq	%rbx
	.seh_pushreg	%rbx
	subq	$40, %rsp
	.seh_stackalloc	40
	leaq	32(%rsp), %rbp
	.seh_setframe	%rbp, 32
	.seh_endprologue
	movq	%rcx, 32(%rbp)
	movq	%rdx, 40(%rbp)
	movq	32(%rbp), %rax
	movq	%rax, %rcx
	call	_ZNK9__gnu_cxx17__normal_iteratorIPSt4pairISt10shared_ptrIN3cpr7SessionEENS3_12MultiPerform10HttpMethodEESt6vectorIS8_SaIS8_EEE4baseEv
	movq	(%rax), %rbx
	movq	40(%rbp), %rax
	movq	%rax, %rcx
	call	_ZNK9__gnu_cxx17__normal_iteratorIPSt4pairISt10shared_ptrIN3cpr7SessionEENS3_12MultiPerform10HttpMethodEESt6vectorIS8_SaIS8_EEE4baseEv
	movq	(%rax), %rax
	cmpq	%rax, %rbx
	sete	%al
	addq	$40, %rsp
	popq	%rbx
	popq	%rbp
	ret
	.seh_endproc
	.section	.text$_ZN9__gnu_cxx17__normal_iteratorIPKSt4pairISt10shared_ptrIN3cpr7SessionEENS3_12MultiPerform10HttpMethodEESt6vectorIS8_SaIS8_EEEC1IPS8_vEERKNS0_IT_SD_EE,"x"
	.linkonce discard
	.align 2
	.globl	_ZN9__gnu_cxx17__normal_iteratorIPKSt4pairISt10shared_ptrIN3cpr7SessionEENS3_12MultiPerform10HttpMethodEESt6vectorIS8_SaIS8_EEEC1IPS8_vEERKNS0_IT_SD_EE
	.def	_ZN9__gnu_cxx17__normal_iteratorIPKSt4pairISt10shared_ptrIN3cpr7SessionEENS3_12MultiPerform10HttpMethodEESt6vectorIS8_SaIS8_EEEC1IPS8_vEERKNS0_IT_SD_EE;	.scl	2;	.type	32;	.endef
	.seh_proc	_ZN9__gnu_cxx17__normal_iteratorIPKSt4pairISt10shared_ptrIN3cpr7SessionEENS3_12MultiPerform10HttpMethodEESt6vectorIS8_SaIS8_EEEC1IPS8_vEERKNS0_IT_SD_EE
_ZN9__gnu_cxx17__normal_iteratorIPKSt4pairISt10shared_ptrIN3cpr7SessionEENS3_12MultiPerform10HttpMethodEESt6vectorIS8_SaIS8_EEEC1IPS8_vEERKNS0_IT_SD_EE:
.LFB14267:
	pushq	%rbp
	.seh_pushreg	%rbp
	movq	%rsp, %rbp
	.seh_setframe	%rbp, 0
	subq	$32, %rsp
	.seh_stackalloc	32
	.seh_endprologue
	movq	%rcx, 16(%rbp)
	movq	%rdx, 24(%rbp)
	movq	24(%rbp), %rax
	movq	%rax, %rcx
	call	_ZNK9__gnu_cxx17__normal_iteratorIPSt4pairISt10shared_ptrIN3cpr7SessionEENS3_12MultiPerform10HttpMethodEESt6vectorIS8_SaIS8_EEE4baseEv
	movq	(%rax), %rdx
	movq	16(%rbp), %rax
	movq	%rdx, (%rax)
	nop
	addq	$32, %rsp
	popq	%rbp
	ret
	.seh_endproc
	.section	.text$_ZNSt6vectorISt4pairISt10shared_ptrIN3cpr7SessionEENS2_12MultiPerform10HttpMethodEESaIS7_EE5eraseEN9__gnu_cxx17__normal_iteratorIPKS7_S9_EE,"x"
	.linkonce discard
	.align 2
	.globl	_ZNSt6vectorISt4pairISt10shared_ptrIN3cpr7SessionEENS2_12MultiPerform10HttpMethodEESaIS7_EE5eraseEN9__gnu_cxx17__normal_iteratorIPKS7_S9_EE
	.def	_ZNSt6vectorISt4pairISt10shared_ptrIN3cpr7SessionEENS2_12MultiPerform10HttpMethodEESaIS7_EE5eraseEN9__gnu_cxx17__normal_iteratorIPKS7_S9_EE;	.scl	2;	.type	32;	.endef
	.seh_proc	_ZNSt6vectorISt4pairISt10shared_ptrIN3cpr7SessionEENS2_12MultiPerform10HttpMethodEESaIS7_EE5eraseEN9__gnu_cxx17__normal_iteratorIPKS7_S9_EE
_ZNSt6vectorISt4pairISt10shared_ptrIN3cpr7SessionEENS2_12MultiPerform10HttpMethodEESaIS7_EE5eraseEN9__gnu_cxx17__normal_iteratorIPKS7_S9_EE:
.LFB14268:
	pushq	%rbp
	.seh_pushreg	%rbp
	pushq	%rbx
	.seh_pushreg	%rbx
	subq	$56, %rsp
	.seh_stackalloc	56
	leaq	48(%rsp), %rbp
	.seh_setframe	%rbp, 48
	.seh_endprologue
	movq	%rcx, 32(%rbp)
	movq	%rdx, 40(%rbp)
	movq	32(%rbp), %rax
	movq	%rax, %rcx
	call	_ZNKSt6vectorISt4pairISt10shared_ptrIN3cpr7SessionEENS2_12MultiPerform10HttpMethodEESaIS7_EE6cbeginEv
	movq	%rax, -16(%rbp)
	leaq	-16(%rbp), %rdx
	leaq	40(%rbp), %rax
	movq	%rax, %rcx
	call	_ZN9__gnu_cxxmiIPKSt4pairISt10shared_ptrIN3cpr7SessionEENS3_12MultiPerform10HttpMethodEESt6vectorIS8_SaIS8_EEEENS_17__normal_iteratorIT_T0_E15difference_typeERKSH_SK_
	movq	%rax, %rbx
	movq	32(%rbp), %rax
	movq	%rax, %rcx
	call	_ZNSt6vectorISt4pairISt10shared_ptrIN3cpr7SessionEENS2_12MultiPerform10HttpMethodEESaIS7_EE5beginEv
	movq	%rax, -8(%rbp)
	leaq	-8(%rbp), %rax
	movq	%rbx, %rdx
	movq	%rax, %rcx
	call	_ZNK9__gnu_cxx17__normal_iteratorIPSt4pairISt10shared_ptrIN3cpr7SessionEENS3_12MultiPerform10HttpMethodEESt6vectorIS8_SaIS8_EEEplEx
	movq	%rax, %rdx
	movq	32(%rbp), %rax
	movq	%rax, %rcx
	call	_ZNSt6vectorISt4pairISt10shared_ptrIN3cpr7SessionEENS2_12MultiPerform10HttpMethodEESaIS7_EE8_M_eraseEN9__gnu_cxx17__normal_iteratorIPS7_S9_EE
	addq	$56, %rsp
	popq	%rbx
	popq	%rbp
	ret
	.seh_endproc
	.section	.text$_ZNSt12_Vector_baseIN3cpr8ResponseESaIS1_EE12_Vector_implC1Ev,"x"
	.linkonce discard
	.align 2
	.globl	_ZNSt12_Vector_baseIN3cpr8ResponseESaIS1_EE12_Vector_implC1Ev
	.def	_ZNSt12_Vector_baseIN3cpr8ResponseESaIS1_EE12_Vector_implC1Ev;	.scl	2;	.type	32;	.endef
	.seh_proc	_ZNSt12_Vector_baseIN3cpr8ResponseESaIS1_EE12_Vector_implC1Ev
_ZNSt12_Vector_baseIN3cpr8ResponseESaIS1_EE12_Vector_implC1Ev:
.LFB14271:
	pushq	%rbp
	.seh_pushreg	%rbp
	movq	%rsp, %rbp
	.seh_setframe	%rbp, 0
	subq	$48, %rsp
	.seh_stackalloc	48
	.seh_endprologue
	movq	%rcx, 16(%rbp)
	movq	16(%rbp), %rax
	movq	%rax, -8(%rbp)
	movq	-8(%rbp), %rax
	movq	%rax, -16(%rbp)
	nop
	nop
	movq	16(%rbp), %rax
	movq	%rax, %rcx
	call	_ZNSt12_Vector_baseIN3cpr8ResponseESaIS1_EE17_Vector_impl_dataC2Ev
	nop
	addq	$48, %rsp
	popq	%rbp
	ret
	.seh_endproc
	.section	.text$_ZNSt12_Vector_baseIN3cpr8ResponseESaIS1_EED2Ev,"x"
	.linkonce discard
	.align 2
	.globl	_ZNSt12_Vector_baseIN3cpr8ResponseESaIS1_EED2Ev
	.def	_ZNSt12_Vector_baseIN3cpr8ResponseESaIS1_EED2Ev;	.scl	2;	.type	32;	.endef
	.seh_proc	_ZNSt12_Vector_baseIN3cpr8ResponseESaIS1_EED2Ev
_ZNSt12_Vector_baseIN3cpr8ResponseESaIS1_EED2Ev:
.LFB14276:
	pushq	%rbp
	.seh_pushreg	%rbp
	movq	%rsp, %rbp
	.seh_setframe	%rbp, 0
	subq	$32, %rsp
	.seh_stackalloc	32
	.seh_endprologue
	movq	%rcx, 16(%rbp)
	movq	16(%rbp), %rax
	movq	16(%rax), %rdx
	movq	16(%rbp), %rax
	movq	(%rax), %rax
	subq	%rax, %rdx
	sarq	$3, %rdx
	movabsq	$-9008875012741874045, %rax
	imulq	%rdx, %rax
	movq	%rax, %rcx
	movq	16(%rbp), %rax
	movq	(%rax), %rdx
	movq	16(%rbp), %rax
	movq	%rcx, %r8
	movq	%rax, %rcx
	call	_ZNSt12_Vector_baseIN3cpr8ResponseESaIS1_EE13_M_deallocateEPS1_y
	movq	16(%rbp), %rax
	movq	%rax, %rcx
	call	_ZNSt12_Vector_baseIN3cpr8ResponseESaIS1_EE12_Vector_implD1Ev
	nop
	addq	$32, %rsp
	popq	%rbp
	ret
	.seh_handler	__gxx_personality_seh0, @unwind, @except
	.seh_handlerdata
.LLSDA14276:
	.byte	0xff
	.byte	0xff
	.byte	0x1
	.uleb128 .LLSDACSE14276-.LLSDACSB14276
.LLSDACSB14276:
.LLSDACSE14276:
	.section	.text$_ZNSt12_Vector_baseIN3cpr8ResponseESaIS1_EED2Ev,"x"
	.linkonce discard
	.seh_endproc
	.section	.text$_ZNSt6vectorIN3cpr8ResponseESaIS1_EED1Ev,"x"
	.linkonce discard
	.align 2
	.globl	_ZNSt6vectorIN3cpr8ResponseESaIS1_EED1Ev
	.def	_ZNSt6vectorIN3cpr8ResponseESaIS1_EED1Ev;	.scl	2;	.type	32;	.endef
	.seh_proc	_ZNSt6vectorIN3cpr8ResponseESaIS1_EED1Ev
_ZNSt6vectorIN3cpr8ResponseESaIS1_EED1Ev:
.LFB14280:
	pushq	%rbp
	.seh_pushreg	%rbp
	movq	%rsp, %rbp
	.seh_setframe	%rbp, 0
	subq	$64, %rsp
	.seh_stackalloc	64
	.seh_endprologue
	movq	%rcx, 16(%rbp)
	movq	16(%rbp), %rax
	movq	%rax, %rcx
	call	_ZNSt12_Vector_baseIN3cpr8ResponseESaIS1_EE19_M_get_Tp_allocatorEv
	movq	16(%rbp), %rdx
	movq	8(%rdx), %rdx
	movq	16(%rbp), %rcx
	movq	(%rcx), %rcx
	movq	%rcx, -8(%rbp)
	movq	%rdx, -16(%rbp)
	movq	%rax, -24(%rbp)
	movq	-16(%rbp), %rdx
	movq	-8(%rbp), %rax
	movq	%rax, %rcx
	call	_ZSt8_DestroyIPN3cpr8ResponseEEvT_S3_
	nop
	movq	16(%rbp), %rax
	movq	%rax, %rcx
	call	_ZNSt12_Vector_baseIN3cpr8ResponseESaIS1_EED2Ev
	nop
	addq	$64, %rsp
	popq	%rbp
	ret
	.seh_handler	__gxx_personality_seh0, @unwind, @except
	.seh_handlerdata
.LLSDA14280:
	.byte	0xff
	.byte	0xff
	.byte	0x1
	.uleb128 .LLSDACSE14280-.LLSDACSB14280
.LLSDACSB14280:
.LLSDACSE14280:
	.section	.text$_ZNSt6vectorIN3cpr8ResponseESaIS1_EED1Ev,"x"
	.linkonce discard
	.seh_endproc
	.text
	.def	_ZSt7find_ifIN9__gnu_cxx17__normal_iteratorIPSt4pairISt10shared_ptrIN3cpr7SessionEENS4_12MultiPerform10HttpMethodEESt6vectorIS9_SaIS9_EEEEZNS7_13ReadMultiInfoEOSt8functionIFNS4_8ResponseERS5_8CURLcodeEEEUlRKS9_E_ET_SP_SP_T0_;	.scl	3;	.type	32;	.endef
	.seh_proc	_ZSt7find_ifIN9__gnu_cxx17__normal_iteratorIPSt4pairISt10shared_ptrIN3cpr7SessionEENS4_12MultiPerform10HttpMethodEESt6vectorIS9_SaIS9_EEEEZNS7_13ReadMultiInfoEOSt8functionIFNS4_8ResponseERS5_8CURLcodeEEEUlRKS9_E_ET_SP_SP_T0_
_ZSt7find_ifIN9__gnu_cxx17__normal_iteratorIPSt4pairISt10shared_ptrIN3cpr7SessionEENS4_12MultiPerform10HttpMethodEESt6vectorIS9_SaIS9_EEEEZNS7_13ReadMultiInfoEOSt8functionIFNS4_8ResponseERS5_8CURLcodeEEEUlRKS9_E_ET_SP_SP_T0_:
.LFB14281:
	pushq	%rbp
	.seh_pushreg	%rbp
	movq	%rsp, %rbp
	.seh_setframe	%rbp, 0
	subq	$32, %rsp
	.seh_stackalloc	32
	.seh_endprologue
	movq	%rcx, 16(%rbp)
	movq	%rdx, 24(%rbp)
	movq	%r8, 32(%rbp)
	movq	32(%rbp), %rax
	movq	%rax, %rcx
	call	_ZN9__gnu_cxx5__ops11__pred_iterIZN3cpr12MultiPerform13ReadMultiInfoEOSt8functionIFNS2_8ResponseERNS2_7SessionE8CURLcodeEEEUlRKSt4pairISt10shared_ptrIS6_ENS3_10HttpMethodEEE_EENS0_10_Iter_predIT_EESL_
	movq	%rax, %rcx
	movq	24(%rbp), %rdx
	movq	16(%rbp), %rax
	movq	%rcx, %r8
	movq	%rax, %rcx
	call	_ZSt9__find_ifIN9__gnu_cxx17__normal_iteratorIPSt4pairISt10shared_ptrIN3cpr7SessionEENS4_12MultiPerform10HttpMethodEESt6vectorIS9_SaIS9_EEEENS0_5__ops10_Iter_predIZNS7_13ReadMultiInfoEOSt8functionIFNS4_8ResponseERS5_8CURLcodeEEEUlRKS9_E_EEET_SS_SS_T0_
	addq	$32, %rsp
	popq	%rbp
	ret
	.seh_endproc
	.section	.text$_ZNSt14__shared_countILN9__gnu_cxx12_Lock_policyE2EEC1ERKS2_,"x"
	.linkonce discard
	.align 2
	.globl	_ZNSt14__shared_countILN9__gnu_cxx12_Lock_policyE2EEC1ERKS2_
	.def	_ZNSt14__shared_countILN9__gnu_cxx12_Lock_policyE2EEC1ERKS2_;	.scl	2;	.type	32;	.endef
	.seh_proc	_ZNSt14__shared_countILN9__gnu_cxx12_Lock_policyE2EEC1ERKS2_
_ZNSt14__shared_countILN9__gnu_cxx12_Lock_policyE2EEC1ERKS2_:
.LFB14284:
	pushq	%rbp
	.seh_pushreg	%rbp
	movq	%rsp, %rbp
	.seh_setframe	%rbp, 0
	subq	$32, %rsp
	.seh_stackalloc	32
	.seh_endprologue
	movq	%rcx, 16(%rbp)
	movq	%rdx, 24(%rbp)
	movq	24(%rbp), %rax
	movq	(%rax), %rdx
	movq	16(%rbp), %rax
	movq	%rdx, (%rax)
	movq	16(%rbp), %rax
	movq	(%rax), %rax
	testq	%rax, %rax
	je	.L359
	movq	16(%rbp), %rax
	movq	(%rax), %rax
	movq	%rax, %rcx
	call	_ZNSt16_Sp_counted_baseILN9__gnu_cxx12_Lock_policyE2EE15_M_add_ref_copyEv
.L359:
	nop
	addq	$32, %rsp
	popq	%rbp
	ret
	.seh_endproc
	.section	.text$_ZNKSt19__shared_ptr_accessIN3cpr7SessionELN9__gnu_cxx12_Lock_policyE2ELb0ELb0EEdeEv,"x"
	.linkonce discard
	.align 2
	.globl	_ZNKSt19__shared_ptr_accessIN3cpr7SessionELN9__gnu_cxx12_Lock_policyE2ELb0ELb0EEdeEv
	.def	_ZNKSt19__shared_ptr_accessIN3cpr7SessionELN9__gnu_cxx12_Lock_policyE2ELb0ELb0EEdeEv;	.scl	2;	.type	32;	.endef
	.seh_proc	_ZNKSt19__shared_ptr_accessIN3cpr7SessionELN9__gnu_cxx12_Lock_policyE2ELb0ELb0EEdeEv
_ZNKSt19__shared_ptr_accessIN3cpr7SessionELN9__gnu_cxx12_Lock_policyE2ELb0ELb0EEdeEv:
.LFB14285:
	pushq	%rbp
	.seh_pushreg	%rbp
	movq	%rsp, %rbp
	.seh_setframe	%rbp, 0
	subq	$32, %rsp
	.seh_stackalloc	32
	.seh_endprologue
	movq	%rcx, 16(%rbp)
	movl	$0, %eax
	testb	%al, %al
	je	.L362
	movq	16(%rbp), %rax
	movq	%rax, %rcx
	call	_ZNKSt19__shared_ptr_accessIN3cpr7SessionELN9__gnu_cxx12_Lock_policyE2ELb0ELb0EE6_M_getEv
	testq	%rax, %rax
	sete	%al
	movzbl	%al, %eax
	testl	%eax, %eax
	setne	%al
	testb	%al, %al
.L362:
	movq	16(%rbp), %rax
	movq	%rax, %rcx
	call	_ZNKSt19__shared_ptr_accessIN3cpr7SessionELN9__gnu_cxx12_Lock_policyE2ELb0ELb0EE6_M_getEv
	addq	$32, %rsp
	popq	%rbp
	ret
	.seh_endproc
	.section	.text$_ZNKSt8functionIFN3cpr8ResponseERNS0_7SessionE8CURLcodeEEclES3_S4_,"x"
	.linkonce discard
	.align 2
	.globl	_ZNKSt8functionIFN3cpr8ResponseERNS0_7SessionE8CURLcodeEEclES3_S4_
	.def	_ZNKSt8functionIFN3cpr8ResponseERNS0_7SessionE8CURLcodeEEclES3_S4_;	.scl	2;	.type	32;	.endef
	.seh_proc	_ZNKSt8functionIFN3cpr8ResponseERNS0_7SessionE8CURLcodeEEclES3_S4_
_ZNKSt8functionIFN3cpr8ResponseERNS0_7SessionE8CURLcodeEEclES3_S4_:
.LFB14286:
	pushq	%rbp
	.seh_pushreg	%rbp
	pushq	%rsi
	.seh_pushreg	%rsi
	pushq	%rbx
	.seh_pushreg	%rbx
	subq	$32, %rsp
	.seh_stackalloc	32
	leaq	32(%rsp), %rbp
	.seh_setframe	%rbp, 32
	.seh_endprologue
	movq	%rcx, 32(%rbp)
	movq	%rdx, 40(%rbp)
	movq	%r8, 48(%rbp)
	movl	%r9d, 56(%rbp)
	movq	40(%rbp), %rax
	movq	%rax, %rcx
	call	_ZNKSt14_Function_base8_M_emptyEv
	testb	%al, %al
	je	.L365
	call	_ZSt25__throw_bad_function_callv
.L365:
	movq	40(%rbp), %rax
	movq	24(%rax), %rbx
	leaq	56(%rbp), %rax
	movq	%rax, %rcx
	call	_ZSt7forwardI8CURLcodeEOT_RNSt16remove_referenceIS1_E4typeE
	movq	%rax, %rsi
	movq	48(%rbp), %rax
	movq	%rax, %rcx
	call	_ZSt7forwardIRN3cpr7SessionEEOT_RNSt16remove_referenceIS3_E4typeE
	movq	%rax, %rcx
	movq	40(%rbp), %rdx
	movq	32(%rbp), %rax
	movq	%rsi, %r9
	movq	%rcx, %r8
	movq	%rax, %rcx
	call	*%rbx
	movq	32(%rbp), %rax
	addq	$32, %rsp
	popq	%rbx
	popq	%rsi
	popq	%rbp
	ret
	.seh_endproc
	.section	.text$_ZNSt6vectorIN3cpr8ResponseESaIS1_EE9push_backEOS1_,"x"
	.linkonce discard
	.align 2
	.globl	_ZNSt6vectorIN3cpr8ResponseESaIS1_EE9push_backEOS1_
	.def	_ZNSt6vectorIN3cpr8ResponseESaIS1_EE9push_backEOS1_;	.scl	2;	.type	32;	.endef
	.seh_proc	_ZNSt6vectorIN3cpr8ResponseESaIS1_EE9push_backEOS1_
_ZNSt6vectorIN3cpr8ResponseESaIS1_EE9push_backEOS1_:
.LFB14287:
	pushq	%rbp
	.seh_pushreg	%rbp
	movq	%rsp, %rbp
	.seh_setframe	%rbp, 0
	subq	$32, %rsp
	.seh_stackalloc	32
	.seh_endprologue
	movq	%rcx, 16(%rbp)
	movq	%rdx, 24(%rbp)
	movq	24(%rbp), %rax
	movq	%rax, %rcx
	call	_ZSt4moveIRN3cpr8ResponseEEONSt16remove_referenceIT_E4typeEOS4_
	movq	%rax, %rdx
	movq	16(%rbp), %rax
	movq	%rax, %rcx
	call	_ZNSt6vectorIN3cpr8ResponseESaIS1_EE12emplace_backIJS1_EEERS1_DpOT_
	nop
	addq	$32, %rsp
	popq	%rbp
	ret
	.seh_endproc
	.section	.text$_ZNSt6vectorIN3cpr8ResponseESaIS1_EE5beginEv,"x"
	.linkonce discard
	.align 2
	.globl	_ZNSt6vectorIN3cpr8ResponseESaIS1_EE5beginEv
	.def	_ZNSt6vectorIN3cpr8ResponseESaIS1_EE5beginEv;	.scl	2;	.type	32;	.endef
	.seh_proc	_ZNSt6vectorIN3cpr8ResponseESaIS1_EE5beginEv
_ZNSt6vectorIN3cpr8ResponseESaIS1_EE5beginEv:
.LFB14288:
	pushq	%rbp
	.seh_pushreg	%rbp
	movq	%rsp, %rbp
	.seh_setframe	%rbp, 0
	subq	$48, %rsp
	.seh_stackalloc	48
	.seh_endprologue
	movq	%rcx, 16(%rbp)
	movq	16(%rbp), %rdx
	leaq	-8(%rbp), %rax
	movq	%rax, %rcx
	call	_ZN9__gnu_cxx17__normal_iteratorIPN3cpr8ResponseESt6vectorIS2_SaIS2_EEEC1ERKS3_
	movq	-8(%rbp), %rax
	addq	$48, %rsp
	popq	%rbp
	ret
	.seh_endproc
	.section	.text$_ZNSt6vectorIN3cpr8ResponseESaIS1_EE3endEv,"x"
	.linkonce discard
	.align 2
	.globl	_ZNSt6vectorIN3cpr8ResponseESaIS1_EE3endEv
	.def	_ZNSt6vectorIN3cpr8ResponseESaIS1_EE3endEv;	.scl	2;	.type	32;	.endef
	.seh_proc	_ZNSt6vectorIN3cpr8ResponseESaIS1_EE3endEv
_ZNSt6vectorIN3cpr8ResponseESaIS1_EE3endEv:
.LFB14289:
	pushq	%rbp
	.seh_pushreg	%rbp
	movq	%rsp, %rbp
	.seh_setframe	%rbp, 0
	subq	$48, %rsp
	.seh_stackalloc	48
	.seh_endprologue
	movq	%rcx, 16(%rbp)
	movq	16(%rbp), %rax
	leaq	8(%rax), %rdx
	leaq	-8(%rbp), %rax
	movq	%rax, %rcx
	call	_ZN9__gnu_cxx17__normal_iteratorIPN3cpr8ResponseESt6vectorIS2_SaIS2_EEEC1ERKS3_
	movq	-8(%rbp), %rax
	addq	$48, %rsp
	popq	%rbp
	ret
	.seh_endproc
	.text
	.def	_ZSt7find_ifIN9__gnu_cxx17__normal_iteratorIPN3cpr8ResponseESt6vectorIS3_SaIS3_EEEEZNS2_12MultiPerform13ReadMultiInfoEOSt8functionIFS3_RNS2_7SessionE8CURLcodeEEEUlRKS3_E_ET_SK_SK_T0_;	.scl	3;	.type	32;	.endef
	.seh_proc	_ZSt7find_ifIN9__gnu_cxx17__normal_iteratorIPN3cpr8ResponseESt6vectorIS3_SaIS3_EEEEZNS2_12MultiPerform13ReadMultiInfoEOSt8functionIFS3_RNS2_7SessionE8CURLcodeEEEUlRKS3_E_ET_SK_SK_T0_
_ZSt7find_ifIN9__gnu_cxx17__normal_iteratorIPN3cpr8ResponseESt6vectorIS3_SaIS3_EEEEZNS2_12MultiPerform13ReadMultiInfoEOSt8functionIFS3_RNS2_7SessionE8CURLcodeEEEUlRKS3_E_ET_SK_SK_T0_:
.LFB14290:
	pushq	%rbp
	.seh_pushreg	%rbp
	movq	%rsp, %rbp
	.seh_setframe	%rbp, 0
	subq	$32, %rsp
	.seh_stackalloc	32
	.seh_endprologue
	movq	%rcx, 16(%rbp)
	movq	%rdx, 24(%rbp)
	movq	%r8, 32(%rbp)
	movq	32(%rbp), %rax
	movq	%rax, %rcx
	call	_ZN9__gnu_cxx5__ops11__pred_iterIZN3cpr12MultiPerform13ReadMultiInfoEOSt8functionIFNS2_8ResponseERNS2_7SessionE8CURLcodeEEEUlRKS5_E_EENS0_10_Iter_predIT_EESG_
	movq	%rax, %rcx
	movq	24(%rbp), %rdx
	movq	16(%rbp), %rax
	movq	%rcx, %r8
	movq	%rax, %rcx
	call	_ZSt9__find_ifIN9__gnu_cxx17__normal_iteratorIPN3cpr8ResponseESt6vectorIS3_SaIS3_EEEENS0_5__ops10_Iter_predIZNS2_12MultiPerform13ReadMultiInfoEOSt8functionIFS3_RNS2_7SessionE8CURLcodeEEEUlRKS3_E_EEET_SN_SN_T0_
	addq	$32, %rsp
	popq	%rbp
	ret
	.seh_endproc
	.section	.text$_ZNK9__gnu_cxx17__normal_iteratorIPN3cpr8ResponseESt6vectorIS2_SaIS2_EEEdeEv,"x"
	.linkonce discard
	.align 2
	.globl	_ZNK9__gnu_cxx17__normal_iteratorIPN3cpr8ResponseESt6vectorIS2_SaIS2_EEEdeEv
	.def	_ZNK9__gnu_cxx17__normal_iteratorIPN3cpr8ResponseESt6vectorIS2_SaIS2_EEEdeEv;	.scl	2;	.type	32;	.endef
	.seh_proc	_ZNK9__gnu_cxx17__normal_iteratorIPN3cpr8ResponseESt6vectorIS2_SaIS2_EEEdeEv
_ZNK9__gnu_cxx17__normal_iteratorIPN3cpr8ResponseESt6vectorIS2_SaIS2_EEEdeEv:
.LFB14291:
	pushq	%rbp
	.seh_pushreg	%rbp
	movq	%rsp, %rbp
	.seh_setframe	%rbp, 0
	.seh_endprologue
	movq	%rcx, 16(%rbp)
	movq	16(%rbp), %rax
	movq	(%rax), %rax
	popq	%rbp
	ret
	.seh_endproc
	.section	.text$_ZNSt8_Rb_treeINSt7__cxx1112basic_stringIcSt11char_traitsIcESaIcEEESt4pairIKS5_S5_ESt10_Select1stIS8_EN3cpr22CaseInsensitiveCompareESaIS8_EEC1ERKSE_,"x"
	.linkonce discard
	.align 2
	.globl	_ZNSt8_Rb_treeINSt7__cxx1112basic_stringIcSt11char_traitsIcESaIcEEESt4pairIKS5_S5_ESt10_Select1stIS8_EN3cpr22CaseInsensitiveCompareESaIS8_EEC1ERKSE_
	.def	_ZNSt8_Rb_treeINSt7__cxx1112basic_stringIcSt11char_traitsIcESaIcEEESt4pairIKS5_S5_ESt10_Select1stIS8_EN3cpr22CaseInsensitiveCompareESaIS8_EEC1ERKSE_;	.scl	2;	.type	32;	.endef
	.seh_proc	_ZNSt8_Rb_treeINSt7__cxx1112basic_stringIcSt11char_traitsIcESaIcEEESt4pairIKS5_S5_ESt10_Select1stIS8_EN3cpr22CaseInsensitiveCompareESaIS8_EEC1ERKSE_
_ZNSt8_Rb_treeINSt7__cxx1112basic_stringIcSt11char_traitsIcESaIcEEESt4pairIKS5_S5_ESt10_Select1stIS8_EN3cpr22CaseInsensitiveCompareESaIS8_EEC1ERKSE_:
.LFB14294:
	pushq	%rbp
	.seh_pushreg	%rbp
	pushq	%rbx
	.seh_pushreg	%rbx
	subq	$40, %rsp
	.seh_stackalloc	40
	leaq	32(%rsp), %rbp
	.seh_setframe	%rbp, 32
	.seh_endprologue
	movq	%rcx, 32(%rbp)
	movq	%rdx, 40(%rbp)
	movq	32(%rbp), %rax
	movq	40(%rbp), %rdx
	movq	%rax, %rcx
.LEHB50:
	call	_ZNSt8_Rb_treeINSt7__cxx1112basic_stringIcSt11char_traitsIcESaIcEEESt4pairIKS5_S5_ESt10_Select1stIS8_EN3cpr22CaseInsensitiveCompareESaIS8_EE13_Rb_tree_implISC_Lb1EEC1ERKSG_
.LEHE50:
	movq	40(%rbp), %rax
	movq	%rax, %rcx
	call	_ZNKSt8_Rb_treeINSt7__cxx1112basic_stringIcSt11char_traitsIcESaIcEEESt4pairIKS5_S5_ESt10_Select1stIS8_EN3cpr22CaseInsensitiveCompareESaIS8_EE7_M_rootEv
	testq	%rax, %rax
	setne	%al
	testb	%al, %al
	je	.L380
	movq	40(%rbp), %rdx
	movq	32(%rbp), %rax
	movq	%rax, %rcx
.LEHB51:
	call	_ZNSt8_Rb_treeINSt7__cxx1112basic_stringIcSt11char_traitsIcESaIcEEESt4pairIKS5_S5_ESt10_Select1stIS8_EN3cpr22CaseInsensitiveCompareESaIS8_EE7_M_copyERKSE_
.LEHE51:
	movq	%rax, %rbx
	movq	32(%rbp), %rax
	movq	%rax, %rcx
	call	_ZNSt8_Rb_treeINSt7__cxx1112basic_stringIcSt11char_traitsIcESaIcEEESt4pairIKS5_S5_ESt10_Select1stIS8_EN3cpr22CaseInsensitiveCompareESaIS8_EE7_M_rootEv
	movq	%rbx, (%rax)
	jmp	.L380
.L379:
	movq	%rax, %rbx
	movq	32(%rbp), %rax
	movq	%rax, %rcx
	call	_ZNSt8_Rb_treeINSt7__cxx1112basic_stringIcSt11char_traitsIcESaIcEEESt4pairIKS5_S5_ESt10_Select1stIS8_EN3cpr22CaseInsensitiveCompareESaIS8_EE13_Rb_tree_implISC_Lb1EED1Ev
	movq	%rbx, %rax
	movq	%rax, %rcx
.LEHB52:
	call	_Unwind_Resume
.LEHE52:
.L380:
	nop
	addq	$40, %rsp
	popq	%rbx
	popq	%rbp
	ret
	.seh_handler	__gxx_personality_seh0, @unwind, @except
	.seh_handlerdata
.LLSDA14294:
	.byte	0xff
	.byte	0xff
	.byte	0x1
	.uleb128 .LLSDACSE14294-.LLSDACSB14294
.LLSDACSB14294:
	.uleb128 .LEHB50-.LFB14294
	.uleb128 .LEHE50-.LEHB50
	.uleb128 0
	.uleb128 0
	.uleb128 .LEHB51-.LFB14294
	.uleb128 .LEHE51-.LEHB51
	.uleb128 .L379-.LFB14294
	.uleb128 0
	.uleb128 .LEHB52-.LFB14294
	.uleb128 .LEHE52-.LEHB52
	.uleb128 0
	.uleb128 0
.LLSDACSE14294:
	.section	.text$_ZNSt8_Rb_treeINSt7__cxx1112basic_stringIcSt11char_traitsIcESaIcEEESt4pairIKS5_S5_ESt10_Select1stIS8_EN3cpr22CaseInsensitiveCompareESaIS8_EEC1ERKSE_,"x"
	.linkonce discard
	.seh_endproc
	.section	.text$_ZNSt6vectorIN3cpr6CookieESaIS1_EEC1ERKS3_,"x"
	.linkonce discard
	.align 2
	.globl	_ZNSt6vectorIN3cpr6CookieESaIS1_EEC1ERKS3_
	.def	_ZNSt6vectorIN3cpr6CookieESaIS1_EEC1ERKS3_;	.scl	2;	.type	32;	.endef
	.seh_proc	_ZNSt6vectorIN3cpr6CookieESaIS1_EEC1ERKS3_
_ZNSt6vectorIN3cpr6CookieESaIS1_EEC1ERKS3_:
.LFB14297:
	pushq	%rbp
	.seh_pushreg	%rbp
	pushq	%rdi
	.seh_pushreg	%rdi
	pushq	%rsi
	.seh_pushreg	%rsi
	pushq	%rbx
	.seh_pushreg	%rbx
	subq	$104, %rsp
	.seh_stackalloc	104
	leaq	96(%rsp), %rbp
	.seh_setframe	%rbp, 96
	.seh_endprologue
	movq	%rcx, 48(%rbp)
	movq	%rdx, 56(%rbp)
	movq	48(%rbp), %rbx
	movq	56(%rbp), %rax
	movq	%rax, %rcx
	call	_ZNKSt12_Vector_baseIN3cpr6CookieESaIS1_EE19_M_get_Tp_allocatorEv
	movq	%rax, -8(%rbp)
	leaq	-49(%rbp), %rax
	movq	-8(%rbp), %rdx
	movq	%rdx, -16(%rbp)
	movq	%rax, -24(%rbp)
	movq	-16(%rbp), %rax
	movq	%rax, -32(%rbp)
	movq	-24(%rbp), %rax
	movq	%rax, -40(%rbp)
	movq	-32(%rbp), %rax
	movq	%rax, -48(%rbp)
	nop
	nop
	nop
	nop
	movq	56(%rbp), %rax
	movq	%rax, %rcx
	call	_ZNKSt6vectorIN3cpr6CookieESaIS1_EE4sizeEv
	leaq	-49(%rbp), %rdx
	movq	%rdx, %r8
	movq	%rax, %rdx
	movq	%rbx, %rcx
.LEHB53:
	call	_ZNSt12_Vector_baseIN3cpr6CookieESaIS1_EEC2EyRKS2_
.LEHE53:
	leaq	-49(%rbp), %rax
	movq	%rax, %rcx
	call	_ZNSt15__new_allocatorIN3cpr6CookieEED2Ev
	nop
	movq	48(%rbp), %rax
	movq	%rax, %rcx
	call	_ZNSt12_Vector_baseIN3cpr6CookieESaIS1_EE19_M_get_Tp_allocatorEv
	movq	%rax, %rsi
	movq	48(%rbp), %rax
	movq	(%rax), %rdi
	movq	56(%rbp), %rax
	movq	%rax, %rcx
	call	_ZNKSt6vectorIN3cpr6CookieESaIS1_EE3endEv
	movq	%rax, %rbx
	movq	56(%rbp), %rax
	movq	%rax, %rcx
	call	_ZNKSt6vectorIN3cpr6CookieESaIS1_EE5beginEv
	movq	%rsi, %r9
	movq	%rdi, %r8
	movq	%rbx, %rdx
	movq	%rax, %rcx
.LEHB54:
	call	_ZSt22__uninitialized_copy_aIN9__gnu_cxx17__normal_iteratorIPKN3cpr6CookieESt6vectorIS3_SaIS3_EEEEPS3_S3_ET0_T_SC_SB_RSaIT1_E
.LEHE54:
	movq	48(%rbp), %rdx
	movq	%rax, 8(%rdx)
	jmp	.L388
.L386:
	movq	%rax, %rbx
	leaq	-49(%rbp), %rax
	movq	%rax, %rcx
	call	_ZNSt15__new_allocatorIN3cpr6CookieEED2Ev
	nop
	movq	%rbx, %rax
	movq	%rax, %rcx
.LEHB55:
	call	_Unwind_Resume
.L387:
	movq	%rax, %rbx
	movq	48(%rbp), %rax
	movq	%rax, %rcx
	call	_ZNSt12_Vector_baseIN3cpr6CookieESaIS1_EED2Ev
	movq	%rbx, %rax
	movq	%rax, %rcx
	call	_Unwind_Resume
	nop
.LEHE55:
.L388:
	addq	$104, %rsp
	popq	%rbx
	popq	%rsi
	popq	%rdi
	popq	%rbp
	ret
	.seh_handler	__gxx_personality_seh0, @unwind, @except
	.seh_handlerdata
.LLSDA14297:
	.byte	0xff
	.byte	0xff
	.byte	0x1
	.uleb128 .LLSDACSE14297-.LLSDACSB14297
.LLSDACSB14297:
	.uleb128 .LEHB53-.LFB14297
	.uleb128 .LEHE53-.LEHB53
	.uleb128 .L386-.LFB14297
	.uleb128 0
	.uleb128 .LEHB54-.LFB14297
	.uleb128 .LEHE54-.LEHB54
	.uleb128 .L387-.LFB14297
	.uleb128 0
	.uleb128 .LEHB55-.LFB14297
	.uleb128 .LEHE55-.LEHB55
	.uleb128 0
	.uleb128 0
.LLSDACSE14297:
	.section	.text$_ZNSt6vectorIN3cpr6CookieESaIS1_EEC1ERKS3_,"x"
	.linkonce discard
	.seh_endproc
	.section	.text$_ZN9__gnu_cxx17__normal_iteratorIPKN3cpr8ResponseESt6vectorIS2_SaIS2_EEEC1IPS2_vEERKNS0_IT_S7_EE,"x"
	.linkonce discard
	.align 2
	.globl	_ZN9__gnu_cxx17__normal_iteratorIPKN3cpr8ResponseESt6vectorIS2_SaIS2_EEEC1IPS2_vEERKNS0_IT_S7_EE
	.def	_ZN9__gnu_cxx17__normal_iteratorIPKN3cpr8ResponseESt6vectorIS2_SaIS2_EEEC1IPS2_vEERKNS0_IT_S7_EE;	.scl	2;	.type	32;	.endef
	.seh_proc	_ZN9__gnu_cxx17__normal_iteratorIPKN3cpr8ResponseESt6vectorIS2_SaIS2_EEEC1IPS2_vEERKNS0_IT_S7_EE
_ZN9__gnu_cxx17__normal_iteratorIPKN3cpr8ResponseESt6vectorIS2_SaIS2_EEEC1IPS2_vEERKNS0_IT_S7_EE:
.LFB14300:
	pushq	%rbp
	.seh_pushreg	%rbp
	movq	%rsp, %rbp
	.seh_setframe	%rbp, 0
	subq	$32, %rsp
	.seh_stackalloc	32
	.seh_endprologue
	movq	%rcx, 16(%rbp)
	movq	%rdx, 24(%rbp)
	movq	24(%rbp), %rax
	movq	%rax, %rcx
	call	_ZNK9__gnu_cxx17__normal_iteratorIPN3cpr8ResponseESt6vectorIS2_SaIS2_EEE4baseEv
	movq	(%rax), %rdx
	movq	16(%rbp), %rax
	movq	%rdx, (%rax)
	nop
	addq	$32, %rsp
	popq	%rbp
	ret
	.seh_endproc
	.section	.text$_ZNSt6vectorIN3cpr8ResponseESaIS1_EE5eraseEN9__gnu_cxx17__normal_iteratorIPKS1_S3_EE,"x"
	.linkonce discard
	.align 2
	.globl	_ZNSt6vectorIN3cpr8ResponseESaIS1_EE5eraseEN9__gnu_cxx17__normal_iteratorIPKS1_S3_EE
	.def	_ZNSt6vectorIN3cpr8ResponseESaIS1_EE5eraseEN9__gnu_cxx17__normal_iteratorIPKS1_S3_EE;	.scl	2;	.type	32;	.endef
	.seh_proc	_ZNSt6vectorIN3cpr8ResponseESaIS1_EE5eraseEN9__gnu_cxx17__normal_iteratorIPKS1_S3_EE
_ZNSt6vectorIN3cpr8ResponseESaIS1_EE5eraseEN9__gnu_cxx17__normal_iteratorIPKS1_S3_EE:
.LFB14301:
	pushq	%rbp
	.seh_pushreg	%rbp
	pushq	%rbx
	.seh_pushreg	%rbx
	subq	$56, %rsp
	.seh_stackalloc	56
	leaq	48(%rsp), %rbp
	.seh_setframe	%rbp, 48
	.seh_endprologue
	movq	%rcx, 32(%rbp)
	movq	%rdx, 40(%rbp)
	movq	32(%rbp), %rax
	movq	%rax, %rcx
	call	_ZNKSt6vectorIN3cpr8ResponseESaIS1_EE6cbeginEv
	movq	%rax, -16(%rbp)
	leaq	-16(%rbp), %rdx
	leaq	40(%rbp), %rax
	movq	%rax, %rcx
	call	_ZN9__gnu_cxxmiIPKN3cpr8ResponseESt6vectorIS2_SaIS2_EEEENS_17__normal_iteratorIT_T0_E15difference_typeERKSB_SE_
	movq	%rax, %rbx
	movq	32(%rbp), %rax
	movq	%rax, %rcx
	call	_ZNSt6vectorIN3cpr8ResponseESaIS1_EE5beginEv
	movq	%rax, -8(%rbp)
	leaq	-8(%rbp), %rax
	movq	%rbx, %rdx
	movq	%rax, %rcx
	call	_ZNK9__gnu_cxx17__normal_iteratorIPN3cpr8ResponseESt6vectorIS2_SaIS2_EEEplEx
	movq	%rax, %rdx
	movq	32(%rbp), %rax
	movq	%rax, %rcx
	call	_ZNSt6vectorIN3cpr8ResponseESaIS1_EE8_M_eraseEN9__gnu_cxx17__normal_iteratorIPS1_S3_EE
	addq	$56, %rsp
	popq	%rbx
	popq	%rbp
	ret
	.seh_endproc
	.section	.text$_ZNSt6vectorIN3cpr8ResponseESaIS1_EE9push_backERKS1_,"x"
	.linkonce discard
	.align 2
	.globl	_ZNSt6vectorIN3cpr8ResponseESaIS1_EE9push_backERKS1_
	.def	_ZNSt6vectorIN3cpr8ResponseESaIS1_EE9push_backERKS1_;	.scl	2;	.type	32;	.endef
	.seh_proc	_ZNSt6vectorIN3cpr8ResponseESaIS1_EE9push_backERKS1_
_ZNSt6vectorIN3cpr8ResponseESaIS1_EE9push_backERKS1_:
.LFB14302:
	pushq	%rbp
	.seh_pushreg	%rbp
	pushq	%r12
	.seh_pushreg	%r12
	pushq	%rdi
	.seh_pushreg	%rdi
	pushq	%rsi
	.seh_pushreg	%rsi
	pushq	%rbx
	.seh_pushreg	%rbx
	subq	$80, %rsp
	.seh_stackalloc	80
	leaq	80(%rsp), %rbp
	.seh_setframe	%rbp, 80
	.seh_endprologue
	movq	%rcx, 48(%rbp)
	movq	%rdx, 56(%rbp)
	movq	48(%rbp), %rax
	movq	8(%rax), %rdx
	movq	48(%rbp), %rax
	movq	16(%rax), %rax
	cmpq	%rax, %rdx
	je	.L393
	movq	48(%rbp), %rax
	movq	8(%rax), %rax
	movq	48(%rbp), %rdx
	movq	%rdx, -8(%rbp)
	movq	%rax, -16(%rbp)
	movq	56(%rbp), %rax
	movq	%rax, -24(%rbp)
	movq	-24(%rbp), %rax
	movq	%rax, %rcx
	call	_ZSt7forwardIRKN3cpr8ResponseEEOT_RNSt16remove_referenceIS4_E4typeE
	movq	-16(%rbp), %rdx
	movq	%rdx, -32(%rbp)
	movq	%rax, -40(%rbp)
	movq	-8(%rbp), %rax
	movq	%rax, -48(%rbp)
	movq	-32(%rbp), %rbx
	movq	%rbx, %rdx
	movl	$344, %ecx
	call	_ZnwyPv
	movq	%rax, %rsi
	movl	$1, %r12d
	movq	-40(%rbp), %rax
	movq	%rax, %rcx
	call	_ZSt7forwardIRKN3cpr8ResponseEEOT_RNSt16remove_referenceIS4_E4typeE
	movq	%rax, %rdx
	movq	%rsi, %rcx
.LEHB56:
	call	_ZN3cpr8ResponseC1ERKS0_
.LEHE56:
	nop
	nop
	movq	48(%rbp), %rax
	movq	8(%rax), %rax
	leaq	344(%rax), %rdx
	movq	48(%rbp), %rax
	movq	%rdx, 8(%rax)
	jmp	.L399
.L398:
	movq	%rax, %rdi
	testb	%r12b, %r12b
	je	.L396
	movq	%rbx, %rdx
	movq	%rsi, %rcx
	call	_ZdlPvS_
.L396:
	movq	%rdi, %rax
	movq	%rax, %rcx
.LEHB57:
	call	_Unwind_Resume
.L393:
	movq	56(%rbp), %rdx
	movq	48(%rbp), %rax
	movq	%rax, %rcx
	call	_ZNSt6vectorIN3cpr8ResponseESaIS1_EE17_M_realloc_appendIJRKS1_EEEvDpOT_
.LEHE57:
.L399:
	nop
	addq	$80, %rsp
	popq	%rbx
	popq	%rsi
	popq	%rdi
	popq	%r12
	popq	%rbp
	ret
	.seh_handler	__gxx_personality_seh0, @unwind, @except
	.seh_handlerdata
.LLSDA14302:
	.byte	0xff
	.byte	0xff
	.byte	0x1
	.uleb128 .LLSDACSE14302-.LLSDACSB14302
.LLSDACSB14302:
	.uleb128 .LEHB56-.LFB14302
	.uleb128 .LEHE56-.LEHB56
	.uleb128 .L398-.LFB14302
	.uleb128 0
	.uleb128 .LEHB57-.LFB14302
	.uleb128 .LEHE57-.LEHB57
	.uleb128 0
	.uleb128 0
.LLSDACSE14302:
	.section	.text$_ZNSt6vectorIN3cpr8ResponseESaIS1_EE9push_backERKS1_,"x"
	.linkonce discard
	.seh_endproc
	.section	.text$_ZNKSt5queueISt10shared_ptrIN3cpr16InterceptorMultiEESt5dequeIS3_SaIS3_EEE5emptyEv,"x"
	.linkonce discard
	.align 2
	.globl	_ZNKSt5queueISt10shared_ptrIN3cpr16InterceptorMultiEESt5dequeIS3_SaIS3_EEE5emptyEv
	.def	_ZNKSt5queueISt10shared_ptrIN3cpr16InterceptorMultiEESt5dequeIS3_SaIS3_EEE5emptyEv;	.scl	2;	.type	32;	.endef
	.seh_proc	_ZNKSt5queueISt10shared_ptrIN3cpr16InterceptorMultiEESt5dequeIS3_SaIS3_EEE5emptyEv
_ZNKSt5queueISt10shared_ptrIN3cpr16InterceptorMultiEESt5dequeIS3_SaIS3_EEE5emptyEv:
.LFB14307:
	pushq	%rbp
	.seh_pushreg	%rbp
	movq	%rsp, %rbp
	.seh_setframe	%rbp, 0
	subq	$32, %rsp
	.seh_stackalloc	32
	.seh_endprologue
	movq	%rcx, 16(%rbp)
	movq	16(%rbp), %rax
	movq	%rax, %rcx
	call	_ZNKSt5dequeISt10shared_ptrIN3cpr16InterceptorMultiEESaIS3_EE5emptyEv
	addq	$32, %rsp
	popq	%rbp
	ret
	.seh_endproc
	.text
	.align 2
	.def	_ZNSt8functionIFN3cpr8ResponseERNS0_7SessionE8CURLcodeEEC2IZNS0_12MultiPerform11MakeRequestEvEUlS3_S4_E_vEEOT_;	.scl	3;	.type	32;	.endef
	.seh_proc	_ZNSt8functionIFN3cpr8ResponseERNS0_7SessionE8CURLcodeEEC2IZNS0_12MultiPerform11MakeRequestEvEUlS3_S4_E_vEEOT_
_ZNSt8functionIFN3cpr8ResponseERNS0_7SessionE8CURLcodeEEC2IZNS0_12MultiPerform11MakeRequestEvEUlS3_S4_E_vEEOT_:
.LFB14309:
	pushq	%rbp
	.seh_pushreg	%rbp
	movq	%rsp, %rbp
	.seh_setframe	%rbp, 0
	subq	$32, %rsp
	.seh_stackalloc	32
	.seh_endprologue
	movq	%rcx, 16(%rbp)
	movq	%rdx, 24(%rbp)
	movq	16(%rbp), %rax
	pxor	%xmm0, %xmm0
	movups	%xmm0, (%rax)
	movq	%xmm0, 16(%rax)
	movq	16(%rbp), %rax
	movq	%rax, %rcx
	call	_ZNSt14_Function_baseC2Ev
	movq	16(%rbp), %rax
	movq	$0, 24(%rax)
	movq	24(%rbp), %rax
	movq	%rax, %rcx
	call	_ZNSt14_Function_base13_Base_managerIZN3cpr12MultiPerform11MakeRequestEvEUlRNS1_7SessionE8CURLcodeE_E21_M_not_empty_functionIS6_EEbRKT_
	testb	%al, %al
	je	.L404
	movq	24(%rbp), %rax
	movq	%rax, %rcx
	call	_ZSt7forwardIZN3cpr12MultiPerform11MakeRequestEvEUlRNS0_7SessionE8CURLcodeE_EOT_RNSt16remove_referenceIS6_E4typeE
	movq	%rax, %rdx
	movq	16(%rbp), %rax
	movq	%rax, %rcx
	call	_ZNSt14_Function_base13_Base_managerIZN3cpr12MultiPerform11MakeRequestEvEUlRNS1_7SessionE8CURLcodeE_E15_M_init_functorIS6_EEvRSt9_Any_dataOT_
	movq	16(%rbp), %rax
	leaq	_ZNSt17_Function_handlerIFN3cpr8ResponseERNS0_7SessionE8CURLcodeEZNS0_12MultiPerform11MakeRequestEvEUlS3_S4_E_E9_M_invokeERKSt9_Any_dataS3_OS4_(%rip), %rdx
	movq	%rdx, 24(%rax)
	movq	16(%rbp), %rax
	leaq	_ZNSt17_Function_handlerIFN3cpr8ResponseERNS0_7SessionE8CURLcodeEZNS0_12MultiPerform11MakeRequestEvEUlS3_S4_E_E10_M_managerERSt9_Any_dataRKS9_St18_Manager_operation(%rip), %rdx
	movq	%rdx, 16(%rax)
.L404:
	nop
	addq	$32, %rsp
	popq	%rbp
	ret
	.seh_endproc
	.def	_ZNSt8functionIFN3cpr8ResponseERNS0_7SessionE8CURLcodeEEC1IZNS0_12MultiPerform11MakeRequestEvEUlS3_S4_E_vEEOT_;	.scl	3;	.type	32;	.endef
	.set	_ZNSt8functionIFN3cpr8ResponseERNS0_7SessionE8CURLcodeEEC1IZNS0_12MultiPerform11MakeRequestEvEUlS3_S4_E_vEEOT_,_ZNSt8functionIFN3cpr8ResponseERNS0_7SessionE8CURLcodeEEC2IZNS0_12MultiPerform11MakeRequestEvEUlS3_S4_E_vEEOT_
	.align 2
	.def	_ZNSt8functionIFN3cpr8ResponseERNS0_7SessionE8CURLcodeEEC2IZNS0_12MultiPerform19MakeDownloadRequestEvEUlS3_S4_E_vEEOT_;	.scl	3;	.type	32;	.endef
	.seh_proc	_ZNSt8functionIFN3cpr8ResponseERNS0_7SessionE8CURLcodeEEC2IZNS0_12MultiPerform19MakeDownloadRequestEvEUlS3_S4_E_vEEOT_
_ZNSt8functionIFN3cpr8ResponseERNS0_7SessionE8CURLcodeEEC2IZNS0_12MultiPerform19MakeDownloadRequestEvEUlS3_S4_E_vEEOT_:
.LFB14312:
	pushq	%rbp
	.seh_pushreg	%rbp
	movq	%rsp, %rbp
	.seh_setframe	%rbp, 0
	subq	$32, %rsp
	.seh_stackalloc	32
	.seh_endprologue
	movq	%rcx, 16(%rbp)
	movq	%rdx, 24(%rbp)
	movq	16(%rbp), %rax
	pxor	%xmm0, %xmm0
	movups	%xmm0, (%rax)
	movq	%xmm0, 16(%rax)
	movq	16(%rbp), %rax
	movq	%rax, %rcx
	call	_ZNSt14_Function_baseC2Ev
	movq	16(%rbp), %rax
	movq	$0, 24(%rax)
	movq	24(%rbp), %rax
	movq	%rax, %rcx
	call	_ZNSt14_Function_base13_Base_managerIZN3cpr12MultiPerform19MakeDownloadRequestEvEUlRNS1_7SessionE8CURLcodeE_E21_M_not_empty_functionIS6_EEbRKT_
	testb	%al, %al
	je	.L407
	movq	24(%rbp), %rax
	movq	%rax, %rcx
	call	_ZSt7forwardIZN3cpr12MultiPerform19MakeDownloadRequestEvEUlRNS0_7SessionE8CURLcodeE_EOT_RNSt16remove_referenceIS6_E4typeE
	movq	%rax, %rdx
	movq	16(%rbp), %rax
	movq	%rax, %rcx
	call	_ZNSt14_Function_base13_Base_managerIZN3cpr12MultiPerform19MakeDownloadRequestEvEUlRNS1_7SessionE8CURLcodeE_E15_M_init_functorIS6_EEvRSt9_Any_dataOT_
	movq	16(%rbp), %rax
	leaq	_ZNSt17_Function_handlerIFN3cpr8ResponseERNS0_7SessionE8CURLcodeEZNS0_12MultiPerform19MakeDownloadRequestEvEUlS3_S4_E_E9_M_invokeERKSt9_Any_dataS3_OS4_(%rip), %rdx
	movq	%rdx, 24(%rax)
	movq	16(%rbp), %rax
	leaq	_ZNSt17_Function_handlerIFN3cpr8ResponseERNS0_7SessionE8CURLcodeEZNS0_12MultiPerform19MakeDownloadRequestEvEUlS3_S4_E_E10_M_managerERSt9_Any_dataRKS9_St18_Manager_operation(%rip), %rdx
	movq	%rdx, 16(%rax)
.L407:
	nop
	addq	$32, %rsp
	popq	%rbp
	ret
	.seh_endproc
	.def	_ZNSt8functionIFN3cpr8ResponseERNS0_7SessionE8CURLcodeEEC1IZNS0_12MultiPerform19MakeDownloadRequestEvEUlS3_S4_E_vEEOT_;	.scl	3;	.type	32;	.endef
	.set	_ZNSt8functionIFN3cpr8ResponseERNS0_7SessionE8CURLcodeEEC1IZNS0_12MultiPerform19MakeDownloadRequestEvEUlS3_S4_E_vEEOT_,_ZNSt8functionIFN3cpr8ResponseERNS0_7SessionE8CURLcodeEEC2IZNS0_12MultiPerform19MakeDownloadRequestEvEUlS3_S4_E_vEEOT_
	.section	.text$_ZNSt6vectorISt4pairISt10shared_ptrIN3cpr7SessionEENS2_12MultiPerform10HttpMethodEESaIS7_EEixEy,"x"
	.linkonce discard
	.align 2
	.globl	_ZNSt6vectorISt4pairISt10shared_ptrIN3cpr7SessionEENS2_12MultiPerform10HttpMethodEESaIS7_EEixEy
	.def	_ZNSt6vectorISt4pairISt10shared_ptrIN3cpr7SessionEENS2_12MultiPerform10HttpMethodEESaIS7_EEixEy;	.scl	2;	.type	32;	.endef
	.seh_proc	_ZNSt6vectorISt4pairISt10shared_ptrIN3cpr7SessionEENS2_12MultiPerform10HttpMethodEESaIS7_EEixEy
_ZNSt6vectorISt4pairISt10shared_ptrIN3cpr7SessionEENS2_12MultiPerform10HttpMethodEESaIS7_EEixEy:
.LFB14314:
	pushq	%rbp
	.seh_pushreg	%rbp
	movq	%rsp, %rbp
	.seh_setframe	%rbp, 0
	.seh_endprologue
	movq	%rcx, 16(%rbp)
	movq	%rdx, 24(%rbp)
	movq	16(%rbp), %rax
	movq	(%rax), %rcx
	movq	24(%rbp), %rdx
	movq	%rdx, %rax
	addq	%rax, %rax
	addq	%rdx, %rax
	salq	$3, %rax
	addq	%rcx, %rax
	popq	%rbp
	ret
	.seh_endproc
	.section	.text$_ZNSt6vectorISt4pairISt10shared_ptrIN3cpr7SessionEENS2_12MultiPerform10HttpMethodEESaIS7_EE5frontEv,"x"
	.linkonce discard
	.align 2
	.globl	_ZNSt6vectorISt4pairISt10shared_ptrIN3cpr7SessionEENS2_12MultiPerform10HttpMethodEESaIS7_EE5frontEv
	.def	_ZNSt6vectorISt4pairISt10shared_ptrIN3cpr7SessionEENS2_12MultiPerform10HttpMethodEESaIS7_EE5frontEv;	.scl	2;	.type	32;	.endef
	.seh_proc	_ZNSt6vectorISt4pairISt10shared_ptrIN3cpr7SessionEENS2_12MultiPerform10HttpMethodEESaIS7_EE5frontEv
_ZNSt6vectorISt4pairISt10shared_ptrIN3cpr7SessionEENS2_12MultiPerform10HttpMethodEESaIS7_EE5frontEv:
.LFB14315:
	pushq	%rbp
	.seh_pushreg	%rbp
	movq	%rsp, %rbp
	.seh_setframe	%rbp, 0
	subq	$48, %rsp
	.seh_stackalloc	48
	.seh_endprologue
	movq	%rcx, 16(%rbp)
	movq	16(%rbp), %rax
	movq	%rax, %rcx
	call	_ZNSt6vectorISt4pairISt10shared_ptrIN3cpr7SessionEENS2_12MultiPerform10HttpMethodEESaIS7_EE5beginEv
	movq	%rax, -8(%rbp)
	leaq	-8(%rbp), %rax
	movq	%rax, %rcx
	call	_ZNK9__gnu_cxx17__normal_iteratorIPSt4pairISt10shared_ptrIN3cpr7SessionEENS3_12MultiPerform10HttpMethodEESt6vectorIS8_SaIS8_EEEdeEv
	addq	$48, %rsp
	popq	%rbp
	ret
	.seh_endproc
	.section	.text$_ZNSt5queueISt10shared_ptrIN3cpr16InterceptorMultiEESt5dequeIS3_SaIS3_EEE5frontEv,"x"
	.linkonce discard
	.align 2
	.globl	_ZNSt5queueISt10shared_ptrIN3cpr16InterceptorMultiEESt5dequeIS3_SaIS3_EEE5frontEv
	.def	_ZNSt5queueISt10shared_ptrIN3cpr16InterceptorMultiEESt5dequeIS3_SaIS3_EEE5frontEv;	.scl	2;	.type	32;	.endef
	.seh_proc	_ZNSt5queueISt10shared_ptrIN3cpr16InterceptorMultiEESt5dequeIS3_SaIS3_EEE5frontEv
_ZNSt5queueISt10shared_ptrIN3cpr16InterceptorMultiEESt5dequeIS3_SaIS3_EEE5frontEv:
.LFB14316:
	pushq	%rbp
	.seh_pushreg	%rbp
	movq	%rsp, %rbp
	.seh_setframe	%rbp, 0
	subq	$32, %rsp
	.seh_stackalloc	32
	.seh_endprologue
	movq	%rcx, 16(%rbp)
	movq	16(%rbp), %rax
	movq	%rax, %rcx
	call	_ZNSt5dequeISt10shared_ptrIN3cpr16InterceptorMultiEESaIS3_EE5frontEv
	addq	$32, %rsp
	popq	%rbp
	ret
	.seh_endproc
	.section	.text$_ZNSt5queueISt10shared_ptrIN3cpr16InterceptorMultiEESt5dequeIS3_SaIS3_EEE3popEv,"x"
	.linkonce discard
	.align 2
	.globl	_ZNSt5queueISt10shared_ptrIN3cpr16InterceptorMultiEESt5dequeIS3_SaIS3_EEE3popEv
	.def	_ZNSt5queueISt10shared_ptrIN3cpr16InterceptorMultiEESt5dequeIS3_SaIS3_EEE3popEv;	.scl	2;	.type	32;	.endef
	.seh_proc	_ZNSt5queueISt10shared_ptrIN3cpr16InterceptorMultiEESt5dequeIS3_SaIS3_EEE3popEv
_ZNSt5queueISt10shared_ptrIN3cpr16InterceptorMultiEESt5dequeIS3_SaIS3_EEE3popEv:
.LFB14317:
	pushq	%rbp
	.seh_pushreg	%rbp
	movq	%rsp, %rbp
	.seh_setframe	%rbp, 0
	subq	$32, %rsp
	.seh_stackalloc	32
	.seh_endprologue
	movq	%rcx, 16(%rbp)
	movq	16(%rbp), %rax
	movq	%rax, %rcx
	call	_ZNSt5dequeISt10shared_ptrIN3cpr16InterceptorMultiEESaIS3_EE9pop_frontEv
	nop
	addq	$32, %rsp
	popq	%rbp
	ret
	.seh_endproc
	.section	.text$_ZNKSt19__shared_ptr_accessIN3cpr16InterceptorMultiELN9__gnu_cxx12_Lock_policyE2ELb0ELb0EEptEv,"x"
	.linkonce discard
	.align 2
	.globl	_ZNKSt19__shared_ptr_accessIN3cpr16InterceptorMultiELN9__gnu_cxx12_Lock_policyE2ELb0ELb0EEptEv
	.def	_ZNKSt19__shared_ptr_accessIN3cpr16InterceptorMultiELN9__gnu_cxx12_Lock_policyE2ELb0ELb0EEptEv;	.scl	2;	.type	32;	.endef
	.seh_proc	_ZNKSt19__shared_ptr_accessIN3cpr16InterceptorMultiELN9__gnu_cxx12_Lock_policyE2ELb0ELb0EEptEv
_ZNKSt19__shared_ptr_accessIN3cpr16InterceptorMultiELN9__gnu_cxx12_Lock_policyE2ELb0ELb0EEptEv:
.LFB14318:
	pushq	%rbp
	.seh_pushreg	%rbp
	movq	%rsp, %rbp
	.seh_setframe	%rbp, 0
	subq	$32, %rsp
	.seh_stackalloc	32
	.seh_endprologue
	movq	%rcx, 16(%rbp)
	movq	16(%rbp), %rax
	movq	%rax, %rcx
	call	_ZNKSt19__shared_ptr_accessIN3cpr16InterceptorMultiELN9__gnu_cxx12_Lock_policyE2ELb0ELb0EE6_M_getEv
	addq	$32, %rsp
	popq	%rbp
	ret
	.seh_endproc
	.section	.text$_ZNSt5queueISt10shared_ptrIN3cpr16InterceptorMultiEESt5dequeIS3_SaIS3_EEE4pushERKS3_,"x"
	.linkonce discard
	.align 2
	.globl	_ZNSt5queueISt10shared_ptrIN3cpr16InterceptorMultiEESt5dequeIS3_SaIS3_EEE4pushERKS3_
	.def	_ZNSt5queueISt10shared_ptrIN3cpr16InterceptorMultiEESt5dequeIS3_SaIS3_EEE4pushERKS3_;	.scl	2;	.type	32;	.endef
	.seh_proc	_ZNSt5queueISt10shared_ptrIN3cpr16InterceptorMultiEESt5dequeIS3_SaIS3_EEE4pushERKS3_
_ZNSt5queueISt10shared_ptrIN3cpr16InterceptorMultiEESt5dequeIS3_SaIS3_EEE4pushERKS3_:
.LFB14319:
	pushq	%rbp
	.seh_pushreg	%rbp
	movq	%rsp, %rbp
	.seh_setframe	%rbp, 0
	subq	$32, %rsp
	.seh_stackalloc	32
	.seh_endprologue
	movq	%rcx, 16(%rbp)
	movq	%rdx, 24(%rbp)
	movq	16(%rbp), %rax
	movq	24(%rbp), %rdx
	movq	%rax, %rcx
	call	_ZNSt5dequeISt10shared_ptrIN3cpr16InterceptorMultiEESaIS3_EE9push_backERKS3_
	nop
	addq	$32, %rsp
	popq	%rbp
	ret
	.seh_endproc
	.section	.text$_ZNSt16_Sp_counted_baseILN9__gnu_cxx12_Lock_policyE2EE19_M_release_last_useEv,"x"
	.linkonce discard
	.align 2
	.globl	_ZNSt16_Sp_counted_baseILN9__gnu_cxx12_Lock_policyE2EE19_M_release_last_useEv
	.def	_ZNSt16_Sp_counted_baseILN9__gnu_cxx12_Lock_policyE2EE19_M_release_last_useEv;	.scl	2;	.type	32;	.endef
	.seh_proc	_ZNSt16_Sp_counted_baseILN9__gnu_cxx12_Lock_policyE2EE19_M_release_last_useEv
_ZNSt16_Sp_counted_baseILN9__gnu_cxx12_Lock_policyE2EE19_M_release_last_useEv:
.LFB14329:
	pushq	%rbp
	.seh_pushreg	%rbp
	movq	%rsp, %rbp
	.seh_setframe	%rbp, 0
	subq	$80, %rsp
	.seh_stackalloc	80
	.seh_endprologue
	movq	%rcx, 16(%rbp)
	movq	16(%rbp), %rax
	movq	(%rax), %rax
	addq	$16, %rax
	movq	(%rax), %rdx
	movq	16(%rbp), %rax
	movq	%rax, %rcx
	call	*%rdx
	movq	16(%rbp), %rax
	addq	$12, %rax
	movq	%rax, -8(%rbp)
	movl	$-1, -12(%rbp)
	call	_ZL18__gthread_active_pv
	testl	%eax, %eax
	sete	%al
	testb	%al, %al
	je	.L420
	movq	-8(%rbp), %rax
	movq	%rax, -24(%rbp)
	movl	-12(%rbp), %eax
	movl	%eax, -28(%rbp)
	movq	-24(%rbp), %rax
	movl	(%rax), %eax
	movl	%eax, -32(%rbp)
	movq	-24(%rbp), %rax
	movl	(%rax), %edx
	movl	-28(%rbp), %eax
	addl	%eax, %edx
	movq	-24(%rbp), %rax
	movl	%edx, (%rax)
	movl	-32(%rbp), %eax
	jmp	.L422
.L420:
	movq	-8(%rbp), %rax
	movq	%rax, -40(%rbp)
	movl	-12(%rbp), %eax
	movl	%eax, -44(%rbp)
	movl	-44(%rbp), %edx
	movq	-40(%rbp), %rax
	lock xaddl	%edx, (%rax)
	movl	%edx, %eax
	nop
.L422:
	cmpl	$1, %eax
	sete	%al
	testb	%al, %al
	je	.L425
	movq	16(%rbp), %rax
	movq	(%rax), %rax
	addq	$24, %rax
	movq	(%rax), %rdx
	movq	16(%rbp), %rax
	movq	%rax, %rcx
	call	*%rdx
.L425:
	nop
	addq	$80, %rsp
	popq	%rbp
	ret
	.seh_endproc
	.section	.text$_ZN9__gnu_cxx11char_traitsIcE2eqERKcS3_,"x"
	.linkonce discard
	.globl	_ZN9__gnu_cxx11char_traitsIcE2eqERKcS3_
	.def	_ZN9__gnu_cxx11char_traitsIcE2eqERKcS3_;	.scl	2;	.type	32;	.endef
	.seh_proc	_ZN9__gnu_cxx11char_traitsIcE2eqERKcS3_
_ZN9__gnu_cxx11char_traitsIcE2eqERKcS3_:
.LFB14330:
	pushq	%rbp
	.seh_pushreg	%rbp
	movq	%rsp, %rbp
	.seh_setframe	%rbp, 0
	.seh_endprologue
	movq	%rcx, 16(%rbp)
	movq	%rdx, 24(%rbp)
	movq	16(%rbp), %rax
	movzbl	(%rax), %edx
	movq	24(%rbp), %rax
	movzbl	(%rax), %eax
	cmpb	%al, %dl
	sete	%al
	popq	%rbp
	ret
	.seh_endproc
	.section	.text$_ZNSt15__new_allocatorIcED2Ev,"x"
	.linkonce discard
	.align 2
	.globl	_ZNSt15__new_allocatorIcED2Ev
	.def	_ZNSt15__new_allocatorIcED2Ev;	.scl	2;	.type	32;	.endef
	.seh_proc	_ZNSt15__new_allocatorIcED2Ev
_ZNSt15__new_allocatorIcED2Ev:
.LFB14384:
	pushq	%rbp
	.seh_pushreg	%rbp
	movq	%rsp, %rbp
	.seh_setframe	%rbp, 0
	.seh_endprologue
	movq	%rcx, 16(%rbp)
	nop
	popq	%rbp
	ret
	.seh_endproc
	.section	.text$_ZZNSt7__cxx1112basic_stringIcSt11char_traitsIcESaIcEE12_M_constructIPKcEEvT_S8_St20forward_iterator_tagEN6_GuardC1EPS4_,"x"
	.linkonce discard
	.align 2
	.globl	_ZZNSt7__cxx1112basic_stringIcSt11char_traitsIcESaIcEE12_M_constructIPKcEEvT_S8_St20forward_iterator_tagEN6_GuardC1EPS4_
	.def	_ZZNSt7__cxx1112basic_stringIcSt11char_traitsIcESaIcEE12_M_constructIPKcEEvT_S8_St20forward_iterator_tagEN6_GuardC1EPS4_;	.scl	2;	.type	32;	.endef
	.seh_proc	_ZZNSt7__cxx1112basic_stringIcSt11char_traitsIcESaIcEE12_M_constructIPKcEEvT_S8_St20forward_iterator_tagEN6_GuardC1EPS4_
_ZZNSt7__cxx1112basic_stringIcSt11char_traitsIcESaIcEE12_M_constructIPKcEEvT_S8_St20forward_iterator_tagEN6_GuardC1EPS4_:
.LFB14392:
	pushq	%rbp
	.seh_pushreg	%rbp
	movq	%rsp, %rbp
	.seh_setframe	%rbp, 0
	.seh_endprologue
	movq	%rcx, 16(%rbp)
	movq	%rdx, 24(%rbp)
	movq	16(%rbp), %rax
	movq	24(%rbp), %rdx
	movq	%rdx, (%rax)
	nop
	popq	%rbp
	ret
	.seh_endproc
	.section	.text$_ZZNSt7__cxx1112basic_stringIcSt11char_traitsIcESaIcEE12_M_constructIPKcEEvT_S8_St20forward_iterator_tagEN6_GuardD1Ev,"x"
	.linkonce discard
	.align 2
	.globl	_ZZNSt7__cxx1112basic_stringIcSt11char_traitsIcESaIcEE12_M_constructIPKcEEvT_S8_St20forward_iterator_tagEN6_GuardD1Ev
	.def	_ZZNSt7__cxx1112basic_stringIcSt11char_traitsIcESaIcEE12_M_constructIPKcEEvT_S8_St20forward_iterator_tagEN6_GuardD1Ev;	.scl	2;	.type	32;	.endef
	.seh_proc	_ZZNSt7__cxx1112basic_stringIcSt11char_traitsIcESaIcEE12_M_constructIPKcEEvT_S8_St20forward_iterator_tagEN6_GuardD1Ev
_ZZNSt7__cxx1112basic_stringIcSt11char_traitsIcESaIcEE12_M_constructIPKcEEvT_S8_St20forward_iterator_tagEN6_GuardD1Ev:
.LFB14395:
	pushq	%rbp
	.seh_pushreg	%rbp
	movq	%rsp, %rbp
	.seh_setframe	%rbp, 0
	subq	$32, %rsp
	.seh_stackalloc	32
	.seh_endprologue
	movq	%rcx, 16(%rbp)
	movq	16(%rbp), %rax
	movq	(%rax), %rax
	testq	%rax, %rax
	je	.L432
	movq	16(%rbp), %rax
	movq	(%rax), %rax
	movq	%rax, %rcx
	call	_ZNSt7__cxx1112basic_stringIcSt11char_traitsIcESaIcEE10_M_disposeEv
.L432:
	nop
	addq	$32, %rsp
	popq	%rbp
	ret
	.seh_handler	__gxx_personality_seh0, @unwind, @except
	.seh_handlerdata
.LLSDA14395:
	.byte	0xff
	.byte	0xff
	.byte	0x1
	.uleb128 .LLSDACSE14395-.LLSDACSB14395
.LLSDACSB14395:
.LLSDACSE14395:
	.section	.text$_ZZNSt7__cxx1112basic_stringIcSt11char_traitsIcESaIcEE12_M_constructIPKcEEvT_S8_St20forward_iterator_tagEN6_GuardD1Ev,"x"
	.linkonce discard
	.seh_endproc
	.section	.text$_ZNSt7__cxx1112basic_stringIcSt11char_traitsIcESaIcEE12_M_constructIPKcEEvT_S8_St20forward_iterator_tag,"x"
	.linkonce discard
	.align 2
	.globl	_ZNSt7__cxx1112basic_stringIcSt11char_traitsIcESaIcEE12_M_constructIPKcEEvT_S8_St20forward_iterator_tag
	.def	_ZNSt7__cxx1112basic_stringIcSt11char_traitsIcESaIcEE12_M_constructIPKcEEvT_S8_St20forward_iterator_tag;	.scl	2;	.type	32;	.endef
	.seh_proc	_ZNSt7__cxx1112basic_stringIcSt11char_traitsIcESaIcEE12_M_constructIPKcEEvT_S8_St20forward_iterator_tag
_ZNSt7__cxx1112basic_stringIcSt11char_traitsIcESaIcEE12_M_constructIPKcEEvT_S8_St20forward_iterator_tag:
.LFB14389:
	pushq	%rbp
	.seh_pushreg	%rbp
	pushq	%rbx
	.seh_pushreg	%rbx
	subq	$104, %rsp
	.seh_stackalloc	104
	leaq	96(%rsp), %rbp
	.seh_setframe	%rbp, 96
	.seh_endprologue
	movq	%rcx, 32(%rbp)
	movq	%rdx, 40(%rbp)
	movq	%r8, 48(%rbp)
	movq	40(%rbp), %rax
	movq	%rax, -56(%rbp)
	movq	48(%rbp), %rax
	movq	%rax, -8(%rbp)
	nop
	movq	-56(%rbp), %rax
	movq	%rax, -16(%rbp)
	movq	-8(%rbp), %rax
	movq	%rax, -24(%rbp)
	movq	-24(%rbp), %rax
	subq	-16(%rbp), %rax
	nop
	movq	%rax, -40(%rbp)
	movq	-40(%rbp), %rax
	cmpq	$15, %rax
	jbe	.L437
	leaq	-40(%rbp), %rdx
	movq	32(%rbp), %rax
	movl	$0, %r8d
	movq	%rax, %rcx
.LEHB58:
	call	_ZNSt7__cxx1112basic_stringIcSt11char_traitsIcESaIcEE9_M_createERyy
.LEHE58:
	movq	%rax, %rdx
	movq	32(%rbp), %rax
	movq	%rax, %rcx
	call	_ZNSt7__cxx1112basic_stringIcSt11char_traitsIcESaIcEE7_M_dataEPc
	movq	-40(%rbp), %rdx
	movq	32(%rbp), %rax
	movq	%rax, %rcx
	call	_ZNSt7__cxx1112basic_stringIcSt11char_traitsIcESaIcEE11_M_capacityEy
	jmp	.L438
.L437:
	movq	32(%rbp), %rax
	movq	%rax, -32(%rbp)
	nop
.L438:
	movq	32(%rbp), %rdx
	leaq	-48(%rbp), %rax
	movq	%rax, %rcx
	call	_ZZNSt7__cxx1112basic_stringIcSt11char_traitsIcESaIcEE12_M_constructIPKcEEvT_S8_St20forward_iterator_tagEN6_GuardC1EPS4_
	movq	32(%rbp), %rax
	movq	%rax, %rcx
	call	_ZNKSt7__cxx1112basic_stringIcSt11char_traitsIcESaIcEE7_M_dataEv
	movq	%rax, %rcx
	movq	48(%rbp), %rdx
	movq	40(%rbp), %rax
	movq	%rdx, %r8
	movq	%rax, %rdx
	call	_ZNSt7__cxx1112basic_stringIcSt11char_traitsIcESaIcEE13_S_copy_charsEPcPKcS7_
	movq	$0, -48(%rbp)
	movq	-40(%rbp), %rdx
	movq	32(%rbp), %rax
	movq	%rax, %rcx
.LEHB59:
	call	_ZNSt7__cxx1112basic_stringIcSt11char_traitsIcESaIcEE13_M_set_lengthEy
.LEHE59:
	leaq	-48(%rbp), %rax
	movq	%rax, %rcx
	call	_ZZNSt7__cxx1112basic_stringIcSt11char_traitsIcESaIcEE12_M_constructIPKcEEvT_S8_St20forward_iterator_tagEN6_GuardD1Ev
	jmp	.L441
.L440:
	movq	%rax, %rbx
	leaq	-48(%rbp), %rax
	movq	%rax, %rcx
	call	_ZZNSt7__cxx1112basic_stringIcSt11char_traitsIcESaIcEE12_M_constructIPKcEEvT_S8_St20forward_iterator_tagEN6_GuardD1Ev
	movq	%rbx, %rax
	movq	%rax, %rcx
.LEHB60:
	call	_Unwind_Resume
	nop
.LEHE60:
.L441:
	addq	$104, %rsp
	popq	%rbx
	popq	%rbp
	ret
	.seh_handler	__gxx_personality_seh0, @unwind, @except
	.seh_handlerdata
.LLSDA14389:
	.byte	0xff
	.byte	0xff
	.byte	0x1
	.uleb128 .LLSDACSE14389-.LLSDACSB14389
.LLSDACSB14389:
	.uleb128 .LEHB58-.LFB14389
	.uleb128 .LEHE58-.LEHB58
	.uleb128 0
	.uleb128 0
	.uleb128 .LEHB59-.LFB14389
	.uleb128 .LEHE59-.LEHB59
	.uleb128 .L440-.LFB14389
	.uleb128 0
	.uleb128 .LEHB60-.LFB14389
	.uleb128 .LEHE60-.LEHB60
	.uleb128 0
	.uleb128 0
.LLSDACSE14389:
	.section	.text$_ZNSt7__cxx1112basic_stringIcSt11char_traitsIcESaIcEE12_M_constructIPKcEEvT_S8_St20forward_iterator_tag,"x"
	.linkonce discard
	.seh_endproc
	.section	.text$_ZNSt12_Vector_baseIN3cpr6CookieESaIS1_EE17_Vector_impl_dataC2Ev,"x"
	.linkonce discard
	.align 2
	.globl	_ZNSt12_Vector_baseIN3cpr6CookieESaIS1_EE17_Vector_impl_dataC2Ev
	.def	_ZNSt12_Vector_baseIN3cpr6CookieESaIS1_EE17_Vector_impl_dataC2Ev;	.scl	2;	.type	32;	.endef
	.seh_proc	_ZNSt12_Vector_baseIN3cpr6CookieESaIS1_EE17_Vector_impl_dataC2Ev
_ZNSt12_Vector_baseIN3cpr6CookieESaIS1_EE17_Vector_impl_dataC2Ev:
.LFB14483:
	pushq	%rbp
	.seh_pushreg	%rbp
	movq	%rsp, %rbp
	.seh_setframe	%rbp, 0
	.seh_endprologue
	movq	%rcx, 16(%rbp)
	movq	16(%rbp), %rax
	movq	$0, (%rax)
	movq	16(%rbp), %rax
	movq	$0, 8(%rax)
	movq	16(%rbp), %rax
	movq	$0, 16(%rax)
	nop
	popq	%rbp
	ret
	.seh_endproc
	.section	.text$_ZNSt12_Vector_baseIN3cpr6CookieESaIS1_EE17_Vector_impl_dataC1Ev,"x"
	.linkonce discard
	.align 2
	.globl	_ZNSt12_Vector_baseIN3cpr6CookieESaIS1_EE17_Vector_impl_dataC1Ev
	.def	_ZNSt12_Vector_baseIN3cpr6CookieESaIS1_EE17_Vector_impl_dataC1Ev;	.scl	2;	.type	32;	.endef
	.seh_proc	_ZNSt12_Vector_baseIN3cpr6CookieESaIS1_EE17_Vector_impl_dataC1Ev
_ZNSt12_Vector_baseIN3cpr6CookieESaIS1_EE17_Vector_impl_dataC1Ev:
.LFB14484:
	pushq	%rbp
	.seh_pushreg	%rbp
	movq	%rsp, %rbp
	.seh_setframe	%rbp, 0
	.seh_endprologue
	movq	%rcx, 16(%rbp)
	movq	16(%rbp), %rax
	movq	$0, (%rax)
	movq	16(%rbp), %rax
	movq	$0, 8(%rax)
	movq	16(%rbp), %rax
	movq	$0, 16(%rax)
	nop
	popq	%rbp
	ret
	.seh_endproc
	.section	.text$_ZNSt15__new_allocatorIN3cpr6CookieEED2Ev,"x"
	.linkonce discard
	.align 2
	.globl	_ZNSt15__new_allocatorIN3cpr6CookieEED2Ev
	.def	_ZNSt15__new_allocatorIN3cpr6CookieEED2Ev;	.scl	2;	.type	32;	.endef
	.seh_proc	_ZNSt15__new_allocatorIN3cpr6CookieEED2Ev
_ZNSt15__new_allocatorIN3cpr6CookieEED2Ev:
.LFB14486:
	pushq	%rbp
	.seh_pushreg	%rbp
	movq	%rsp, %rbp
	.seh_setframe	%rbp, 0
	.seh_endprologue
	movq	%rcx, 16(%rbp)
	nop
	popq	%rbp
	ret
	.seh_endproc
	.section	.text$_ZNSt12_Vector_baseIN3cpr6CookieESaIS1_EE13_M_deallocateEPS1_y,"x"
	.linkonce discard
	.align 2
	.globl	_ZNSt12_Vector_baseIN3cpr6CookieESaIS1_EE13_M_deallocateEPS1_y
	.def	_ZNSt12_Vector_baseIN3cpr6CookieESaIS1_EE13_M_deallocateEPS1_y;	.scl	2;	.type	32;	.endef
	.seh_proc	_ZNSt12_Vector_baseIN3cpr6CookieESaIS1_EE13_M_deallocateEPS1_y
_ZNSt12_Vector_baseIN3cpr6CookieESaIS1_EE13_M_deallocateEPS1_y:
.LFB14488:
	pushq	%rbp
	.seh_pushreg	%rbp
	movq	%rsp, %rbp
	.seh_setframe	%rbp, 0
	subq	$64, %rsp
	.seh_stackalloc	64
	.seh_endprologue
	movq	%rcx, 16(%rbp)
	movq	%rdx, 24(%rbp)
	movq	%r8, 32(%rbp)
	cmpq	$0, 24(%rbp)
	je	.L447
	movq	16(%rbp), %rax
	movq	%rax, -8(%rbp)
	movq	24(%rbp), %rax
	movq	%rax, -16(%rbp)
	movq	32(%rbp), %rax
	movq	%rax, -24(%rbp)
	movq	-24(%rbp), %rcx
	movq	-16(%rbp), %rdx
	movq	-8(%rbp), %rax
	movq	%rcx, %r8
	movq	%rax, %rcx
	call	_ZNSt15__new_allocatorIN3cpr6CookieEE10deallocateEPS1_y
	nop
.L447:
	nop
	addq	$64, %rsp
	popq	%rbp
	ret
	.seh_endproc
	.section	.text$_ZNSt12_Vector_baseIN3cpr6CookieESaIS1_EE19_M_get_Tp_allocatorEv,"x"
	.linkonce discard
	.align 2
	.globl	_ZNSt12_Vector_baseIN3cpr6CookieESaIS1_EE19_M_get_Tp_allocatorEv
	.def	_ZNSt12_Vector_baseIN3cpr6CookieESaIS1_EE19_M_get_Tp_allocatorEv;	.scl	2;	.type	32;	.endef
	.seh_proc	_ZNSt12_Vector_baseIN3cpr6CookieESaIS1_EE19_M_get_Tp_allocatorEv
_ZNSt12_Vector_baseIN3cpr6CookieESaIS1_EE19_M_get_Tp_allocatorEv:
.LFB14489:
	pushq	%rbp
	.seh_pushreg	%rbp
	movq	%rsp, %rbp
	.seh_setframe	%rbp, 0
	.seh_endprologue
	movq	%rcx, 16(%rbp)
	movq	16(%rbp), %rax
	popq	%rbp
	ret
	.seh_endproc
	.section	.text$_ZNSt12_Vector_baseIN3cpr6CookieESaIS1_EEC2ERKS2_,"x"
	.linkonce discard
	.align 2
	.globl	_ZNSt12_Vector_baseIN3cpr6CookieESaIS1_EEC2ERKS2_
	.def	_ZNSt12_Vector_baseIN3cpr6CookieESaIS1_EEC2ERKS2_;	.scl	2;	.type	32;	.endef
	.seh_proc	_ZNSt12_Vector_baseIN3cpr6CookieESaIS1_EEC2ERKS2_
_ZNSt12_Vector_baseIN3cpr6CookieESaIS1_EEC2ERKS2_:
.LFB14495:
	pushq	%rbp
	.seh_pushreg	%rbp
	movq	%rsp, %rbp
	.seh_setframe	%rbp, 0
	subq	$32, %rsp
	.seh_stackalloc	32
	.seh_endprologue
	movq	%rcx, 16(%rbp)
	movq	%rdx, 24(%rbp)
	movq	16(%rbp), %rax
	movq	24(%rbp), %rdx
	movq	%rax, %rcx
	call	_ZNSt12_Vector_baseIN3cpr6CookieESaIS1_EE12_Vector_implC1ERKS2_
	nop
	addq	$32, %rsp
	popq	%rbp
	ret
	.seh_endproc
	.section	.text$_ZNSt14__shared_countILN9__gnu_cxx12_Lock_policyE2EE7_M_swapERS2_,"x"
	.linkonce discard
	.align 2
	.globl	_ZNSt14__shared_countILN9__gnu_cxx12_Lock_policyE2EE7_M_swapERS2_
	.def	_ZNSt14__shared_countILN9__gnu_cxx12_Lock_policyE2EE7_M_swapERS2_;	.scl	2;	.type	32;	.endef
	.seh_proc	_ZNSt14__shared_countILN9__gnu_cxx12_Lock_policyE2EE7_M_swapERS2_
_ZNSt14__shared_countILN9__gnu_cxx12_Lock_policyE2EE7_M_swapERS2_:
.LFB14589:
	pushq	%rbp
	.seh_pushreg	%rbp
	movq	%rsp, %rbp
	.seh_setframe	%rbp, 0
	subq	$16, %rsp
	.seh_stackalloc	16
	.seh_endprologue
	movq	%rcx, 16(%rbp)
	movq	%rdx, 24(%rbp)
	movq	24(%rbp), %rax
	movq	(%rax), %rax
	movq	%rax, -8(%rbp)
	movq	16(%rbp), %rax
	movq	(%rax), %rdx
	movq	24(%rbp), %rax
	movq	%rdx, (%rax)
	movq	16(%rbp), %rax
	movq	-8(%rbp), %rdx
	movq	%rdx, (%rax)
	nop
	addq	$16, %rsp
	popq	%rbp
	ret
	.seh_endproc
	.section	.text$_ZNSt15__new_allocatorISt13_Rb_tree_nodeISt4pairIKNSt7__cxx1112basic_stringIcSt11char_traitsIcESaIcEEES7_EEED2Ev,"x"
	.linkonce discard
	.align 2
	.globl	_ZNSt15__new_allocatorISt13_Rb_tree_nodeISt4pairIKNSt7__cxx1112basic_stringIcSt11char_traitsIcESaIcEEES7_EEED2Ev
	.def	_ZNSt15__new_allocatorISt13_Rb_tree_nodeISt4pairIKNSt7__cxx1112basic_stringIcSt11char_traitsIcESaIcEEES7_EEED2Ev;	.scl	2;	.type	32;	.endef
	.seh_proc	_ZNSt15__new_allocatorISt13_Rb_tree_nodeISt4pairIKNSt7__cxx1112basic_stringIcSt11char_traitsIcESaIcEEES7_EEED2Ev
_ZNSt15__new_allocatorISt13_Rb_tree_nodeISt4pairIKNSt7__cxx1112basic_stringIcSt11char_traitsIcESaIcEEES7_EEED2Ev:
.LFB14634:
	pushq	%rbp
	.seh_pushreg	%rbp
	movq	%rsp, %rbp
	.seh_setframe	%rbp, 0
	.seh_endprologue
	movq	%rcx, 16(%rbp)
	nop
	popq	%rbp
	ret
	.seh_endproc
	.section	.text$_ZNSt8_Rb_treeINSt7__cxx1112basic_stringIcSt11char_traitsIcESaIcEEESt4pairIKS5_S5_ESt10_Select1stIS8_EN3cpr22CaseInsensitiveCompareESaIS8_EE8_M_eraseEPSt13_Rb_tree_nodeIS8_E,"x"
	.linkonce discard
	.align 2
	.globl	_ZNSt8_Rb_treeINSt7__cxx1112basic_stringIcSt11char_traitsIcESaIcEEESt4pairIKS5_S5_ESt10_Select1stIS8_EN3cpr22CaseInsensitiveCompareESaIS8_EE8_M_eraseEPSt13_Rb_tree_nodeIS8_E
	.def	_ZNSt8_Rb_treeINSt7__cxx1112basic_stringIcSt11char_traitsIcESaIcEEESt4pairIKS5_S5_ESt10_Select1stIS8_EN3cpr22CaseInsensitiveCompareESaIS8_EE8_M_eraseEPSt13_Rb_tree_nodeIS8_E;	.scl	2;	.type	32;	.endef
	.seh_proc	_ZNSt8_Rb_treeINSt7__cxx1112basic_stringIcSt11char_traitsIcESaIcEEESt4pairIKS5_S5_ESt10_Select1stIS8_EN3cpr22CaseInsensitiveCompareESaIS8_EE8_M_eraseEPSt13_Rb_tree_nodeIS8_E
_ZNSt8_Rb_treeINSt7__cxx1112basic_stringIcSt11char_traitsIcESaIcEEESt4pairIKS5_S5_ESt10_Select1stIS8_EN3cpr22CaseInsensitiveCompareESaIS8_EE8_M_eraseEPSt13_Rb_tree_nodeIS8_E:
.LFB14636:
	pushq	%rbp
	.seh_pushreg	%rbp
	movq	%rsp, %rbp
	.seh_setframe	%rbp, 0
	subq	$48, %rsp
	.seh_stackalloc	48
	.seh_endprologue
	movq	%rcx, 16(%rbp)
	movq	%rdx, 24(%rbp)
	jmp	.L454
.L455:
	movq	24(%rbp), %rax
	movq	%rax, %rcx
	call	_ZNSt8_Rb_treeINSt7__cxx1112basic_stringIcSt11char_traitsIcESaIcEEESt4pairIKS5_S5_ESt10_Select1stIS8_EN3cpr22CaseInsensitiveCompareESaIS8_EE8_S_rightEPSt18_Rb_tree_node_base
	movq	%rax, %rdx
	movq	16(%rbp), %rax
	movq	%rax, %rcx
	call	_ZNSt8_Rb_treeINSt7__cxx1112basic_stringIcSt11char_traitsIcESaIcEEESt4pairIKS5_S5_ESt10_Select1stIS8_EN3cpr22CaseInsensitiveCompareESaIS8_EE8_M_eraseEPSt13_Rb_tree_nodeIS8_E
	movq	24(%rbp), %rax
	movq	%rax, %rcx
	call	_ZNSt8_Rb_treeINSt7__cxx1112basic_stringIcSt11char_traitsIcESaIcEEESt4pairIKS5_S5_ESt10_Select1stIS8_EN3cpr22CaseInsensitiveCompareESaIS8_EE7_S_leftEPSt18_Rb_tree_node_base
	movq	%rax, -8(%rbp)
	movq	24(%rbp), %rdx
	movq	16(%rbp), %rax
	movq	%rax, %rcx
	call	_ZNSt8_Rb_treeINSt7__cxx1112basic_stringIcSt11char_traitsIcESaIcEEESt4pairIKS5_S5_ESt10_Select1stIS8_EN3cpr22CaseInsensitiveCompareESaIS8_EE12_M_drop_nodeEPSt13_Rb_tree_nodeIS8_E
	movq	-8(%rbp), %rax
	movq	%rax, 24(%rbp)
.L454:
	cmpq	$0, 24(%rbp)
	jne	.L455
	nop
	nop
	addq	$48, %rsp
	popq	%rbp
	ret
	.seh_endproc
	.section	.text$_ZNSt8_Rb_treeINSt7__cxx1112basic_stringIcSt11char_traitsIcESaIcEEESt4pairIKS5_S5_ESt10_Select1stIS8_EN3cpr22CaseInsensitiveCompareESaIS8_EE8_M_beginEv,"x"
	.linkonce discard
	.align 2
	.globl	_ZNSt8_Rb_treeINSt7__cxx1112basic_stringIcSt11char_traitsIcESaIcEEESt4pairIKS5_S5_ESt10_Select1stIS8_EN3cpr22CaseInsensitiveCompareESaIS8_EE8_M_beginEv
	.def	_ZNSt8_Rb_treeINSt7__cxx1112basic_stringIcSt11char_traitsIcESaIcEEESt4pairIKS5_S5_ESt10_Select1stIS8_EN3cpr22CaseInsensitiveCompareESaIS8_EE8_M_beginEv;	.scl	2;	.type	32;	.endef
	.seh_proc	_ZNSt8_Rb_treeINSt7__cxx1112basic_stringIcSt11char_traitsIcESaIcEEESt4pairIKS5_S5_ESt10_Select1stIS8_EN3cpr22CaseInsensitiveCompareESaIS8_EE8_M_beginEv
_ZNSt8_Rb_treeINSt7__cxx1112basic_stringIcSt11char_traitsIcESaIcEEESt4pairIKS5_S5_ESt10_Select1stIS8_EN3cpr22CaseInsensitiveCompareESaIS8_EE8_M_beginEv:
.LFB14637:
	pushq	%rbp
	.seh_pushreg	%rbp
	movq	%rsp, %rbp
	.seh_setframe	%rbp, 0
	subq	$32, %rsp
	.seh_stackalloc	32
	.seh_endprologue
	movq	%rcx, 16(%rbp)
	movq	16(%rbp), %rax
	movq	%rax, %rcx
	call	_ZNKSt8_Rb_treeINSt7__cxx1112basic_stringIcSt11char_traitsIcESaIcEEESt4pairIKS5_S5_ESt10_Select1stIS8_EN3cpr22CaseInsensitiveCompareESaIS8_EE9_M_mbeginEv
	addq	$32, %rsp
	popq	%rbp
	ret
	.seh_endproc
	.section	.text$_ZNSt15__new_allocatorISt4pairIKN3cpr21AcceptEncodingMethodsENSt7__cxx1112basic_stringIcSt11char_traitsIcESaIcEEEEED2Ev,"x"
	.linkonce discard
	.align 2
	.globl	_ZNSt15__new_allocatorISt4pairIKN3cpr21AcceptEncodingMethodsENSt7__cxx1112basic_stringIcSt11char_traitsIcESaIcEEEEED2Ev
	.def	_ZNSt15__new_allocatorISt4pairIKN3cpr21AcceptEncodingMethodsENSt7__cxx1112basic_stringIcSt11char_traitsIcESaIcEEEEED2Ev;	.scl	2;	.type	32;	.endef
	.seh_proc	_ZNSt15__new_allocatorISt4pairIKN3cpr21AcceptEncodingMethodsENSt7__cxx1112basic_stringIcSt11char_traitsIcESaIcEEEEED2Ev
_ZNSt15__new_allocatorISt4pairIKN3cpr21AcceptEncodingMethodsENSt7__cxx1112basic_stringIcSt11char_traitsIcESaIcEEEEED2Ev:
.LFB14758:
	pushq	%rbp
	.seh_pushreg	%rbp
	movq	%rsp, %rbp
	.seh_setframe	%rbp, 0
	.seh_endprologue
	movq	%rcx, 16(%rbp)
	nop
	popq	%rbp
	ret
	.seh_endproc
	.section	.text$_ZNSt8_Rb_treeIN3cpr21AcceptEncodingMethodsESt4pairIKS1_NSt7__cxx1112basic_stringIcSt11char_traitsIcESaIcEEEESt10_Select1stISA_ESt4lessIS1_ESaISA_EE13_Rb_tree_implISE_Lb1EED1Ev,"x"
	.linkonce discard
	.align 2
	.globl	_ZNSt8_Rb_treeIN3cpr21AcceptEncodingMethodsESt4pairIKS1_NSt7__cxx1112basic_stringIcSt11char_traitsIcESaIcEEEESt10_Select1stISA_ESt4lessIS1_ESaISA_EE13_Rb_tree_implISE_Lb1EED1Ev
	.def	_ZNSt8_Rb_treeIN3cpr21AcceptEncodingMethodsESt4pairIKS1_NSt7__cxx1112basic_stringIcSt11char_traitsIcESaIcEEEESt10_Select1stISA_ESt4lessIS1_ESaISA_EE13_Rb_tree_implISE_Lb1EED1Ev;	.scl	2;	.type	32;	.endef
	.seh_proc	_ZNSt8_Rb_treeIN3cpr21AcceptEncodingMethodsESt4pairIKS1_NSt7__cxx1112basic_stringIcSt11char_traitsIcESaIcEEEESt10_Select1stISA_ESt4lessIS1_ESaISA_EE13_Rb_tree_implISE_Lb1EED1Ev
_ZNSt8_Rb_treeIN3cpr21AcceptEncodingMethodsESt4pairIKS1_NSt7__cxx1112basic_stringIcSt11char_traitsIcESaIcEEEESt10_Select1stISA_ESt4lessIS1_ESaISA_EE13_Rb_tree_implISE_Lb1EED1Ev:
.LFB14766:
	pushq	%rbp
	.seh_pushreg	%rbp
	movq	%rsp, %rbp
	.seh_setframe	%rbp, 0
	subq	$48, %rsp
	.seh_stackalloc	48
	.seh_endprologue
	movq	%rcx, 16(%rbp)
	movq	16(%rbp), %rax
	movq	%rax, -8(%rbp)
	movq	-8(%rbp), %rax
	movq	%rax, %rcx
	call	_ZNSt15__new_allocatorISt13_Rb_tree_nodeISt4pairIKN3cpr21AcceptEncodingMethodsENSt7__cxx1112basic_stringIcSt11char_traitsIcESaIcEEEEEED2Ev
	nop
	nop
	addq	$48, %rsp
	popq	%rbp
	ret
	.seh_endproc
	.section	.text$_ZNSt8_Rb_treeIN3cpr21AcceptEncodingMethodsESt4pairIKS1_NSt7__cxx1112basic_stringIcSt11char_traitsIcESaIcEEEESt10_Select1stISA_ESt4lessIS1_ESaISA_EEC1ERKSE_RKSF_,"x"
	.linkonce discard
	.align 2
	.globl	_ZNSt8_Rb_treeIN3cpr21AcceptEncodingMethodsESt4pairIKS1_NSt7__cxx1112basic_stringIcSt11char_traitsIcESaIcEEEESt10_Select1stISA_ESt4lessIS1_ESaISA_EEC1ERKSE_RKSF_
	.def	_ZNSt8_Rb_treeIN3cpr21AcceptEncodingMethodsESt4pairIKS1_NSt7__cxx1112basic_stringIcSt11char_traitsIcESaIcEEEESt10_Select1stISA_ESt4lessIS1_ESaISA_EEC1ERKSE_RKSF_;	.scl	2;	.type	32;	.endef
	.seh_proc	_ZNSt8_Rb_treeIN3cpr21AcceptEncodingMethodsESt4pairIKS1_NSt7__cxx1112basic_stringIcSt11char_traitsIcESaIcEEEESt10_Select1stISA_ESt4lessIS1_ESaISA_EEC1ERKSE_RKSF_
_ZNSt8_Rb_treeIN3cpr21AcceptEncodingMethodsESt4pairIKS1_NSt7__cxx1112basic_stringIcSt11char_traitsIcESaIcEEEESt10_Select1stISA_ESt4lessIS1_ESaISA_EEC1ERKSE_RKSF_:
.LFB14768:
	pushq	%rbp
	.seh_pushreg	%rbp
	pushq	%rbx
	.seh_pushreg	%rbx
	subq	$72, %rsp
	.seh_stackalloc	72
	leaq	64(%rsp), %rbp
	.seh_setframe	%rbp, 64
	.seh_endprologue
	movq	%rcx, 32(%rbp)
	movq	%rdx, 40(%rbp)
	movq	%r8, 48(%rbp)
	movq	32(%rbp), %rax
	movq	48(%rbp), %rdx
	movq	%rdx, -8(%rbp)
	leaq	-17(%rbp), %rdx
	movq	%rdx, -16(%rbp)
	nop
	nop
	leaq	-17(%rbp), %rcx
	movq	40(%rbp), %rdx
	movq	%rcx, %r8
	movq	%rax, %rcx
.LEHB61:
	call	_ZNSt8_Rb_treeIN3cpr21AcceptEncodingMethodsESt4pairIKS1_NSt7__cxx1112basic_stringIcSt11char_traitsIcESaIcEEEESt10_Select1stISA_ESt4lessIS1_ESaISA_EE13_Rb_tree_implISE_Lb1EEC1ERKSE_OSaISt13_Rb_tree_nodeISA_EE
.LEHE61:
	leaq	-17(%rbp), %rax
	movq	%rax, %rcx
	call	_ZNSt15__new_allocatorISt13_Rb_tree_nodeISt4pairIKN3cpr21AcceptEncodingMethodsENSt7__cxx1112basic_stringIcSt11char_traitsIcESaIcEEEEEED2Ev
	nop
	jmp	.L463
.L462:
	movq	%rax, %rbx
	leaq	-17(%rbp), %rax
	movq	%rax, %rcx
	call	_ZNSt15__new_allocatorISt13_Rb_tree_nodeISt4pairIKN3cpr21AcceptEncodingMethodsENSt7__cxx1112basic_stringIcSt11char_traitsIcESaIcEEEEEED2Ev
	nop
	movq	%rbx, %rax
	movq	%rax, %rcx
.LEHB62:
	call	_Unwind_Resume
	nop
.LEHE62:
.L463:
	addq	$72, %rsp
	popq	%rbx
	popq	%rbp
	ret
	.seh_handler	__gxx_personality_seh0, @unwind, @except
	.seh_handlerdata
.LLSDA14768:
	.byte	0xff
	.byte	0xff
	.byte	0x1
	.uleb128 .LLSDACSE14768-.LLSDACSB14768
.LLSDACSB14768:
	.uleb128 .LEHB61-.LFB14768
	.uleb128 .LEHE61-.LEHB61
	.uleb128 .L462-.LFB14768
	.uleb128 0
	.uleb128 .LEHB62-.LFB14768
	.uleb128 .LEHE62-.LEHB62
	.uleb128 0
	.uleb128 0
.LLSDACSE14768:
	.section	.text$_ZNSt8_Rb_treeIN3cpr21AcceptEncodingMethodsESt4pairIKS1_NSt7__cxx1112basic_stringIcSt11char_traitsIcESaIcEEEESt10_Select1stISA_ESt4lessIS1_ESaISA_EEC1ERKSE_RKSF_,"x"
	.linkonce discard
	.seh_endproc
	.section	.text$_ZNSt8_Rb_treeIN3cpr21AcceptEncodingMethodsESt4pairIKS1_NSt7__cxx1112basic_stringIcSt11char_traitsIcESaIcEEEESt10_Select1stISA_ESt4lessIS1_ESaISA_EED1Ev,"x"
	.linkonce discard
	.align 2
	.globl	_ZNSt8_Rb_treeIN3cpr21AcceptEncodingMethodsESt4pairIKS1_NSt7__cxx1112basic_stringIcSt11char_traitsIcESaIcEEEESt10_Select1stISA_ESt4lessIS1_ESaISA_EED1Ev
	.def	_ZNSt8_Rb_treeIN3cpr21AcceptEncodingMethodsESt4pairIKS1_NSt7__cxx1112basic_stringIcSt11char_traitsIcESaIcEEEESt10_Select1stISA_ESt4lessIS1_ESaISA_EED1Ev;	.scl	2;	.type	32;	.endef
	.seh_proc	_ZNSt8_Rb_treeIN3cpr21AcceptEncodingMethodsESt4pairIKS1_NSt7__cxx1112basic_stringIcSt11char_traitsIcESaIcEEEESt10_Select1stISA_ESt4lessIS1_ESaISA_EED1Ev
_ZNSt8_Rb_treeIN3cpr21AcceptEncodingMethodsESt4pairIKS1_NSt7__cxx1112basic_stringIcSt11char_traitsIcESaIcEEEESt10_Select1stISA_ESt4lessIS1_ESaISA_EED1Ev:
.LFB14771:
	pushq	%rbp
	.seh_pushreg	%rbp
	movq	%rsp, %rbp
	.seh_setframe	%rbp, 0
	subq	$32, %rsp
	.seh_stackalloc	32
	.seh_endprologue
	movq	%rcx, 16(%rbp)
	movq	16(%rbp), %rax
	movq	%rax, %rcx
	call	_ZNSt8_Rb_treeIN3cpr21AcceptEncodingMethodsESt4pairIKS1_NSt7__cxx1112basic_stringIcSt11char_traitsIcESaIcEEEESt10_Select1stISA_ESt4lessIS1_ESaISA_EE8_M_beginEv
	movq	%rax, %rdx
	movq	16(%rbp), %rax
	movq	%rax, %rcx
	call	_ZNSt8_Rb_treeIN3cpr21AcceptEncodingMethodsESt4pairIKS1_NSt7__cxx1112basic_stringIcSt11char_traitsIcESaIcEEEESt10_Select1stISA_ESt4lessIS1_ESaISA_EE8_M_eraseEPSt13_Rb_tree_nodeISA_E
	movq	16(%rbp), %rax
	movq	%rax, %rcx
	call	_ZNSt8_Rb_treeIN3cpr21AcceptEncodingMethodsESt4pairIKS1_NSt7__cxx1112basic_stringIcSt11char_traitsIcESaIcEEEESt10_Select1stISA_ESt4lessIS1_ESaISA_EE13_Rb_tree_implISE_Lb1EED1Ev
	nop
	addq	$32, %rsp
	popq	%rbp
	ret
	.seh_handler	__gxx_personality_seh0, @unwind, @except
	.seh_handlerdata
.LLSDA14771:
	.byte	0xff
	.byte	0xff
	.byte	0x1
	.uleb128 .LLSDACSE14771-.LLSDACSB14771
.LLSDACSB14771:
.LLSDACSE14771:
	.section	.text$_ZNSt8_Rb_treeIN3cpr21AcceptEncodingMethodsESt4pairIKS1_NSt7__cxx1112basic_stringIcSt11char_traitsIcESaIcEEEESt10_Select1stISA_ESt4lessIS1_ESaISA_EED1Ev,"x"
	.linkonce discard
	.seh_endproc
	.section	.text$_ZNKSt16initializer_listISt4pairIKN3cpr21AcceptEncodingMethodsENSt7__cxx1112basic_stringIcSt11char_traitsIcESaIcEEEEE5beginEv,"x"
	.linkonce discard
	.align 2
	.globl	_ZNKSt16initializer_listISt4pairIKN3cpr21AcceptEncodingMethodsENSt7__cxx1112basic_stringIcSt11char_traitsIcESaIcEEEEE5beginEv
	.def	_ZNKSt16initializer_listISt4pairIKN3cpr21AcceptEncodingMethodsENSt7__cxx1112basic_stringIcSt11char_traitsIcESaIcEEEEE5beginEv;	.scl	2;	.type	32;	.endef
	.seh_proc	_ZNKSt16initializer_listISt4pairIKN3cpr21AcceptEncodingMethodsENSt7__cxx1112basic_stringIcSt11char_traitsIcESaIcEEEEE5beginEv
_ZNKSt16initializer_listISt4pairIKN3cpr21AcceptEncodingMethodsENSt7__cxx1112basic_stringIcSt11char_traitsIcESaIcEEEEE5beginEv:
.LFB14772:
	pushq	%rbp
	.seh_pushreg	%rbp
	movq	%rsp, %rbp
	.seh_setframe	%rbp, 0
	.seh_endprologue
	movq	%rcx, 16(%rbp)
	movq	16(%rbp), %rax
	movq	(%rax), %rax
	popq	%rbp
	ret
	.seh_endproc
	.section	.text$_ZNKSt16initializer_listISt4pairIKN3cpr21AcceptEncodingMethodsENSt7__cxx1112basic_stringIcSt11char_traitsIcESaIcEEEEE3endEv,"x"
	.linkonce discard
	.align 2
	.globl	_ZNKSt16initializer_listISt4pairIKN3cpr21AcceptEncodingMethodsENSt7__cxx1112basic_stringIcSt11char_traitsIcESaIcEEEEE3endEv
	.def	_ZNKSt16initializer_listISt4pairIKN3cpr21AcceptEncodingMethodsENSt7__cxx1112basic_stringIcSt11char_traitsIcESaIcEEEEE3endEv;	.scl	2;	.type	32;	.endef
	.seh_proc	_ZNKSt16initializer_listISt4pairIKN3cpr21AcceptEncodingMethodsENSt7__cxx1112basic_stringIcSt11char_traitsIcESaIcEEEEE3endEv
_ZNKSt16initializer_listISt4pairIKN3cpr21AcceptEncodingMethodsENSt7__cxx1112basic_stringIcSt11char_traitsIcESaIcEEEEE3endEv:
.LFB14773:
	pushq	%rbp
	.seh_pushreg	%rbp
	pushq	%rbx
	.seh_pushreg	%rbx
	subq	$40, %rsp
	.seh_stackalloc	40
	leaq	32(%rsp), %rbp
	.seh_setframe	%rbp, 32
	.seh_endprologue
	movq	%rcx, 32(%rbp)
	movq	32(%rbp), %rax
	movq	%rax, %rcx
	call	_ZNKSt16initializer_listISt4pairIKN3cpr21AcceptEncodingMethodsENSt7__cxx1112basic_stringIcSt11char_traitsIcESaIcEEEEE5beginEv
	movq	%rax, %rbx
	movq	32(%rbp), %rax
	movq	%rax, %rcx
	call	_ZNKSt16initializer_listISt4pairIKN3cpr21AcceptEncodingMethodsENSt7__cxx1112basic_stringIcSt11char_traitsIcESaIcEEEEE4sizeEv
	movq	%rax, %rdx
	movq	%rdx, %rax
	salq	$2, %rax
	addq	%rdx, %rax
	salq	$3, %rax
	addq	%rbx, %rax
	addq	$40, %rsp
	popq	%rbx
	popq	%rbp
	ret
	.seh_endproc
	.section	.text$_ZNSt8_Rb_treeIN3cpr21AcceptEncodingMethodsESt4pairIKS1_NSt7__cxx1112basic_stringIcSt11char_traitsIcESaIcEEEESt10_Select1stISA_ESt4lessIS1_ESaISA_EE22_M_insert_range_uniqueIPKSA_EENSt9enable_ifIXsrSt7is_sameISA_NSt15iterator_traitsIT_E10value_typeEE5valueEvE4typeESN_SN_,"x"
	.linkonce discard
	.align 2
	.globl	_ZNSt8_Rb_treeIN3cpr21AcceptEncodingMethodsESt4pairIKS1_NSt7__cxx1112basic_stringIcSt11char_traitsIcESaIcEEEESt10_Select1stISA_ESt4lessIS1_ESaISA_EE22_M_insert_range_uniqueIPKSA_EENSt9enable_ifIXsrSt7is_sameISA_NSt15iterator_traitsIT_E10value_typeEE5valueEvE4typeESN_SN_
	.def	_ZNSt8_Rb_treeIN3cpr21AcceptEncodingMethodsESt4pairIKS1_NSt7__cxx1112basic_stringIcSt11char_traitsIcESaIcEEEESt10_Select1stISA_ESt4lessIS1_ESaISA_EE22_M_insert_range_uniqueIPKSA_EENSt9enable_ifIXsrSt7is_sameISA_NSt15iterator_traitsIT_E10value_typeEE5valueEvE4typeESN_SN_;	.scl	2;	.type	32;	.endef
	.seh_proc	_ZNSt8_Rb_treeIN3cpr21AcceptEncodingMethodsESt4pairIKS1_NSt7__cxx1112basic_stringIcSt11char_traitsIcESaIcEEEESt10_Select1stISA_ESt4lessIS1_ESaISA_EE22_M_insert_range_uniqueIPKSA_EENSt9enable_ifIXsrSt7is_sameISA_NSt15iterator_traitsIT_E10value_typeEE5valueEvE4typeESN_SN_
_ZNSt8_Rb_treeIN3cpr21AcceptEncodingMethodsESt4pairIKS1_NSt7__cxx1112basic_stringIcSt11char_traitsIcESaIcEEEESt10_Select1stISA_ESt4lessIS1_ESaISA_EE22_M_insert_range_uniqueIPKSA_EENSt9enable_ifIXsrSt7is_sameISA_NSt15iterator_traitsIT_E10value_typeEE5valueEvE4typeESN_SN_:
.LFB14774:
	pushq	%rbp
	.seh_pushreg	%rbp
	movq	%rsp, %rbp
	.seh_setframe	%rbp, 0
	subq	$64, %rsp
	.seh_stackalloc	64
	.seh_endprologue
	movq	%rcx, 16(%rbp)
	movq	%rdx, 24(%rbp)
	movq	%r8, 32(%rbp)
	movq	16(%rbp), %rdx
	leaq	-24(%rbp), %rax
	movq	%rax, %rcx
	call	_ZNSt8_Rb_treeIN3cpr21AcceptEncodingMethodsESt4pairIKS1_NSt7__cxx1112basic_stringIcSt11char_traitsIcESaIcEEEESt10_Select1stISA_ESt4lessIS1_ESaISA_EE11_Alloc_nodeC1ERSG_
	jmp	.L470
.L471:
	movq	16(%rbp), %rax
	movq	%rax, %rcx
	call	_ZNSt8_Rb_treeIN3cpr21AcceptEncodingMethodsESt4pairIKS1_NSt7__cxx1112basic_stringIcSt11char_traitsIcESaIcEEEESt10_Select1stISA_ESt4lessIS1_ESaISA_EE3endEv
	movq	%rax, -8(%rbp)
	leaq	-8(%rbp), %rdx
	leaq	-16(%rbp), %rax
	movq	%rax, %rcx
	call	_ZNSt23_Rb_tree_const_iteratorISt4pairIKN3cpr21AcceptEncodingMethodsENSt7__cxx1112basic_stringIcSt11char_traitsIcESaIcEEEEEC1ERKSt17_Rb_tree_iteratorISA_E
	leaq	-24(%rbp), %r8
	movq	24(%rbp), %rcx
	movq	-16(%rbp), %rdx
	movq	16(%rbp), %rax
	movq	%r8, %r9
	movq	%rcx, %r8
	movq	%rax, %rcx
	call	_ZNSt8_Rb_treeIN3cpr21AcceptEncodingMethodsESt4pairIKS1_NSt7__cxx1112basic_stringIcSt11char_traitsIcESaIcEEEESt10_Select1stISA_ESt4lessIS1_ESaISA_EE17_M_insert_unique_IRKSA_NSG_11_Alloc_nodeEEESt17_Rb_tree_iteratorISA_ESt23_Rb_tree_const_iteratorISA_EOT_RT0_
	addq	$40, 24(%rbp)
.L470:
	movq	24(%rbp), %rax
	cmpq	32(%rbp), %rax
	jne	.L471
	nop
	nop
	addq	$64, %rsp
	popq	%rbp
	ret
	.seh_endproc
	.section	.text$_ZNSt12_Vector_baseISt4pairISt10shared_ptrIN3cpr7SessionEENS2_12MultiPerform10HttpMethodEESaIS7_EE17_Vector_impl_dataC2Ev,"x"
	.linkonce discard
	.align 2
	.globl	_ZNSt12_Vector_baseISt4pairISt10shared_ptrIN3cpr7SessionEENS2_12MultiPerform10HttpMethodEESaIS7_EE17_Vector_impl_dataC2Ev
	.def	_ZNSt12_Vector_baseISt4pairISt10shared_ptrIN3cpr7SessionEENS2_12MultiPerform10HttpMethodEESaIS7_EE17_Vector_impl_dataC2Ev;	.scl	2;	.type	32;	.endef
	.seh_proc	_ZNSt12_Vector_baseISt4pairISt10shared_ptrIN3cpr7SessionEENS2_12MultiPerform10HttpMethodEESaIS7_EE17_Vector_impl_dataC2Ev
_ZNSt12_Vector_baseISt4pairISt10shared_ptrIN3cpr7SessionEENS2_12MultiPerform10HttpMethodEESaIS7_EE17_Vector_impl_dataC2Ev:
.LFB14922:
	pushq	%rbp
	.seh_pushreg	%rbp
	movq	%rsp, %rbp
	.seh_setframe	%rbp, 0
	.seh_endprologue
	movq	%rcx, 16(%rbp)
	movq	16(%rbp), %rax
	movq	$0, (%rax)
	movq	16(%rbp), %rax
	movq	$0, 8(%rax)
	movq	16(%rbp), %rax
	movq	$0, 16(%rax)
	nop
	popq	%rbp
	ret
	.seh_endproc
	.section	.text$_ZNSt15__new_allocatorISt4pairISt10shared_ptrIN3cpr7SessionEENS2_12MultiPerform10HttpMethodEEED2Ev,"x"
	.linkonce discard
	.align 2
	.globl	_ZNSt15__new_allocatorISt4pairISt10shared_ptrIN3cpr7SessionEENS2_12MultiPerform10HttpMethodEEED2Ev
	.def	_ZNSt15__new_allocatorISt4pairISt10shared_ptrIN3cpr7SessionEENS2_12MultiPerform10HttpMethodEEED2Ev;	.scl	2;	.type	32;	.endef
	.seh_proc	_ZNSt15__new_allocatorISt4pairISt10shared_ptrIN3cpr7SessionEENS2_12MultiPerform10HttpMethodEEED2Ev
_ZNSt15__new_allocatorISt4pairISt10shared_ptrIN3cpr7SessionEENS2_12MultiPerform10HttpMethodEEED2Ev:
.LFB14925:
	pushq	%rbp
	.seh_pushreg	%rbp
	movq	%rsp, %rbp
	.seh_setframe	%rbp, 0
	.seh_endprologue
	movq	%rcx, 16(%rbp)
	nop
	popq	%rbp
	ret
	.seh_endproc
	.section	.text$_ZNSt12_Vector_baseISt4pairISt10shared_ptrIN3cpr7SessionEENS2_12MultiPerform10HttpMethodEESaIS7_EE13_M_deallocateEPS7_y,"x"
	.linkonce discard
	.align 2
	.globl	_ZNSt12_Vector_baseISt4pairISt10shared_ptrIN3cpr7SessionEENS2_12MultiPerform10HttpMethodEESaIS7_EE13_M_deallocateEPS7_y
	.def	_ZNSt12_Vector_baseISt4pairISt10shared_ptrIN3cpr7SessionEENS2_12MultiPerform10HttpMethodEESaIS7_EE13_M_deallocateEPS7_y;	.scl	2;	.type	32;	.endef
	.seh_proc	_ZNSt12_Vector_baseISt4pairISt10shared_ptrIN3cpr7SessionEENS2_12MultiPerform10HttpMethodEESaIS7_EE13_M_deallocateEPS7_y
_ZNSt12_Vector_baseISt4pairISt10shared_ptrIN3cpr7SessionEENS2_12MultiPerform10HttpMethodEESaIS7_EE13_M_deallocateEPS7_y:
.LFB14927:
	pushq	%rbp
	.seh_pushreg	%rbp
	movq	%rsp, %rbp
	.seh_setframe	%rbp, 0
	subq	$64, %rsp
	.seh_stackalloc	64
	.seh_endprologue
	movq	%rcx, 16(%rbp)
	movq	%rdx, 24(%rbp)
	movq	%r8, 32(%rbp)
	cmpq	$0, 24(%rbp)
	je	.L476
	movq	16(%rbp), %rax
	movq	%rax, -8(%rbp)
	movq	24(%rbp), %rax
	movq	%rax, -16(%rbp)
	movq	32(%rbp), %rax
	movq	%rax, -24(%rbp)
	movq	-24(%rbp), %rcx
	movq	-16(%rbp), %rdx
	movq	-8(%rbp), %rax
	movq	%rcx, %r8
	movq	%rax, %rcx
	call	_ZNSt15__new_allocatorISt4pairISt10shared_ptrIN3cpr7SessionEENS2_12MultiPerform10HttpMethodEEE10deallocateEPS7_y
	nop
.L476:
	nop
	addq	$64, %rsp
	popq	%rbp
	ret
	.seh_endproc
	.section	.text$_ZNSt12_Vector_baseISt4pairISt10shared_ptrIN3cpr7SessionEENS2_12MultiPerform10HttpMethodEESaIS7_EE19_M_get_Tp_allocatorEv,"x"
	.linkonce discard
	.align 2
	.globl	_ZNSt12_Vector_baseISt4pairISt10shared_ptrIN3cpr7SessionEENS2_12MultiPerform10HttpMethodEESaIS7_EE19_M_get_Tp_allocatorEv
	.def	_ZNSt12_Vector_baseISt4pairISt10shared_ptrIN3cpr7SessionEENS2_12MultiPerform10HttpMethodEESaIS7_EE19_M_get_Tp_allocatorEv;	.scl	2;	.type	32;	.endef
	.seh_proc	_ZNSt12_Vector_baseISt4pairISt10shared_ptrIN3cpr7SessionEENS2_12MultiPerform10HttpMethodEESaIS7_EE19_M_get_Tp_allocatorEv
_ZNSt12_Vector_baseISt4pairISt10shared_ptrIN3cpr7SessionEENS2_12MultiPerform10HttpMethodEESaIS7_EE19_M_get_Tp_allocatorEv:
.LFB14928:
	pushq	%rbp
	.seh_pushreg	%rbp
	movq	%rsp, %rbp
	.seh_setframe	%rbp, 0
	.seh_endprologue
	movq	%rcx, 16(%rbp)
	movq	16(%rbp), %rax
	popq	%rbp
	ret
	.seh_endproc
	.section	.text$_ZNSt15__uniq_ptr_implIN3cpr15CurlMultiHolderESt14default_deleteIS1_EEC2EPS1_,"x"
	.linkonce discard
	.align 2
	.globl	_ZNSt15__uniq_ptr_implIN3cpr15CurlMultiHolderESt14default_deleteIS1_EEC2EPS1_
	.def	_ZNSt15__uniq_ptr_implIN3cpr15CurlMultiHolderESt14default_deleteIS1_EEC2EPS1_;	.scl	2;	.type	32;	.endef
	.seh_proc	_ZNSt15__uniq_ptr_implIN3cpr15CurlMultiHolderESt14default_deleteIS1_EEC2EPS1_
_ZNSt15__uniq_ptr_implIN3cpr15CurlMultiHolderESt14default_deleteIS1_EEC2EPS1_:
.LFB14932:
	pushq	%rbp
	.seh_pushreg	%rbp
	pushq	%rbx
	.seh_pushreg	%rbx
	subq	$40, %rsp
	.seh_stackalloc	40
	leaq	32(%rsp), %rbp
	.seh_setframe	%rbp, 32
	.seh_endprologue
	movq	%rcx, 32(%rbp)
	movq	%rdx, 40(%rbp)
	movq	32(%rbp), %rax
	movq	%rax, %rcx
	call	_ZNSt5tupleIJPN3cpr15CurlMultiHolderESt14default_deleteIS1_EEEC1ILb1ELb1EEEv
	movq	40(%rbp), %rbx
	movq	32(%rbp), %rax
	movq	%rax, %rcx
	call	_ZNSt15__uniq_ptr_implIN3cpr15CurlMultiHolderESt14default_deleteIS1_EE6_M_ptrEv
	movq	%rbx, (%rax)
	nop
	addq	$40, %rsp
	popq	%rbx
	popq	%rbp
	ret
	.seh_endproc
	.section	.text$_ZNSt15__uniq_ptr_implIN3cpr15CurlMultiHolderESt14default_deleteIS1_EE6_M_ptrEv,"x"
	.linkonce discard
	.align 2
	.globl	_ZNSt15__uniq_ptr_implIN3cpr15CurlMultiHolderESt14default_deleteIS1_EE6_M_ptrEv
	.def	_ZNSt15__uniq_ptr_implIN3cpr15CurlMultiHolderESt14default_deleteIS1_EE6_M_ptrEv;	.scl	2;	.type	32;	.endef
	.seh_proc	_ZNSt15__uniq_ptr_implIN3cpr15CurlMultiHolderESt14default_deleteIS1_EE6_M_ptrEv
_ZNSt15__uniq_ptr_implIN3cpr15CurlMultiHolderESt14default_deleteIS1_EE6_M_ptrEv:
.LFB14934:
	pushq	%rbp
	.seh_pushreg	%rbp
	movq	%rsp, %rbp
	.seh_setframe	%rbp, 0
	subq	$32, %rsp
	.seh_stackalloc	32
	.seh_endprologue
	movq	%rcx, 16(%rbp)
	movq	16(%rbp), %rax
	movq	%rax, %rcx
	call	_ZSt3getILy0EJPN3cpr15CurlMultiHolderESt14default_deleteIS1_EEERNSt13tuple_elementIXT_ESt5tupleIJDpT0_EEE4typeERS9_
	addq	$32, %rsp
	popq	%rbp
	ret
	.seh_endproc
	.section	.text$_ZNSt10unique_ptrIN3cpr15CurlMultiHolderESt14default_deleteIS1_EE11get_deleterEv,"x"
	.linkonce discard
	.align 2
	.globl	_ZNSt10unique_ptrIN3cpr15CurlMultiHolderESt14default_deleteIS1_EE11get_deleterEv
	.def	_ZNSt10unique_ptrIN3cpr15CurlMultiHolderESt14default_deleteIS1_EE11get_deleterEv;	.scl	2;	.type	32;	.endef
	.seh_proc	_ZNSt10unique_ptrIN3cpr15CurlMultiHolderESt14default_deleteIS1_EE11get_deleterEv
_ZNSt10unique_ptrIN3cpr15CurlMultiHolderESt14default_deleteIS1_EE11get_deleterEv:
.LFB14935:
	pushq	%rbp
	.seh_pushreg	%rbp
	movq	%rsp, %rbp
	.seh_setframe	%rbp, 0
	subq	$32, %rsp
	.seh_stackalloc	32
	.seh_endprologue
	movq	%rcx, 16(%rbp)
	movq	16(%rbp), %rax
	movq	%rax, %rcx
	call	_ZNSt15__uniq_ptr_implIN3cpr15CurlMultiHolderESt14default_deleteIS1_EE10_M_deleterEv
	addq	$32, %rsp
	popq	%rbp
	ret
	.seh_endproc
	.section	.text$_ZSt4moveIRPN3cpr15CurlMultiHolderEEONSt16remove_referenceIT_E4typeEOS5_,"x"
	.linkonce discard
	.globl	_ZSt4moveIRPN3cpr15CurlMultiHolderEEONSt16remove_referenceIT_E4typeEOS5_
	.def	_ZSt4moveIRPN3cpr15CurlMultiHolderEEONSt16remove_referenceIT_E4typeEOS5_;	.scl	2;	.type	32;	.endef
	.seh_proc	_ZSt4moveIRPN3cpr15CurlMultiHolderEEONSt16remove_referenceIT_E4typeEOS5_
_ZSt4moveIRPN3cpr15CurlMultiHolderEEONSt16remove_referenceIT_E4typeEOS5_:
.LFB14936:
	pushq	%rbp
	.seh_pushreg	%rbp
	movq	%rsp, %rbp
	.seh_setframe	%rbp, 0
	.seh_endprologue
	movq	%rcx, 16(%rbp)
	movq	16(%rbp), %rax
	popq	%rbp
	ret
	.seh_endproc
	.section	.text$_ZNKSt14default_deleteIN3cpr15CurlMultiHolderEEclEPS1_,"x"
	.linkonce discard
	.align 2
	.globl	_ZNKSt14default_deleteIN3cpr15CurlMultiHolderEEclEPS1_
	.def	_ZNKSt14default_deleteIN3cpr15CurlMultiHolderEEclEPS1_;	.scl	2;	.type	32;	.endef
	.seh_proc	_ZNKSt14default_deleteIN3cpr15CurlMultiHolderEEclEPS1_
_ZNKSt14default_deleteIN3cpr15CurlMultiHolderEEclEPS1_:
.LFB14937:
	pushq	%rbp
	.seh_pushreg	%rbp
	pushq	%rbx
	.seh_pushreg	%rbx
	subq	$40, %rsp
	.seh_stackalloc	40
	leaq	32(%rsp), %rbp
	.seh_setframe	%rbp, 32
	.seh_endprologue
	movq	%rcx, 32(%rbp)
	movq	%rdx, 40(%rbp)
	movq	40(%rbp), %rbx
	testq	%rbx, %rbx
	je	.L488
	movq	%rbx, %rcx
	call	_ZN3cpr15CurlMultiHolderD1Ev
	movl	$8, %edx
	movq	%rbx, %rcx
	call	_ZdlPvy
.L488:
	nop
	addq	$40, %rsp
	popq	%rbx
	popq	%rbp
	ret
	.seh_endproc
	.section	.text$_ZNSt11_Deque_baseISt10shared_ptrIN3cpr16InterceptorMultiEESaIS3_EE11_Deque_implD1Ev,"x"
	.linkonce discard
	.align 2
	.globl	_ZNSt11_Deque_baseISt10shared_ptrIN3cpr16InterceptorMultiEESaIS3_EE11_Deque_implD1Ev
	.def	_ZNSt11_Deque_baseISt10shared_ptrIN3cpr16InterceptorMultiEESaIS3_EE11_Deque_implD1Ev;	.scl	2;	.type	32;	.endef
	.seh_proc	_ZNSt11_Deque_baseISt10shared_ptrIN3cpr16InterceptorMultiEESaIS3_EE11_Deque_implD1Ev
_ZNSt11_Deque_baseISt10shared_ptrIN3cpr16InterceptorMultiEESaIS3_EE11_Deque_implD1Ev:
.LFB14942:
	pushq	%rbp
	.seh_pushreg	%rbp
	movq	%rsp, %rbp
	.seh_setframe	%rbp, 0
	subq	$48, %rsp
	.seh_stackalloc	48
	.seh_endprologue
	movq	%rcx, 16(%rbp)
	movq	16(%rbp), %rax
	movq	%rax, -8(%rbp)
	movq	-8(%rbp), %rax
	movq	%rax, %rcx
	call	_ZNSt15__new_allocatorISt10shared_ptrIN3cpr16InterceptorMultiEEED2Ev
	nop
	nop
	addq	$48, %rsp
	popq	%rbp
	ret
	.seh_endproc
	.section	.text$_ZNSt11_Deque_baseISt10shared_ptrIN3cpr16InterceptorMultiEESaIS3_EEC2Ev,"x"
	.linkonce discard
	.align 2
	.globl	_ZNSt11_Deque_baseISt10shared_ptrIN3cpr16InterceptorMultiEESaIS3_EEC2Ev
	.def	_ZNSt11_Deque_baseISt10shared_ptrIN3cpr16InterceptorMultiEESaIS3_EEC2Ev;	.scl	2;	.type	32;	.endef
	.seh_proc	_ZNSt11_Deque_baseISt10shared_ptrIN3cpr16InterceptorMultiEESaIS3_EEC2Ev
_ZNSt11_Deque_baseISt10shared_ptrIN3cpr16InterceptorMultiEESaIS3_EEC2Ev:
.LFB14943:
	pushq	%rbp
	.seh_pushreg	%rbp
	pushq	%rbx
	.seh_pushreg	%rbx
	subq	$40, %rsp
	.seh_stackalloc	40
	leaq	32(%rsp), %rbp
	.seh_setframe	%rbp, 32
	.seh_endprologue
	movq	%rcx, 32(%rbp)
	movq	32(%rbp), %rax
	movq	%rax, %rcx
	call	_ZNSt11_Deque_baseISt10shared_ptrIN3cpr16InterceptorMultiEESaIS3_EE11_Deque_implC1Ev
	movq	32(%rbp), %rax
	movl	$0, %edx
	movq	%rax, %rcx
.LEHB63:
	call	_ZNSt11_Deque_baseISt10shared_ptrIN3cpr16InterceptorMultiEESaIS3_EE17_M_initialize_mapEy
.LEHE63:
	jmp	.L493
.L492:
	movq	%rax, %rbx
	movq	32(%rbp), %rax
	movq	%rax, %rcx
	call	_ZNSt11_Deque_baseISt10shared_ptrIN3cpr16InterceptorMultiEESaIS3_EE11_Deque_implD1Ev
	movq	%rbx, %rax
	movq	%rax, %rcx
.LEHB64:
	call	_Unwind_Resume
	nop
.LEHE64:
.L493:
	addq	$40, %rsp
	popq	%rbx
	popq	%rbp
	ret
	.seh_handler	__gxx_personality_seh0, @unwind, @except
	.seh_handlerdata
.LLSDA14943:
	.byte	0xff
	.byte	0xff
	.byte	0x1
	.uleb128 .LLSDACSE14943-.LLSDACSB14943
.LLSDACSB14943:
	.uleb128 .LEHB63-.LFB14943
	.uleb128 .LEHE63-.LEHB63
	.uleb128 .L492-.LFB14943
	.uleb128 0
	.uleb128 .LEHB64-.LFB14943
	.uleb128 .LEHE64-.LEHB64
	.uleb128 0
	.uleb128 0
.LLSDACSE14943:
	.section	.text$_ZNSt11_Deque_baseISt10shared_ptrIN3cpr16InterceptorMultiEESaIS3_EEC2Ev,"x"
	.linkonce discard
	.seh_endproc
	.section	.text$_ZNSt11_Deque_baseISt10shared_ptrIN3cpr16InterceptorMultiEESaIS3_EED2Ev,"x"
	.linkonce discard
	.align 2
	.globl	_ZNSt11_Deque_baseISt10shared_ptrIN3cpr16InterceptorMultiEESaIS3_EED2Ev
	.def	_ZNSt11_Deque_baseISt10shared_ptrIN3cpr16InterceptorMultiEESaIS3_EED2Ev;	.scl	2;	.type	32;	.endef
	.seh_proc	_ZNSt11_Deque_baseISt10shared_ptrIN3cpr16InterceptorMultiEESaIS3_EED2Ev
_ZNSt11_Deque_baseISt10shared_ptrIN3cpr16InterceptorMultiEESaIS3_EED2Ev:
.LFB14946:
	pushq	%rbp
	.seh_pushreg	%rbp
	movq	%rsp, %rbp
	.seh_setframe	%rbp, 0
	subq	$32, %rsp
	.seh_stackalloc	32
	.seh_endprologue
	movq	%rcx, 16(%rbp)
	movq	16(%rbp), %rax
	movq	(%rax), %rax
	testq	%rax, %rax
	je	.L495
	movq	16(%rbp), %rax
	movq	72(%rax), %rax
	leaq	8(%rax), %rcx
	movq	16(%rbp), %rax
	movq	40(%rax), %rdx
	movq	16(%rbp), %rax
	movq	%rcx, %r8
	movq	%rax, %rcx
	call	_ZNSt11_Deque_baseISt10shared_ptrIN3cpr16InterceptorMultiEESaIS3_EE16_M_destroy_nodesEPPS3_S7_
	movq	16(%rbp), %rax
	movq	8(%rax), %rcx
	movq	16(%rbp), %rax
	movq	(%rax), %rdx
	movq	16(%rbp), %rax
	movq	%rcx, %r8
	movq	%rax, %rcx
	call	_ZNSt11_Deque_baseISt10shared_ptrIN3cpr16InterceptorMultiEESaIS3_EE17_M_deallocate_mapEPPS3_y
.L495:
	movq	16(%rbp), %rax
	movq	%rax, %rcx
	call	_ZNSt11_Deque_baseISt10shared_ptrIN3cpr16InterceptorMultiEESaIS3_EE11_Deque_implD1Ev
	nop
	addq	$32, %rsp
	popq	%rbp
	ret
	.seh_endproc
	.section	.text$_ZNSt5dequeISt10shared_ptrIN3cpr16InterceptorMultiEESaIS3_EE5beginEv,"x"
	.linkonce discard
	.align 2
	.globl	_ZNSt5dequeISt10shared_ptrIN3cpr16InterceptorMultiEESaIS3_EE5beginEv
	.def	_ZNSt5dequeISt10shared_ptrIN3cpr16InterceptorMultiEESaIS3_EE5beginEv;	.scl	2;	.type	32;	.endef
	.seh_proc	_ZNSt5dequeISt10shared_ptrIN3cpr16InterceptorMultiEESaIS3_EE5beginEv
_ZNSt5dequeISt10shared_ptrIN3cpr16InterceptorMultiEESaIS3_EE5beginEv:
.LFB14948:
	pushq	%rbp
	.seh_pushreg	%rbp
	movq	%rsp, %rbp
	.seh_setframe	%rbp, 0
	subq	$32, %rsp
	.seh_stackalloc	32
	.seh_endprologue
	movq	%rcx, 16(%rbp)
	movq	%rdx, 24(%rbp)
	movq	24(%rbp), %rax
	leaq	16(%rax), %rdx
	movq	16(%rbp), %rax
	movq	%rax, %rcx
	call	_ZNSt15_Deque_iteratorISt10shared_ptrIN3cpr16InterceptorMultiEERS3_PS3_EC1ERKS6_
	movq	16(%rbp), %rax
	addq	$32, %rsp
	popq	%rbp
	ret
	.seh_endproc
	.section	.text$_ZNSt5dequeISt10shared_ptrIN3cpr16InterceptorMultiEESaIS3_EE3endEv,"x"
	.linkonce discard
	.align 2
	.globl	_ZNSt5dequeISt10shared_ptrIN3cpr16InterceptorMultiEESaIS3_EE3endEv
	.def	_ZNSt5dequeISt10shared_ptrIN3cpr16InterceptorMultiEESaIS3_EE3endEv;	.scl	2;	.type	32;	.endef
	.seh_proc	_ZNSt5dequeISt10shared_ptrIN3cpr16InterceptorMultiEESaIS3_EE3endEv
_ZNSt5dequeISt10shared_ptrIN3cpr16InterceptorMultiEESaIS3_EE3endEv:
.LFB14949:
	pushq	%rbp
	.seh_pushreg	%rbp
	movq	%rsp, %rbp
	.seh_setframe	%rbp, 0
	subq	$32, %rsp
	.seh_stackalloc	32
	.seh_endprologue
	movq	%rcx, 16(%rbp)
	movq	%rdx, 24(%rbp)
	movq	24(%rbp), %rax
	leaq	48(%rax), %rdx
	movq	16(%rbp), %rax
	movq	%rax, %rcx
	call	_ZNSt15_Deque_iteratorISt10shared_ptrIN3cpr16InterceptorMultiEERS3_PS3_EC1ERKS6_
	movq	16(%rbp), %rax
	addq	$32, %rsp
	popq	%rbp
	ret
	.seh_endproc
	.section	.text$_ZNSt11_Deque_baseISt10shared_ptrIN3cpr16InterceptorMultiEESaIS3_EE19_M_get_Tp_allocatorEv,"x"
	.linkonce discard
	.align 2
	.globl	_ZNSt11_Deque_baseISt10shared_ptrIN3cpr16InterceptorMultiEESaIS3_EE19_M_get_Tp_allocatorEv
	.def	_ZNSt11_Deque_baseISt10shared_ptrIN3cpr16InterceptorMultiEESaIS3_EE19_M_get_Tp_allocatorEv;	.scl	2;	.type	32;	.endef
	.seh_proc	_ZNSt11_Deque_baseISt10shared_ptrIN3cpr16InterceptorMultiEESaIS3_EE19_M_get_Tp_allocatorEv
_ZNSt11_Deque_baseISt10shared_ptrIN3cpr16InterceptorMultiEESaIS3_EE19_M_get_Tp_allocatorEv:
.LFB14950:
	pushq	%rbp
	.seh_pushreg	%rbp
	movq	%rsp, %rbp
	.seh_setframe	%rbp, 0
	.seh_endprologue
	movq	%rcx, 16(%rbp)
	movq	16(%rbp), %rax
	popq	%rbp
	ret
	.seh_endproc
	.section	.text$_ZNSt5dequeISt10shared_ptrIN3cpr16InterceptorMultiEESaIS3_EE15_M_destroy_dataESt15_Deque_iteratorIS3_RS3_PS3_ES9_RKS4_,"x"
	.linkonce discard
	.align 2
	.globl	_ZNSt5dequeISt10shared_ptrIN3cpr16InterceptorMultiEESaIS3_EE15_M_destroy_dataESt15_Deque_iteratorIS3_RS3_PS3_ES9_RKS4_
	.def	_ZNSt5dequeISt10shared_ptrIN3cpr16InterceptorMultiEESaIS3_EE15_M_destroy_dataESt15_Deque_iteratorIS3_RS3_PS3_ES9_RKS4_;	.scl	2;	.type	32;	.endef
	.seh_proc	_ZNSt5dequeISt10shared_ptrIN3cpr16InterceptorMultiEESaIS3_EE15_M_destroy_dataESt15_Deque_iteratorIS3_RS3_PS3_ES9_RKS4_
_ZNSt5dequeISt10shared_ptrIN3cpr16InterceptorMultiEESaIS3_EE15_M_destroy_dataESt15_Deque_iteratorIS3_RS3_PS3_ES9_RKS4_:
.LFB14951:
	pushq	%rbp
	.seh_pushreg	%rbp
	movq	%rsp, %rbp
	.seh_setframe	%rbp, 0
	subq	$96, %rsp
	.seh_stackalloc	96
	.seh_endprologue
	movq	%rcx, 16(%rbp)
	movq	%rdx, 24(%rbp)
	movq	%r8, 32(%rbp)
	movq	%r9, 40(%rbp)
	movq	32(%rbp), %rdx
	leaq	-64(%rbp), %rax
	movq	%rax, %rcx
	call	_ZNSt15_Deque_iteratorISt10shared_ptrIN3cpr16InterceptorMultiEERS3_PS3_EC1ERKS6_
	movq	24(%rbp), %rdx
	leaq	-32(%rbp), %rax
	movq	%rax, %rcx
	call	_ZNSt15_Deque_iteratorISt10shared_ptrIN3cpr16InterceptorMultiEERS3_PS3_EC1ERKS6_
	leaq	-64(%rbp), %rcx
	leaq	-32(%rbp), %rdx
	movq	16(%rbp), %rax
	movq	%rcx, %r8
	movq	%rax, %rcx
	call	_ZNSt5dequeISt10shared_ptrIN3cpr16InterceptorMultiEESaIS3_EE19_M_destroy_data_auxESt15_Deque_iteratorIS3_RS3_PS3_ES9_
	nop
	addq	$96, %rsp
	popq	%rbp
	ret
	.seh_endproc
	.section	.text$_ZN9__gnu_cxx17__normal_iteratorIPSt4pairISt10shared_ptrIN3cpr7SessionEENS3_12MultiPerform10HttpMethodEESt6vectorIS8_SaIS8_EEEC1ERKS9_,"x"
	.linkonce discard
	.align 2
	.globl	_ZN9__gnu_cxx17__normal_iteratorIPSt4pairISt10shared_ptrIN3cpr7SessionEENS3_12MultiPerform10HttpMethodEESt6vectorIS8_SaIS8_EEEC1ERKS9_
	.def	_ZN9__gnu_cxx17__normal_iteratorIPSt4pairISt10shared_ptrIN3cpr7SessionEENS3_12MultiPerform10HttpMethodEESt6vectorIS8_SaIS8_EEEC1ERKS9_;	.scl	2;	.type	32;	.endef
	.seh_proc	_ZN9__gnu_cxx17__normal_iteratorIPSt4pairISt10shared_ptrIN3cpr7SessionEENS3_12MultiPerform10HttpMethodEESt6vectorIS8_SaIS8_EEEC1ERKS9_
_ZN9__gnu_cxx17__normal_iteratorIPSt4pairISt10shared_ptrIN3cpr7SessionEENS3_12MultiPerform10HttpMethodEESt6vectorIS8_SaIS8_EEEC1ERKS9_:
.LFB14954:
	pushq	%rbp
	.seh_pushreg	%rbp
	movq	%rsp, %rbp
	.seh_setframe	%rbp, 0
	.seh_endprologue
	movq	%rcx, 16(%rbp)
	movq	%rdx, 24(%rbp)
	movq	24(%rbp), %rax
	movq	(%rax), %rdx
	movq	16(%rbp), %rax
	movq	%rdx, (%rax)
	nop
	popq	%rbp
	ret
	.seh_endproc
	.section	.text$_ZNK9__gnu_cxx17__normal_iteratorIPSt4pairISt10shared_ptrIN3cpr7SessionEENS3_12MultiPerform10HttpMethodEESt6vectorIS8_SaIS8_EEE4baseEv,"x"
	.linkonce discard
	.align 2
	.globl	_ZNK9__gnu_cxx17__normal_iteratorIPSt4pairISt10shared_ptrIN3cpr7SessionEENS3_12MultiPerform10HttpMethodEESt6vectorIS8_SaIS8_EEE4baseEv
	.def	_ZNK9__gnu_cxx17__normal_iteratorIPSt4pairISt10shared_ptrIN3cpr7SessionEENS3_12MultiPerform10HttpMethodEESt6vectorIS8_SaIS8_EEE4baseEv;	.scl	2;	.type	32;	.endef
	.seh_proc	_ZNK9__gnu_cxx17__normal_iteratorIPSt4pairISt10shared_ptrIN3cpr7SessionEENS3_12MultiPerform10HttpMethodEESt6vectorIS8_SaIS8_EEE4baseEv
_ZNK9__gnu_cxx17__normal_iteratorIPSt4pairISt10shared_ptrIN3cpr7SessionEENS3_12MultiPerform10HttpMethodEESt6vectorIS8_SaIS8_EEE4baseEv:
.LFB14955:
	pushq	%rbp
	.seh_pushreg	%rbp
	movq	%rsp, %rbp
	.seh_setframe	%rbp, 0
	.seh_endprologue
	movq	%rcx, 16(%rbp)
	movq	16(%rbp), %rax
	popq	%rbp
	ret
	.seh_endproc
	.section	.text$_ZNKSt19__shared_ptr_accessIN3cpr7SessionELN9__gnu_cxx12_Lock_policyE2ELb0ELb0EE6_M_getEv,"x"
	.linkonce discard
	.align 2
	.globl	_ZNKSt19__shared_ptr_accessIN3cpr7SessionELN9__gnu_cxx12_Lock_policyE2ELb0ELb0EE6_M_getEv
	.def	_ZNKSt19__shared_ptr_accessIN3cpr7SessionELN9__gnu_cxx12_Lock_policyE2ELb0ELb0EE6_M_getEv;	.scl	2;	.type	32;	.endef
	.seh_proc	_ZNKSt19__shared_ptr_accessIN3cpr7SessionELN9__gnu_cxx12_Lock_policyE2ELb0ELb0EE6_M_getEv
_ZNKSt19__shared_ptr_accessIN3cpr7SessionELN9__gnu_cxx12_Lock_policyE2ELb0ELb0EE6_M_getEv:
.LFB14956:
	pushq	%rbp
	.seh_pushreg	%rbp
	movq	%rsp, %rbp
	.seh_setframe	%rbp, 0
	subq	$32, %rsp
	.seh_stackalloc	32
	.seh_endprologue
	movq	%rcx, 16(%rbp)
	movq	16(%rbp), %rax
	movq	%rax, %rcx
	call	_ZNKSt12__shared_ptrIN3cpr7SessionELN9__gnu_cxx12_Lock_policyE2EE3getEv
	addq	$32, %rsp
	popq	%rbp
	ret
	.seh_endproc
	.section	.text$_ZNKSt10unique_ptrIN3cpr15CurlMultiHolderESt14default_deleteIS1_EE3getEv,"x"
	.linkonce discard
	.align 2
	.globl	_ZNKSt10unique_ptrIN3cpr15CurlMultiHolderESt14default_deleteIS1_EE3getEv
	.def	_ZNKSt10unique_ptrIN3cpr15CurlMultiHolderESt14default_deleteIS1_EE3getEv;	.scl	2;	.type	32;	.endef
	.seh_proc	_ZNKSt10unique_ptrIN3cpr15CurlMultiHolderESt14default_deleteIS1_EE3getEv
_ZNKSt10unique_ptrIN3cpr15CurlMultiHolderESt14default_deleteIS1_EE3getEv:
.LFB14957:
	pushq	%rbp
	.seh_pushreg	%rbp
	movq	%rsp, %rbp
	.seh_setframe	%rbp, 0
	subq	$32, %rsp
	.seh_stackalloc	32
	.seh_endprologue
	movq	%rcx, 16(%rbp)
	movq	16(%rbp), %rax
	movq	%rax, %rcx
	call	_ZNKSt15__uniq_ptr_implIN3cpr15CurlMultiHolderESt14default_deleteIS1_EE6_M_ptrEv
	addq	$32, %rsp
	popq	%rbp
	ret
	.seh_endproc
	.section	.text$_ZNKSt19__shared_ptr_accessIN3cpr10CurlHolderELN9__gnu_cxx12_Lock_policyE2ELb0ELb0EE6_M_getEv,"x"
	.linkonce discard
	.align 2
	.globl	_ZNKSt19__shared_ptr_accessIN3cpr10CurlHolderELN9__gnu_cxx12_Lock_policyE2ELb0ELb0EE6_M_getEv
	.def	_ZNKSt19__shared_ptr_accessIN3cpr10CurlHolderELN9__gnu_cxx12_Lock_policyE2ELb0ELb0EE6_M_getEv;	.scl	2;	.type	32;	.endef
	.seh_proc	_ZNKSt19__shared_ptr_accessIN3cpr10CurlHolderELN9__gnu_cxx12_Lock_policyE2ELb0ELb0EE6_M_getEv
_ZNKSt19__shared_ptr_accessIN3cpr10CurlHolderELN9__gnu_cxx12_Lock_policyE2ELb0ELb0EE6_M_getEv:
.LFB14958:
	pushq	%rbp
	.seh_pushreg	%rbp
	movq	%rsp, %rbp
	.seh_setframe	%rbp, 0
	subq	$32, %rsp
	.seh_stackalloc	32
	.seh_endprologue
	movq	%rcx, 16(%rbp)
	movq	16(%rbp), %rax
	movq	%rax, %rcx
	call	_ZNKSt12__shared_ptrIN3cpr10CurlHolderELN9__gnu_cxx12_Lock_policyE2EE3getEv
	addq	$32, %rsp
	popq	%rbp
	ret
	.seh_endproc
	.section	.text$_ZNKSt6vectorISt4pairISt10shared_ptrIN3cpr7SessionEENS2_12MultiPerform10HttpMethodEESaIS7_EE5beginEv,"x"
	.linkonce discard
	.align 2
	.globl	_ZNKSt6vectorISt4pairISt10shared_ptrIN3cpr7SessionEENS2_12MultiPerform10HttpMethodEESaIS7_EE5beginEv
	.def	_ZNKSt6vectorISt4pairISt10shared_ptrIN3cpr7SessionEENS2_12MultiPerform10HttpMethodEESaIS7_EE5beginEv;	.scl	2;	.type	32;	.endef
	.seh_proc	_ZNKSt6vectorISt4pairISt10shared_ptrIN3cpr7SessionEENS2_12MultiPerform10HttpMethodEESaIS7_EE5beginEv
_ZNKSt6vectorISt4pairISt10shared_ptrIN3cpr7SessionEENS2_12MultiPerform10HttpMethodEESaIS7_EE5beginEv:
.LFB14962:
	pushq	%rbp
	.seh_pushreg	%rbp
	movq	%rsp, %rbp
	.seh_setframe	%rbp, 0
	subq	$48, %rsp
	.seh_stackalloc	48
	.seh_endprologue
	movq	%rcx, 16(%rbp)
	movq	16(%rbp), %rdx
	leaq	-8(%rbp), %rax
	movq	%rax, %rcx
	call	_ZN9__gnu_cxx17__normal_iteratorIPKSt4pairISt10shared_ptrIN3cpr7SessionEENS3_12MultiPerform10HttpMethodEESt6vectorIS8_SaIS8_EEEC1ERKSA_
	movq	-8(%rbp), %rax
	addq	$48, %rsp
	popq	%rbp
	ret
	.seh_endproc
	.section	.text$_ZNKSt6vectorISt4pairISt10shared_ptrIN3cpr7SessionEENS2_12MultiPerform10HttpMethodEESaIS7_EE3endEv,"x"
	.linkonce discard
	.align 2
