	.file	"session.cpp"
	.text
	.section	.text$_ZNSt9exceptionC2Ev,"x"
	.linkonce discard
	.align 2
	.globl	_ZNSt9exceptionC2Ev
	.def	_ZNSt9exceptionC2Ev;	.scl	2;	.type	32;	.endef
	.seh_proc	_ZNSt9exceptionC2Ev
_ZNSt9exceptionC2Ev:
.LFB147:
	pushq	%rbp
	.seh_pushreg	%rbp
	movq	%rsp, %rbp
	.seh_setframe	%rbp, 0
	.seh_endprologue
	movq	%rcx, 16(%rbp)
	movq	.refptr._ZTVSt9exception(%rip), %rax
	leaq	16(%rax), %rdx
	movq	16(%rbp), %rax
	movq	%rdx, (%rax)
	nop
	popq	%rbp
	ret
	.seh_endproc
	.section	.text$_ZnwyPv,"x"
	.linkonce discard
	.globl	_ZnwyPv
	.def	_ZnwyPv;	.scl	2;	.type	32;	.endef
	.seh_proc	_ZnwyPv
_ZnwyPv:
.LFB170:
	pushq	%rbp
	.seh_pushreg	%rbp
	movq	%rsp, %rbp
	.seh_setframe	%rbp, 0
	.seh_endprologue
	movq	%rcx, 16(%rbp)
	movq	%rdx, 24(%rbp)
	movq	24(%rbp), %rax
	popq	%rbp
	ret
	.seh_endproc
	.section	.text$_ZdlPvS_,"x"
	.linkonce discard
	.globl	_ZdlPvS_
	.def	_ZdlPvS_;	.scl	2;	.type	32;	.endef
	.seh_proc	_ZdlPvS_
_ZdlPvS_:
.LFB172:
	pushq	%rbp
	.seh_pushreg	%rbp
	movq	%rsp, %rbp
	.seh_setframe	%rbp, 0
	.seh_endprologue
	movq	%rcx, 16(%rbp)
	movq	%rdx, 24(%rbp)
	nop
	popq	%rbp
	ret
	.seh_endproc
	.section	.text$_ZNSt15__exception_ptr13exception_ptrC1EOS0_,"x"
	.linkonce discard
	.align 2
	.globl	_ZNSt15__exception_ptr13exception_ptrC1EOS0_
	.def	_ZNSt15__exception_ptr13exception_ptrC1EOS0_;	.scl	2;	.type	32;	.endef
	.seh_proc	_ZNSt15__exception_ptr13exception_ptrC1EOS0_
_ZNSt15__exception_ptr13exception_ptrC1EOS0_:
.LFB199:
	pushq	%rbp
	.seh_pushreg	%rbp
	movq	%rsp, %rbp
	.seh_setframe	%rbp, 0
	.seh_endprologue
	movq	%rcx, 16(%rbp)
	movq	%rdx, 24(%rbp)
	movq	24(%rbp), %rax
	movq	(%rax), %rdx
	movq	16(%rbp), %rax
	movq	%rdx, (%rax)
	movq	24(%rbp), %rax
	movq	$0, (%rax)
	nop
	popq	%rbp
	ret
	.seh_endproc
	.section	.text$_ZNSt15__exception_ptr13exception_ptraSEOS0_,"x"
	.linkonce discard
	.align 2
	.globl	_ZNSt15__exception_ptr13exception_ptraSEOS0_
	.def	_ZNSt15__exception_ptr13exception_ptraSEOS0_;	.scl	2;	.type	32;	.endef
	.seh_proc	_ZNSt15__exception_ptr13exception_ptraSEOS0_
_ZNSt15__exception_ptr13exception_ptraSEOS0_:
.LFB200:
	pushq	%rbp
	.seh_pushreg	%rbp
	movq	%rsp, %rbp
	.seh_setframe	%rbp, 0
	subq	$48, %rsp
	.seh_stackalloc	48
	.seh_endprologue
	movq	%rcx, 16(%rbp)
	movq	%rdx, 24(%rbp)
	movq	24(%rbp), %rdx
	leaq	-8(%rbp), %rax
	movq	%rax, %rcx
	call	_ZNSt15__exception_ptr13exception_ptrC1EOS0_
	movq	16(%rbp), %rdx
	leaq	-8(%rbp), %rax
	movq	%rax, %rcx
	call	_ZNSt15__exception_ptr13exception_ptr4swapERS0_
	leaq	-8(%rbp), %rax
	movq	%rax, %rcx
	call	_ZNSt15__exception_ptr13exception_ptrD1Ev
	movq	16(%rbp), %rax
	addq	$48, %rsp
	popq	%rbp
	ret
	.seh_endproc
	.section	.text$_ZNSt15__exception_ptr13exception_ptrD1Ev,"x"
	.linkonce discard
	.align 2
	.globl	_ZNSt15__exception_ptr13exception_ptrD1Ev
	.def	_ZNSt15__exception_ptr13exception_ptrD1Ev;	.scl	2;	.type	32;	.endef
	.seh_proc	_ZNSt15__exception_ptr13exception_ptrD1Ev
_ZNSt15__exception_ptr13exception_ptrD1Ev:
.LFB212:
	pushq	%rbp
	.seh_pushreg	%rbp
	movq	%rsp, %rbp
	.seh_setframe	%rbp, 0
	subq	$32, %rsp
	.seh_stackalloc	32
	.seh_endprologue
	movq	%rcx, 16(%rbp)
	movq	16(%rbp), %rax
	movq	(%rax), %rax
	testq	%rax, %rax
	je	.L10
	movq	16(%rbp), %rax
	movq	%rax, %rcx
	call	_ZNSt15__exception_ptr13exception_ptr10_M_releaseEv
.L10:
	nop
	addq	$32, %rsp
	popq	%rbp
	ret
	.seh_endproc
	.section	.text$_ZNSt15__exception_ptr13exception_ptr4swapERS0_,"x"
	.linkonce discard
	.align 2
	.globl	_ZNSt15__exception_ptr13exception_ptr4swapERS0_
	.def	_ZNSt15__exception_ptr13exception_ptr4swapERS0_;	.scl	2;	.type	32;	.endef
	.seh_proc	_ZNSt15__exception_ptr13exception_ptr4swapERS0_
_ZNSt15__exception_ptr13exception_ptr4swapERS0_:
.LFB214:
	pushq	%rbp
	.seh_pushreg	%rbp
	movq	%rsp, %rbp
	.seh_setframe	%rbp, 0
	subq	$16, %rsp
	.seh_stackalloc	16
	.seh_endprologue
	movq	%rcx, 16(%rbp)
	movq	%rdx, 24(%rbp)
	movq	16(%rbp), %rax
	movq	(%rax), %rax
	movq	%rax, -8(%rbp)
	movq	24(%rbp), %rax
	movq	(%rax), %rdx
	movq	16(%rbp), %rax
	movq	%rdx, (%rax)
	movq	24(%rbp), %rax
	movq	-8(%rbp), %rdx
	movq	%rdx, (%rax)
	nop
	addq	$16, %rsp
	popq	%rbp
	ret
	.seh_endproc
	.section	.text$_ZNSt11char_traitsIcE6lengthEPKc,"x"
	.linkonce discard
	.globl	_ZNSt11char_traitsIcE6lengthEPKc
	.def	_ZNSt11char_traitsIcE6lengthEPKc;	.scl	2;	.type	32;	.endef
	.seh_proc	_ZNSt11char_traitsIcE6lengthEPKc
_ZNSt11char_traitsIcE6lengthEPKc:
.LFB245:
	pushq	%rbp
	.seh_pushreg	%rbp
	movq	%rsp, %rbp
	.seh_setframe	%rbp, 0
	subq	$32, %rsp
	.seh_stackalloc	32
	.seh_endprologue
	movq	%rcx, 16(%rbp)
	movl	$0, %eax
	testb	%al, %al
	je	.L14
	movq	16(%rbp), %rax
	movq	%rax, %rcx
	call	_ZN9__gnu_cxx11char_traitsIcE6lengthEPKc
	jmp	.L15
.L14:
	movq	16(%rbp), %rax
	movq	%rax, %rcx
	call	strlen
	nop
.L15:
	addq	$32, %rsp
	popq	%rbp
	ret
	.seh_endproc
	.text
	.def	_ZL18__gthread_active_pv;	.scl	3;	.type	32;	.endef
	.seh_proc	_ZL18__gthread_active_pv
_ZL18__gthread_active_pv:
.LFB393:
	pushq	%rbp
	.seh_pushreg	%rbp
	movq	%rsp, %rbp
	.seh_setframe	%rbp, 0
	.seh_endprologue
	movl	$1, %eax
	popq	%rbp
	ret
	.seh_endproc
	.def	_ZL14__gthread_oncePlPFvvE;	.scl	3;	.type	32;	.endef
	.seh_proc	_ZL14__gthread_oncePlPFvvE
_ZL14__gthread_oncePlPFvvE:
.LFB400:
	pushq	%rbp
	.seh_pushreg	%rbp
	movq	%rsp, %rbp
	.seh_setframe	%rbp, 0
	subq	$32, %rsp
	.seh_stackalloc	32
	.seh_endprologue
	movq	%rcx, 16(%rbp)
	movq	%rdx, 24(%rbp)
	call	_ZL18__gthread_active_pv
	testl	%eax, %eax
	setne	%al
	testb	%al, %al
	je	.L19
	movq	24(%rbp), %rdx
	movq	16(%rbp), %rax
	movq	%rax, %rcx
	call	pthread_once
	jmp	.L20
.L19:
	movl	$-1, %eax
.L20:
	addq	$32, %rsp
	popq	%rbp
	ret
	.seh_endproc
	.def	_ZL29__gthread_mutex_init_functionPx;	.scl	3;	.type	32;	.endef
	.seh_proc	_ZL29__gthread_mutex_init_functionPx
_ZL29__gthread_mutex_init_functionPx:
.LFB405:
	pushq	%rbp
	.seh_pushreg	%rbp
	movq	%rsp, %rbp
	.seh_setframe	%rbp, 0
	subq	$32, %rsp
	.seh_stackalloc	32
	.seh_endprologue
	movq	%rcx, 16(%rbp)
	call	_ZL18__gthread_active_pv
	testl	%eax, %eax
	setne	%al
	testb	%al, %al
	je	.L23
	movq	16(%rbp), %rax
	movl	$0, %edx
	movq	%rax, %rcx
	call	pthread_mutex_init
.L23:
	nop
	addq	$32, %rsp
	popq	%rbp
	ret
	.seh_endproc
	.def	_ZL23__gthread_mutex_destroyPx;	.scl	3;	.type	32;	.endef
	.seh_proc	_ZL23__gthread_mutex_destroyPx
_ZL23__gthread_mutex_destroyPx:
.LFB406:
	pushq	%rbp
	.seh_pushreg	%rbp
	movq	%rsp, %rbp
	.seh_setframe	%rbp, 0
	subq	$32, %rsp
	.seh_stackalloc	32
	.seh_endprologue
	movq	%rcx, 16(%rbp)
	call	_ZL18__gthread_active_pv
	testl	%eax, %eax
	setne	%al
	testb	%al, %al
	je	.L25
	movq	16(%rbp), %rax
	movq	%rax, %rcx
	call	pthread_mutex_destroy
	jmp	.L26
.L25:
	movl	$0, %eax
.L26:
	addq	$32, %rsp
	popq	%rbp
	ret
	.seh_endproc
	.def	_ZL20__gthread_mutex_lockPx;	.scl	3;	.type	32;	.endef
	.seh_proc	_ZL20__gthread_mutex_lockPx
_ZL20__gthread_mutex_lockPx:
.LFB407:
	pushq	%rbp
	.seh_pushreg	%rbp
	movq	%rsp, %rbp
	.seh_setframe	%rbp, 0
	subq	$32, %rsp
	.seh_stackalloc	32
	.seh_endprologue
	movq	%rcx, 16(%rbp)
	call	_ZL18__gthread_active_pv
	testl	%eax, %eax
	setne	%al
	testb	%al, %al
	je	.L28
	movq	16(%rbp), %rax
	movq	%rax, %rcx
	call	pthread_mutex_lock
	jmp	.L29
.L28:
	movl	$0, %eax
.L29:
	addq	$32, %rsp
	popq	%rbp
	ret
	.seh_endproc
	.def	_ZL22__gthread_mutex_unlockPx;	.scl	3;	.type	32;	.endef
	.seh_proc	_ZL22__gthread_mutex_unlockPx
_ZL22__gthread_mutex_unlockPx:
.LFB410:
	pushq	%rbp
	.seh_pushreg	%rbp
	movq	%rsp, %rbp
	.seh_setframe	%rbp, 0
	subq	$32, %rsp
	.seh_stackalloc	32
	.seh_endprologue
	movq	%rcx, 16(%rbp)
	call	_ZL18__gthread_active_pv
	testl	%eax, %eax
	setne	%al
	testb	%al, %al
	je	.L31
	movq	16(%rbp), %rax
	movq	%rax, %rcx
	call	pthread_mutex_unlock
	jmp	.L32
.L31:
	movl	$0, %eax
.L32:
	addq	$32, %rsp
	popq	%rbp
	ret
	.seh_endproc
	.globl	_ZSt19piecewise_construct
	.section	.rdata$_ZSt19piecewise_construct,"dr"
	.linkonce same_size
_ZSt19piecewise_construct:
	.space 1
	.section	.text$_ZZNSt7__cxx119to_stringEiENKUlPcyE_clES0_y,"x"
	.linkonce discard
	.align 2
	.globl	_ZZNSt7__cxx119to_stringEiENKUlPcyE_clES0_y
	.def	_ZZNSt7__cxx119to_stringEiENKUlPcyE_clES0_y;	.scl	2;	.type	32;	.endef
	.seh_proc	_ZZNSt7__cxx119to_stringEiENKUlPcyE_clES0_y
_ZZNSt7__cxx119to_stringEiENKUlPcyE_clES0_y:
.LFB1415:
	pushq	%rbp
	.seh_pushreg	%rbp
	movq	%rsp, %rbp
	.seh_setframe	%rbp, 0
	subq	$32, %rsp
	.seh_stackalloc	32
	.seh_endprologue
	movq	%rcx, 16(%rbp)
	movq	%rdx, 24(%rbp)
	movq	%r8, 32(%rbp)
	movq	24(%rbp), %rax
	movb	$45, (%rax)
	movq	16(%rbp), %rax
	movl	8(%rax), %r8d
	movq	16(%rbp), %rax
	movl	4(%rax), %eax
	movq	16(%rbp), %rdx
	movzbl	(%rdx), %edx
	movzbl	%dl, %ecx
	movq	24(%rbp), %rdx
	addq	%rdx, %rcx
	movl	%eax, %edx
	call	_ZNSt8__detail18__to_chars_10_implIjEEvPcjT_
	movq	32(%rbp), %rax
	addq	$32, %rsp
	popq	%rbp
	ret
	.seh_endproc
	.section	.text$_ZNSt7__cxx119to_stringEi,"x"
	.linkonce discard
	.globl	_ZNSt7__cxx119to_stringEi
	.def	_ZNSt7__cxx119to_stringEi;	.scl	2;	.type	32;	.endef
	.seh_proc	_ZNSt7__cxx119to_stringEi
_ZNSt7__cxx119to_stringEi:
.LFB1412:
	pushq	%rbp
	.seh_pushreg	%rbp
	movq	%rsp, %rbp
	.seh_setframe	%rbp, 0
	subq	$80, %rsp
	.seh_stackalloc	80
	.seh_endprologue
	movq	%rcx, 16(%rbp)
	movl	%edx, 24(%rbp)
	movl	24(%rbp), %eax
	shrl	$31, %eax
	movb	%al, -1(%rbp)
	cmpb	$0, -1(%rbp)
	je	.L36
	movl	24(%rbp), %eax
	negl	%eax
	jmp	.L37
.L36:
	movl	24(%rbp), %eax
.L37:
	movl	%eax, -8(%rbp)
	movl	-8(%rbp), %eax
	movl	$10, %edx
	movl	%eax, %ecx
	call	_ZNSt8__detail14__to_chars_lenIjEEjT_i
	movl	%eax, -12(%rbp)
	movq	16(%rbp), %rax
	movq	%rax, %rcx
	call	_ZNSt7__cxx1112basic_stringIcSt11char_traitsIcESaIcEEC1Ev
	movzbl	-1(%rbp), %eax
	movb	%al, -24(%rbp)
	movl	-12(%rbp), %eax
	movl	%eax, -20(%rbp)
	movl	-8(%rbp), %eax
	movl	%eax, -16(%rbp)
	movzbl	-1(%rbp), %edx
	movl	-12(%rbp), %eax
	addl	%edx, %eax
	movl	%eax, %ecx
	movq	-24(%rbp), %rax
	movq	%rax, -48(%rbp)
	movl	-16(%rbp), %eax
	movl	%eax, -40(%rbp)
	leaq	-48(%rbp), %rdx
	movq	16(%rbp), %rax
	movq	%rdx, %r8
	movq	%rcx, %rdx
	movq	%rax, %rcx
	call	_ZNSt7__cxx1112basic_stringIcSt11char_traitsIcESaIcEE22__resize_and_overwriteIZNS_9to_stringEiEUlPcyE_EEvyT_
	movq	16(%rbp), %rax
	addq	$80, %rsp
	popq	%rbp
	ret
	.seh_handler	__gxx_personality_seh0, @unwind, @except
	.seh_handlerdata
.LLSDA1412:
	.byte	0xff
	.byte	0xff
	.byte	0x1
	.uleb128 .LLSDACSE1412-.LLSDACSB1412
.LLSDACSB1412:
.LLSDACSE1412:
	.section	.text$_ZNSt7__cxx119to_stringEi,"x"
	.linkonce discard
	.seh_endproc
	.section	.text$_ZNSt8__detail14__to_chars_lenIjEEjT_i,"x"
	.linkonce discard
	.globl	_ZNSt8__detail14__to_chars_lenIjEEjT_i
	.def	_ZNSt8__detail14__to_chars_lenIjEEjT_i;	.scl	2;	.type	32;	.endef
	.seh_proc	_ZNSt8__detail14__to_chars_lenIjEEjT_i
_ZNSt8__detail14__to_chars_lenIjEEjT_i:
.LFB1417:
	pushq	%rbp
	.seh_pushreg	%rbp
	movq	%rsp, %rbp
	.seh_setframe	%rbp, 0
	subq	$16, %rsp
	.seh_stackalloc	16
	.seh_endprologue
	movl	%ecx, 16(%rbp)
	movl	%edx, 24(%rbp)
	movl	$1, -4(%rbp)
	movl	24(%rbp), %eax
	imull	%eax, %eax
	movl	%eax, -8(%rbp)
	movl	24(%rbp), %eax
	movl	-8(%rbp), %edx
	imull	%edx, %eax
	movl	%eax, -12(%rbp)
	movl	24(%rbp), %eax
	movl	-12(%rbp), %edx
	imull	%edx, %eax
	movl	%eax, -16(%rbp)
.L45:
	movl	24(%rbp), %eax
	cmpl	%eax, 16(%rbp)
	jnb	.L40
	movl	-4(%rbp), %eax
	jmp	.L41
.L40:
	movl	16(%rbp), %eax
	cmpl	-8(%rbp), %eax
	jnb	.L42
	movl	-4(%rbp), %eax
	addl	$1, %eax
	jmp	.L41
.L42:
	movl	16(%rbp), %eax
	cmpl	-12(%rbp), %eax
	jnb	.L43
	movl	-4(%rbp), %eax
	addl	$2, %eax
	jmp	.L41
.L43:
	movl	16(%rbp), %eax
	cmpl	-16(%rbp), %eax
	jnb	.L44
	movl	-4(%rbp), %eax
	addl	$3, %eax
	jmp	.L41
.L44:
	movl	16(%rbp), %eax
	movl	$0, %edx
	divl	-16(%rbp)
	movl	%eax, 16(%rbp)
	addl	$4, -4(%rbp)
	jmp	.L45
.L41:
	addq	$16, %rsp
	popq	%rbp
	ret
	.seh_endproc
	.section	.text$_ZZNSt7__cxx119to_stringExENKUlPcyE_clES0_y,"x"
	.linkonce discard
	.align 2
	.globl	_ZZNSt7__cxx119to_stringExENKUlPcyE_clES0_y
	.def	_ZZNSt7__cxx119to_stringExENKUlPcyE_clES0_y;	.scl	2;	.type	32;	.endef
	.seh_proc	_ZZNSt7__cxx119to_stringExENKUlPcyE_clES0_y
_ZZNSt7__cxx119to_stringExENKUlPcyE_clES0_y:
.LFB1425:
	pushq	%rbp
	.seh_pushreg	%rbp
	movq	%rsp, %rbp
	.seh_setframe	%rbp, 0
	subq	$32, %rsp
	.seh_stackalloc	32
	.seh_endprologue
	movq	%rcx, 16(%rbp)
	movq	%rdx, 24(%rbp)
	movq	%r8, 32(%rbp)
	movq	24(%rbp), %rax
	movb	$45, (%rax)
	movq	16(%rbp), %rax
	movq	8(%rax), %r8
	movq	16(%rbp), %rax
	movl	4(%rax), %eax
	movq	16(%rbp), %rdx
	movzbl	(%rdx), %edx
	movzbl	%dl, %ecx
	movq	24(%rbp), %rdx
	addq	%rdx, %rcx
	movl	%eax, %edx
	call	_ZNSt8__detail18__to_chars_10_implIyEEvPcjT_
	movq	32(%rbp), %rax
	addq	$32, %rsp
	popq	%rbp
	ret
	.seh_endproc
	.section	.text$_ZNSt7__cxx119to_stringEx,"x"
	.linkonce discard
	.globl	_ZNSt7__cxx119to_stringEx
	.def	_ZNSt7__cxx119to_stringEx;	.scl	2;	.type	32;	.endef
	.seh_proc	_ZNSt7__cxx119to_stringEx
_ZNSt7__cxx119to_stringEx:
.LFB1424:
	pushq	%rbp
	.seh_pushreg	%rbp
	pushq	%rdi
	.seh_pushreg	%rdi
	pushq	%rsi
	.seh_pushreg	%rsi
	pushq	%rbx
	.seh_pushreg	%rbx
	subq	$88, %rsp
	.seh_stackalloc	88
	leaq	80(%rsp), %rbp
	.seh_setframe	%rbp, 80
	.seh_endprologue
	movq	%rcx, 48(%rbp)
	movq	%rdx, 56(%rbp)
	movq	56(%rbp), %rax
	shrq	$63, %rax
	movb	%al, -1(%rbp)
	cmpb	$0, -1(%rbp)
	je	.L49
	movq	56(%rbp), %rax
	negq	%rax
	jmp	.L50
.L49:
	movq	56(%rbp), %rax
.L50:
	movq	%rax, -16(%rbp)
	movq	-16(%rbp), %rax
	movl	$10, %edx
	movq	%rax, %rcx
	call	_ZNSt8__detail14__to_chars_lenIyEEjT_i
	movl	%eax, -20(%rbp)
	movq	48(%rbp), %rax
	movq	%rax, %rcx
	call	_ZNSt7__cxx1112basic_stringIcSt11char_traitsIcESaIcEEC1Ev
	movb	-1(%rbp), %sil
	movl	-20(%rbp), %eax
	salq	$32, %rax
	movq	%rsi, %rdx
	movl	%edx, %edx
	orq	%rdx, %rax
	movq	%rax, %rsi
	movq	-16(%rbp), %rdi
	movzbl	-1(%rbp), %edx
	movl	-20(%rbp), %eax
	addl	%edx, %eax
	movl	%eax, %ecx
	movq	%rsi, -48(%rbp)
	movq	%rdi, -40(%rbp)
	leaq	-48(%rbp), %rdx
	movq	48(%rbp), %rax
	movq	%rdx, %r8
	movq	%rcx, %rdx
	movq	%rax, %rcx
.LEHB0:
	call	_ZNSt7__cxx1112basic_stringIcSt11char_traitsIcESaIcEE22__resize_and_overwriteIZNS_9to_stringExEUlPcyE_EEvyT_
.LEHE0:
	jmp	.L54
.L53:
	movq	%rax, %rbx
	movq	48(%rbp), %rax
	movq	%rax, %rcx
	call	_ZNSt7__cxx1112basic_stringIcSt11char_traitsIcESaIcEED1Ev
	movq	%rbx, %rax
	movq	%rax, %rcx
.LEHB1:
	call	_Unwind_Resume
.LEHE1:
.L54:
	movq	48(%rbp), %rax
	addq	$88, %rsp
	popq	%rbx
	popq	%rsi
	popq	%rdi
	popq	%rbp
	ret
	.seh_handler	__gxx_personality_seh0, @unwind, @except
	.seh_handlerdata
.LLSDA1424:
	.byte	0xff
	.byte	0xff
	.byte	0x1
	.uleb128 .LLSDACSE1424-.LLSDACSB1424
.LLSDACSB1424:
	.uleb128 .LEHB0-.LFB1424
	.uleb128 .LEHE0-.LEHB0
	.uleb128 .L53-.LFB1424
	.uleb128 0
	.uleb128 .LEHB1-.LFB1424
	.uleb128 .LEHE1-.LEHB1
	.uleb128 0
	.uleb128 0
.LLSDACSE1424:
	.section	.text$_ZNSt7__cxx119to_stringEx,"x"
	.linkonce discard
	.seh_endproc
	.section	.text$_ZNSt8__detail14__to_chars_lenIyEEjT_i,"x"
	.linkonce discard
	.globl	_ZNSt8__detail14__to_chars_lenIyEEjT_i
	.def	_ZNSt8__detail14__to_chars_lenIyEEjT_i;	.scl	2;	.type	32;	.endef
	.seh_proc	_ZNSt8__detail14__to_chars_lenIyEEjT_i
_ZNSt8__detail14__to_chars_lenIyEEjT_i:
.LFB1427:
	pushq	%rbp
	.seh_pushreg	%rbp
	movq	%rsp, %rbp
	.seh_setframe	%rbp, 0
	subq	$16, %rsp
	.seh_stackalloc	16
	.seh_endprologue
	movq	%rcx, 16(%rbp)
	movl	%edx, 24(%rbp)
	movl	$1, -4(%rbp)
	movl	24(%rbp), %eax
	imull	%eax, %eax
	movl	%eax, -8(%rbp)
	movl	24(%rbp), %eax
	movl	-8(%rbp), %edx
	imull	%edx, %eax
	movl	%eax, -12(%rbp)
	movl	24(%rbp), %eax
	movl	-12(%rbp), %edx
	imull	%edx, %eax
	movl	%eax, -16(%rbp)
.L61:
	movl	24(%rbp), %eax
	movl	%eax, %eax
	cmpq	%rax, 16(%rbp)
	jnb	.L56
	movl	-4(%rbp), %eax
	jmp	.L57
.L56:
	movl	-8(%rbp), %eax
	cmpq	%rax, 16(%rbp)
	jnb	.L58
	movl	-4(%rbp), %eax
	addl	$1, %eax
	jmp	.L57
.L58:
	movl	-12(%rbp), %eax
	cmpq	%rax, 16(%rbp)
	jnb	.L59
	movl	-4(%rbp), %eax
	addl	$2, %eax
	jmp	.L57
.L59:
	movl	-16(%rbp), %eax
	cmpq	%rax, 16(%rbp)
	jnb	.L60
	movl	-4(%rbp), %eax
	addl	$3, %eax
	jmp	.L57
.L60:
	movl	-16(%rbp), %ecx
	movq	16(%rbp), %rax
	movl	$0, %edx
	divq	%rcx
	movq	%rax, 16(%rbp)
	addl	$4, -4(%rbp)
	jmp	.L61
.L57:
	addq	$16, %rsp
	popq	%rbp
	ret
	.seh_endproc
	.section	.text$_ZNSt10error_codeC1EiRKNSt3_V214error_categoryE,"x"
	.linkonce discard
	.align 2
	.globl	_ZNSt10error_codeC1EiRKNSt3_V214error_categoryE
	.def	_ZNSt10error_codeC1EiRKNSt3_V214error_categoryE;	.scl	2;	.type	32;	.endef
	.seh_proc	_ZNSt10error_codeC1EiRKNSt3_V214error_categoryE
_ZNSt10error_codeC1EiRKNSt3_V214error_categoryE:
.LFB1770:
	pushq	%rbp
	.seh_pushreg	%rbp
	movq	%rsp, %rbp
	.seh_setframe	%rbp, 0
	.seh_endprologue
	movq	%rcx, 16(%rbp)
	movl	%edx, 24(%rbp)
	movq	%r8, 32(%rbp)
	movq	16(%rbp), %rax
	movl	24(%rbp), %edx
	movl	%edx, (%rax)
	movq	16(%rbp), %rax
	movq	32(%rbp), %rdx
	movq	%rdx, 8(%rax)
	nop
	popq	%rbp
	ret
	.seh_endproc
	.section	.text$_ZNKSt10error_code5valueEv,"x"
	.linkonce discard
	.align 2
	.globl	_ZNKSt10error_code5valueEv
	.def	_ZNKSt10error_code5valueEv;	.scl	2;	.type	32;	.endef
	.seh_proc	_ZNKSt10error_code5valueEv
_ZNKSt10error_code5valueEv:
.LFB1774:
	pushq	%rbp
	.seh_pushreg	%rbp
	movq	%rsp, %rbp
	.seh_setframe	%rbp, 0
	.seh_endprologue
	movq	%rcx, 16(%rbp)
	movq	16(%rbp), %rax
	movl	(%rax), %eax
	popq	%rbp
	ret
	.seh_endproc
	.section	.text$_ZNKSt10error_code8categoryEv,"x"
	.linkonce discard
	.align 2
	.globl	_ZNKSt10error_code8categoryEv
	.def	_ZNKSt10error_code8categoryEv;	.scl	2;	.type	32;	.endef
	.seh_proc	_ZNKSt10error_code8categoryEv
_ZNKSt10error_code8categoryEv:
.LFB1775:
	pushq	%rbp
	.seh_pushreg	%rbp
	movq	%rsp, %rbp
	.seh_setframe	%rbp, 0
	.seh_endprologue
	movq	%rcx, 16(%rbp)
	movq	16(%rbp), %rax
	movq	8(%rax), %rax
	popq	%rbp
	ret
	.seh_endproc
	.section	.text$_ZNKSt10error_code7messageB5cxx11Ev,"x"
	.linkonce discard
	.align 2
	.globl	_ZNKSt10error_code7messageB5cxx11Ev
	.def	_ZNKSt10error_code7messageB5cxx11Ev;	.scl	2;	.type	32;	.endef
	.seh_proc	_ZNKSt10error_code7messageB5cxx11Ev
_ZNKSt10error_code7messageB5cxx11Ev:
.LFB1776:
	pushq	%rbp
	.seh_pushreg	%rbp
	pushq	%rsi
	.seh_pushreg	%rsi
	pushq	%rbx
	.seh_pushreg	%rbx
	subq	$32, %rsp
	.seh_stackalloc	32
	leaq	32(%rsp), %rbp
	.seh_setframe	%rbp, 32
	.seh_endprologue
	movq	%rcx, 32(%rbp)
	movq	%rdx, 40(%rbp)
	movq	40(%rbp), %rax
	movq	%rax, %rcx
	call	_ZNKSt10error_code8categoryEv
	movq	%rax, %rbx
	movq	(%rbx), %rax
	addq	$32, %rax
	movq	(%rax), %rsi
	movq	40(%rbp), %rax
	movq	%rax, %rcx
	call	_ZNKSt10error_code5valueEv
	movl	%eax, %edx
	movq	32(%rbp), %rax
	movl	%edx, %r8d
	movq	%rbx, %rdx
	movq	%rax, %rcx
	call	*%rsi
	movq	32(%rbp), %rax
	addq	$32, %rsp
	popq	%rbx
	popq	%rsi
	popq	%rbp
	ret
	.seh_endproc
	.section	.text$_ZNSt9_Any_data9_M_accessEv,"x"
	.linkonce discard
	.align 2
	.globl	_ZNSt9_Any_data9_M_accessEv
	.def	_ZNSt9_Any_data9_M_accessEv;	.scl	2;	.type	32;	.endef
	.seh_proc	_ZNSt9_Any_data9_M_accessEv
_ZNSt9_Any_data9_M_accessEv:
.LFB2377:
	pushq	%rbp
	.seh_pushreg	%rbp
	movq	%rsp, %rbp
	.seh_setframe	%rbp, 0
	.seh_endprologue
	movq	%rcx, 16(%rbp)
	movq	16(%rbp), %rax
	popq	%rbp
	ret
	.seh_endproc
	.section	.text$_ZNKSt9_Any_data9_M_accessEv,"x"
	.linkonce discard
	.align 2
	.globl	_ZNKSt9_Any_data9_M_accessEv
	.def	_ZNKSt9_Any_data9_M_accessEv;	.scl	2;	.type	32;	.endef
	.seh_proc	_ZNKSt9_Any_data9_M_accessEv
_ZNKSt9_Any_data9_M_accessEv:
.LFB2378:
	pushq	%rbp
	.seh_pushreg	%rbp
	movq	%rsp, %rbp
	.seh_setframe	%rbp, 0
	.seh_endprologue
	movq	%rcx, 16(%rbp)
	movq	16(%rbp), %rax
	popq	%rbp
	ret
	.seh_endproc
	.section	.text$_ZNSt14_Function_baseD2Ev,"x"
	.linkonce discard
	.align 2
	.globl	_ZNSt14_Function_baseD2Ev
	.def	_ZNSt14_Function_baseD2Ev;	.scl	2;	.type	32;	.endef
	.seh_proc	_ZNSt14_Function_baseD2Ev
_ZNSt14_Function_baseD2Ev:
.LFB2393:
	pushq	%rbp
	.seh_pushreg	%rbp
	movq	%rsp, %rbp
	.seh_setframe	%rbp, 0
	subq	$32, %rsp
	.seh_stackalloc	32
	.seh_endprologue
	movq	%rcx, 16(%rbp)
	movq	16(%rbp), %rax
	movq	16(%rax), %rax
	testq	%rax, %rax
	je	.L75
	movq	16(%rbp), %rax
	movq	16(%rax), %r9
	movq	16(%rbp), %rdx
	movq	16(%rbp), %rax
	movl	$3, %r8d
	movq	%rax, %rcx
	call	*%r9
.L75:
	nop
	addq	$32, %rsp
	popq	%rbp
	ret
	.seh_handler	__gxx_personality_seh0, @unwind, @except
	.seh_handlerdata
.LLSDA2393:
	.byte	0xff
	.byte	0xff
	.byte	0x1
	.uleb128 .LLSDACSE2393-.LLSDACSB2393
.LLSDACSB2393:
.LLSDACSE2393:
	.section	.text$_ZNSt14_Function_baseD2Ev,"x"
	.linkonce discard
	.seh_endproc
	.section	.text$_ZNKSt14_Function_base8_M_emptyEv,"x"
	.linkonce discard
	.align 2
	.globl	_ZNKSt14_Function_base8_M_emptyEv
	.def	_ZNKSt14_Function_base8_M_emptyEv;	.scl	2;	.type	32;	.endef
	.seh_proc	_ZNKSt14_Function_base8_M_emptyEv
_ZNKSt14_Function_base8_M_emptyEv:
.LFB2395:
	pushq	%rbp
	.seh_pushreg	%rbp
	movq	%rsp, %rbp
	.seh_setframe	%rbp, 0
	.seh_endprologue
	movq	%rcx, 16(%rbp)
	movq	16(%rbp), %rax
	movq	16(%rax), %rax
	testq	%rax, %rax
	sete	%al
	popq	%rbp
	ret
	.seh_endproc
	.section	.text$_ZNSt8__detail15_Hash_node_baseC2Ev,"x"
	.linkonce discard
	.align 2
	.globl	_ZNSt8__detail15_Hash_node_baseC2Ev
	.def	_ZNSt8__detail15_Hash_node_baseC2Ev;	.scl	2;	.type	32;	.endef
	.seh_proc	_ZNSt8__detail15_Hash_node_baseC2Ev
_ZNSt8__detail15_Hash_node_baseC2Ev:
.LFB2453:
	pushq	%rbp
	.seh_pushreg	%rbp
	movq	%rsp, %rbp
	.seh_setframe	%rbp, 0
	.seh_endprologue
	movq	%rcx, 16(%rbp)
	movq	16(%rbp), %rax
	movq	$0, (%rax)
	nop
	popq	%rbp
	ret
	.seh_endproc
	.section	.text$_ZNSt8__detail15_Hash_node_baseC1Ev,"x"
	.linkonce discard
	.align 2
	.globl	_ZNSt8__detail15_Hash_node_baseC1Ev
	.def	_ZNSt8__detail15_Hash_node_baseC1Ev;	.scl	2;	.type	32;	.endef
	.seh_proc	_ZNSt8__detail15_Hash_node_baseC1Ev
_ZNSt8__detail15_Hash_node_baseC1Ev:
.LFB2454:
	pushq	%rbp
	.seh_pushreg	%rbp
	movq	%rsp, %rbp
	.seh_setframe	%rbp, 0
	.seh_endprologue
	movq	%rcx, 16(%rbp)
	movq	16(%rbp), %rax
	movq	$0, (%rax)
	nop
	popq	%rbp
	ret
	.seh_endproc
	.section	.text$_ZNKSt8__detail18_Mod_range_hashingclEyy,"x"
	.linkonce discard
	.align 2
	.globl	_ZNKSt8__detail18_Mod_range_hashingclEyy
	.def	_ZNKSt8__detail18_Mod_range_hashingclEyy;	.scl	2;	.type	32;	.endef
	.seh_proc	_ZNKSt8__detail18_Mod_range_hashingclEyy
_ZNKSt8__detail18_Mod_range_hashingclEyy:
.LFB2479:
	pushq	%rbp
	.seh_pushreg	%rbp
	movq	%rsp, %rbp
	.seh_setframe	%rbp, 0
	.seh_endprologue
	movq	%rcx, 16(%rbp)
	movq	%rdx, 24(%rbp)
	movq	%r8, 32(%rbp)
	movq	24(%rbp), %rax
	movl	$0, %edx
	divq	32(%rbp)
	movq	%rdx, %rax
	popq	%rbp
	ret
	.seh_endproc
	.section	.text$_ZNSt8__detail20_Prime_rehash_policyC1Ef,"x"
	.linkonce discard
	.align 2
	.globl	_ZNSt8__detail20_Prime_rehash_policyC1Ef
	.def	_ZNSt8__detail20_Prime_rehash_policyC1Ef;	.scl	2;	.type	32;	.endef
	.seh_proc	_ZNSt8__detail20_Prime_rehash_policyC1Ef
_ZNSt8__detail20_Prime_rehash_policyC1Ef:
.LFB2482:
	pushq	%rbp
	.seh_pushreg	%rbp
	movq	%rsp, %rbp
	.seh_setframe	%rbp, 0
	.seh_endprologue
	movq	%rcx, 16(%rbp)
	movss	%xmm1, 24(%rbp)
	movq	16(%rbp), %rax
	movss	24(%rbp), %xmm0
	movss	%xmm0, (%rax)
	movq	16(%rbp), %rax
	movq	$0, 8(%rax)
	nop
	popq	%rbp
	ret
	.seh_endproc
	.section	.text$_ZNKSt8__detail20_Prime_rehash_policy8_M_stateEv,"x"
	.linkonce discard
	.align 2
	.globl	_ZNKSt8__detail20_Prime_rehash_policy8_M_stateEv
	.def	_ZNKSt8__detail20_Prime_rehash_policy8_M_stateEv;	.scl	2;	.type	32;	.endef
	.seh_proc	_ZNKSt8__detail20_Prime_rehash_policy8_M_stateEv
_ZNKSt8__detail20_Prime_rehash_policy8_M_stateEv:
.LFB2485:
	pushq	%rbp
	.seh_pushreg	%rbp
	movq	%rsp, %rbp
	.seh_setframe	%rbp, 0
	.seh_endprologue
	movq	%rcx, 16(%rbp)
	movq	16(%rbp), %rax
	movq	8(%rax), %rax
	popq	%rbp
	ret
	.seh_endproc
	.section	.text$_ZNSt8__detail20_Prime_rehash_policy8_M_resetEv,"x"
	.linkonce discard
	.align 2
	.globl	_ZNSt8__detail20_Prime_rehash_policy8_M_resetEv
	.def	_ZNSt8__detail20_Prime_rehash_policy8_M_resetEv;	.scl	2;	.type	32;	.endef
	.seh_proc	_ZNSt8__detail20_Prime_rehash_policy8_M_resetEv
_ZNSt8__detail20_Prime_rehash_policy8_M_resetEv:
.LFB2486:
	pushq	%rbp
	.seh_pushreg	%rbp
	movq	%rsp, %rbp
	.seh_setframe	%rbp, 0
	.seh_endprologue
	movq	%rcx, 16(%rbp)
	movq	16(%rbp), %rax
	movq	$0, 8(%rax)
	nop
	popq	%rbp
	ret
	.seh_endproc
	.section	.text$_ZNSt8__detail20_Prime_rehash_policy8_M_resetEy,"x"
	.linkonce discard
	.align 2
	.globl	_ZNSt8__detail20_Prime_rehash_policy8_M_resetEy
	.def	_ZNSt8__detail20_Prime_rehash_policy8_M_resetEy;	.scl	2;	.type	32;	.endef
	.seh_proc	_ZNSt8__detail20_Prime_rehash_policy8_M_resetEy
_ZNSt8__detail20_Prime_rehash_policy8_M_resetEy:
.LFB2487:
	pushq	%rbp
	.seh_pushreg	%rbp
	movq	%rsp, %rbp
	.seh_setframe	%rbp, 0
	.seh_endprologue
	movq	%rcx, 16(%rbp)
	movq	%rdx, 24(%rbp)
	movq	16(%rbp), %rax
	movq	24(%rbp), %rdx
	movq	%rdx, 8(%rax)
	nop
	popq	%rbp
	ret
	.seh_endproc
	.section	.text$_ZSt3minIyERKT_S2_S2_,"x"
	.linkonce discard
	.globl	_ZSt3minIyERKT_S2_S2_
	.def	_ZSt3minIyERKT_S2_S2_;	.scl	2;	.type	32;	.endef
	.seh_proc	_ZSt3minIyERKT_S2_S2_
_ZSt3minIyERKT_S2_S2_:
.LFB2495:
	pushq	%rbp
	.seh_pushreg	%rbp
	movq	%rsp, %rbp
	.seh_setframe	%rbp, 0
	.seh_endprologue
	movq	%rcx, 16(%rbp)
	movq	%rdx, 24(%rbp)
	movq	24(%rbp), %rax
	movq	(%rax), %rdx
	movq	16(%rbp), %rax
	movq	(%rax), %rax
	cmpq	%rax, %rdx
	jnb	.L88
	movq	24(%rbp), %rax
	jmp	.L89
.L88:
	movq	16(%rbp), %rax
.L89:
	popq	%rbp
	ret
	.seh_endproc
	.section	.text$_ZNSt12__mutex_baseC2Ev,"x"
	.linkonce discard
	.align 2
	.globl	_ZNSt12__mutex_baseC2Ev
	.def	_ZNSt12__mutex_baseC2Ev;	.scl	2;	.type	32;	.endef
	.seh_proc	_ZNSt12__mutex_baseC2Ev
_ZNSt12__mutex_baseC2Ev:
.LFB3713:
	pushq	%rbp
	.seh_pushreg	%rbp
	movq	%rsp, %rbp
	.seh_setframe	%rbp, 0
	subq	$32, %rsp
	.seh_stackalloc	32
	.seh_endprologue
	movq	%rcx, 16(%rbp)
	movq	16(%rbp), %rax
	movq	%rax, %rcx
	call	_ZL29__gthread_mutex_init_functionPx
	nop
	addq	$32, %rsp
	popq	%rbp
	ret
	.seh_handler	__gxx_personality_seh0, @unwind, @except
	.seh_handlerdata
.LLSDA3713:
	.byte	0xff
	.byte	0xff
	.byte	0x1
	.uleb128 .LLSDACSE3713-.LLSDACSB3713
.LLSDACSB3713:
.LLSDACSE3713:
	.section	.text$_ZNSt12__mutex_baseC2Ev,"x"
	.linkonce discard
	.seh_endproc
	.section	.text$_ZNSt12__mutex_baseD2Ev,"x"
	.linkonce discard
	.align 2
	.globl	_ZNSt12__mutex_baseD2Ev
	.def	_ZNSt12__mutex_baseD2Ev;	.scl	2;	.type	32;	.endef
	.seh_proc	_ZNSt12__mutex_baseD2Ev
_ZNSt12__mutex_baseD2Ev:
.LFB3716:
	pushq	%rbp
	.seh_pushreg	%rbp
	movq	%rsp, %rbp
	.seh_setframe	%rbp, 0
	subq	$32, %rsp
	.seh_stackalloc	32
	.seh_endprologue
	movq	%rcx, 16(%rbp)
	movq	16(%rbp), %rax
	movq	%rax, %rcx
	call	_ZL23__gthread_mutex_destroyPx
	nop
	addq	$32, %rsp
	popq	%rbp
	ret
	.seh_handler	__gxx_personality_seh0, @unwind, @except
	.seh_handlerdata
.LLSDA3716:
	.byte	0xff
	.byte	0xff
	.byte	0x1
	.uleb128 .LLSDACSE3716-.LLSDACSB3716
.LLSDACSB3716:
.LLSDACSE3716:
	.section	.text$_ZNSt12__mutex_baseD2Ev,"x"
	.linkonce discard
	.seh_endproc
	.section	.text$_ZNSt5mutex4lockEv,"x"
	.linkonce discard
	.align 2
	.globl	_ZNSt5mutex4lockEv
	.def	_ZNSt5mutex4lockEv;	.scl	2;	.type	32;	.endef
	.seh_proc	_ZNSt5mutex4lockEv
_ZNSt5mutex4lockEv:
.LFB3718:
	pushq	%rbp
	.seh_pushreg	%rbp
	movq	%rsp, %rbp
	.seh_setframe	%rbp, 0
	subq	$48, %rsp
	.seh_stackalloc	48
	.seh_endprologue
	movq	%rcx, 16(%rbp)
	movq	16(%rbp), %rax
	movq	%rax, %rcx
	call	_ZL20__gthread_mutex_lockPx
	movl	%eax, -4(%rbp)
	cmpl	$0, -4(%rbp)
	je	.L94
	movl	-4(%rbp), %eax
	movl	%eax, %ecx
	call	_ZSt20__throw_system_errori
.L94:
	nop
	addq	$48, %rsp
	popq	%rbp
	ret
	.seh_endproc
	.section	.text$_ZNSt5mutex6unlockEv,"x"
	.linkonce discard
	.align 2
	.globl	_ZNSt5mutex6unlockEv
	.def	_ZNSt5mutex6unlockEv;	.scl	2;	.type	32;	.endef
	.seh_proc	_ZNSt5mutex6unlockEv
_ZNSt5mutex6unlockEv:
.LFB3720:
	pushq	%rbp
	.seh_pushreg	%rbp
	movq	%rsp, %rbp
	.seh_setframe	%rbp, 0
	subq	$32, %rsp
	.seh_stackalloc	32
	.seh_endprologue
	movq	%rcx, 16(%rbp)
	movq	16(%rbp), %rax
	movq	%rax, %rcx
	call	_ZL22__gthread_mutex_unlockPx
	nop
	addq	$32, %rsp
	popq	%rbp
	ret
	.seh_endproc
	.section	.text$_ZNSt9once_flag18_Prepare_executionD1Ev,"x"
	.linkonce discard
	.align 2
	.globl	_ZNSt9once_flag18_Prepare_executionD1Ev
	.def	_ZNSt9once_flag18_Prepare_executionD1Ev;	.scl	2;	.type	32;	.endef
	.seh_proc	_ZNSt9once_flag18_Prepare_executionD1Ev
_ZNSt9once_flag18_Prepare_executionD1Ev:
.LFB3797:
	pushq	%rbp
	.seh_pushreg	%rbp
	movq	%rsp, %rbp
	.seh_setframe	%rbp, 0
	subq	$32, %rsp
	.seh_stackalloc	32
	.seh_endprologue
	movq	%rcx, 16(%rbp)
	movq	.refptr.__emutls_v._ZSt15__once_callable(%rip), %rax
	movq	%rax, %rcx
	call	__emutls_get_address
	movq	$0, (%rax)
	movq	.refptr.__emutls_v._ZSt11__once_call(%rip), %rax
	movq	%rax, %rcx
	call	__emutls_get_address
	movq	$0, (%rax)
	nop
	addq	$32, %rsp
	popq	%rbp
	ret
	.seh_endproc
	.section	.text$_ZNSt12bad_weak_ptrC1Ev,"x"
	.linkonce discard
	.align 2
	.globl	_ZNSt12bad_weak_ptrC1Ev
	.def	_ZNSt12bad_weak_ptrC1Ev;	.scl	2;	.type	32;	.endef
	.seh_proc	_ZNSt12bad_weak_ptrC1Ev
_ZNSt12bad_weak_ptrC1Ev:
.LFB3946:
	pushq	%rbp
	.seh_pushreg	%rbp
	movq	%rsp, %rbp
	.seh_setframe	%rbp, 0
	subq	$32, %rsp
	.seh_stackalloc	32
	.seh_endprologue
	movq	%rcx, 16(%rbp)
	movq	16(%rbp), %rax
	movq	%rax, %rcx
	call	_ZNSt9exceptionC2Ev
	movq	.refptr._ZTVSt12bad_weak_ptr(%rip), %rax
	leaq	16(%rax), %rdx
	movq	16(%rbp), %rax
	movq	%rdx, (%rax)
	nop
	addq	$32, %rsp
	popq	%rbp
	ret
	.seh_endproc
	.section	.text$_ZSt20__throw_bad_weak_ptrv,"x"
	.linkonce discard
	.globl	_ZSt20__throw_bad_weak_ptrv
	.def	_ZSt20__throw_bad_weak_ptrv;	.scl	2;	.type	32;	.endef
	.seh_proc	_ZSt20__throw_bad_weak_ptrv
_ZSt20__throw_bad_weak_ptrv:
.LFB3943:
	pushq	%rbp
	.seh_pushreg	%rbp
	pushq	%rbx
	.seh_pushreg	%rbx
	subq	$40, %rsp
	.seh_stackalloc	40
	leaq	32(%rsp), %rbp
	.seh_setframe	%rbp, 32
	.seh_endprologue
	movl	$8, %ecx
	call	__cxa_allocate_exception
	movq	%rax, %rbx
	movq	$0, (%rbx)
	movq	%rbx, %rcx
	call	_ZNSt12bad_weak_ptrC1Ev
	movq	.refptr._ZNSt12bad_weak_ptrD1Ev(%rip), %r8
	leaq	_ZTISt12bad_weak_ptr(%rip), %rax
	movq	%rax, %rdx
	movq	%rbx, %rcx
	call	__cxa_throw
	nop
	.seh_endproc
	.section	.text$_ZNSt16_Sp_counted_baseILN9__gnu_cxx12_Lock_policyE2EE23_M_add_ref_lock_nothrowEv,"x"
	.linkonce discard
	.align 2
	.globl	_ZNSt16_Sp_counted_baseILN9__gnu_cxx12_Lock_policyE2EE23_M_add_ref_lock_nothrowEv
	.def	_ZNSt16_Sp_counted_baseILN9__gnu_cxx12_Lock_policyE2EE23_M_add_ref_lock_nothrowEv;	.scl	2;	.type	32;	.endef
	.seh_proc	_ZNSt16_Sp_counted_baseILN9__gnu_cxx12_Lock_policyE2EE23_M_add_ref_lock_nothrowEv
_ZNSt16_Sp_counted_baseILN9__gnu_cxx12_Lock_policyE2EE23_M_add_ref_lock_nothrowEv:
.LFB3959:
	pushq	%rbp
	.seh_pushreg	%rbp
	movq	%rsp, %rbp
	.seh_setframe	%rbp, 0
	subq	$48, %rsp
	.seh_stackalloc	48
	.seh_endprologue
	movq	%rcx, 16(%rbp)
	movq	16(%rbp), %rax
	movq	%rax, %rcx
	call	_ZNKSt16_Sp_counted_baseILN9__gnu_cxx12_Lock_policyE2EE16_M_get_use_countEv
	movl	%eax, -4(%rbp)
.L103:
	movl	-4(%rbp), %eax
	testl	%eax, %eax
	jne	.L100
	movl	$0, %eax
	jmp	.L104
.L100:
	movl	-4(%rbp), %eax
	addl	$1, %eax
	movl	%eax, %ecx
	movq	16(%rbp), %rax
	leaq	8(%rax), %r8
	leaq	-4(%rbp), %rdx
	movl	(%rdx), %eax
	lock cmpxchgl	%ecx, (%r8)
	movl	%eax, %ecx
	sete	%al
	testb	%al, %al
	jne	.L102
	movl	%ecx, (%rdx)
.L102:
	xorl	$1, %eax
	testb	%al, %al
	jne	.L103
	movl	$1, %eax
.L104:
	addq	$48, %rsp
	popq	%rbp
	ret
	.seh_endproc
	.section	.text$_ZNSt16_Sp_counted_baseILN9__gnu_cxx12_Lock_policyE2EE10_M_releaseEv,"x"
	.linkonce discard
	.align 2
	.globl	_ZNSt16_Sp_counted_baseILN9__gnu_cxx12_Lock_policyE2EE10_M_releaseEv
	.def	_ZNSt16_Sp_counted_baseILN9__gnu_cxx12_Lock_policyE2EE10_M_releaseEv;	.scl	2;	.type	32;	.endef
	.seh_proc	_ZNSt16_Sp_counted_baseILN9__gnu_cxx12_Lock_policyE2EE10_M_releaseEv
_ZNSt16_Sp_counted_baseILN9__gnu_cxx12_Lock_policyE2EE10_M_releaseEv:
.LFB3963:
	pushq	%rbp
	.seh_pushreg	%rbp
	movq	%rsp, %rbp
	.seh_setframe	%rbp, 0
	subq	$112, %rsp
	.seh_stackalloc	112
	.seh_endprologue
	movq	%rcx, 16(%rbp)
	movb	$1, -1(%rbp)
	movb	$1, -2(%rbp)
	movb	$1, -3(%rbp)
	movl	$32, -8(%rbp)
	movl	$32, -12(%rbp)
	movabsq	$4294967297, %rax
	movq	%rax, -24(%rbp)
	movq	16(%rbp), %rax
	addq	$8, %rax
	movq	%rax, -32(%rbp)
	movq	-32(%rbp), %rax
	movq	(%rax), %rdx
	movabsq	$4294967297, %rax
	cmpq	%rax, %rdx
	sete	%al
	testb	%al, %al
	je	.L106
	movq	16(%rbp), %rax
	movl	$0, 8(%rax)
	movq	16(%rbp), %rax
	movl	8(%rax), %edx
	movq	16(%rbp), %rax
	movl	%edx, 12(%rax)
	movq	16(%rbp), %rax
	movq	(%rax), %rax
	addq	$16, %rax
	movq	(%rax), %rdx
	movq	16(%rbp), %rax
	movq	%rax, %rcx
	call	*%rdx
	movq	16(%rbp), %rax
	movq	(%rax), %rax
	addq	$24, %rax
	movq	(%rax), %rdx
	movq	16(%rbp), %rax
	movq	%rax, %rcx
	call	*%rdx
	jmp	.L105
.L106:
	movq	16(%rbp), %rax
	addq	$8, %rax
	movq	%rax, -40(%rbp)
	movl	$-1, -44(%rbp)
	call	_ZL18__gthread_active_pv
	testl	%eax, %eax
	sete	%al
	testb	%al, %al
	je	.L109
	movq	-40(%rbp), %rax
	movq	%rax, -56(%rbp)
	movl	-44(%rbp), %eax
	movl	%eax, -60(%rbp)
	movq	-56(%rbp), %rax
	movl	(%rax), %eax
	movl	%eax, -64(%rbp)
	movq	-56(%rbp), %rax
	movl	(%rax), %edx
	movl	-60(%rbp), %eax
	addl	%eax, %edx
	movq	-56(%rbp), %rax
	movl	%edx, (%rax)
	movl	-64(%rbp), %eax
	jmp	.L111
.L109:
	movq	-40(%rbp), %rax
	movq	%rax, -72(%rbp)
	movl	-44(%rbp), %eax
	movl	%eax, -76(%rbp)
	movl	-76(%rbp), %edx
	movq	-72(%rbp), %rax
	lock xaddl	%edx, (%rax)
	movl	%edx, %eax
	nop
.L111:
	cmpl	$1, %eax
	sete	%al
	testb	%al, %al
	je	.L105
	movq	16(%rbp), %rax
	movq	%rax, %rcx
	call	_ZNSt16_Sp_counted_baseILN9__gnu_cxx12_Lock_policyE2EE24_M_release_last_use_coldEv
	nop
.L105:
	addq	$112, %rsp
	popq	%rbp
	ret
	.seh_endproc
	.globl	_ZZNSt19_Sp_make_shared_tag5_S_tiEvE5__tag
	.section	.rdata$_ZZNSt19_Sp_make_shared_tag5_S_tiEvE5__tag,"dr"
	.linkonce same_size
	.align 8
_ZZNSt19_Sp_make_shared_tag5_S_tiEvE5__tag:
	.space 16
	.section	.text$_ZNSt19_Sp_make_shared_tag5_S_tiEv,"x"
	.linkonce discard
	.globl	_ZNSt19_Sp_make_shared_tag5_S_tiEv
	.def	_ZNSt19_Sp_make_shared_tag5_S_tiEv;	.scl	2;	.type	32;	.endef
	.seh_proc	_ZNSt19_Sp_make_shared_tag5_S_tiEv
_ZNSt19_Sp_make_shared_tag5_S_tiEv:
.LFB3989:
	pushq	%rbp
	.seh_pushreg	%rbp
	movq	%rsp, %rbp
	.seh_setframe	%rbp, 0
	.seh_endprologue
	leaq	_ZZNSt19_Sp_make_shared_tag5_S_tiEvE5__tag(%rip), %rax
	popq	%rbp
	ret
	.seh_endproc
	.section	.text$_ZStanSt12memory_orderSt23__memory_order_modifier,"x"
	.linkonce discard
	.globl	_ZStanSt12memory_orderSt23__memory_order_modifier
	.def	_ZStanSt12memory_orderSt23__memory_order_modifier;	.scl	2;	.type	32;	.endef
	.seh_proc	_ZStanSt12memory_orderSt23__memory_order_modifier
_ZStanSt12memory_orderSt23__memory_order_modifier:
.LFB4226:
	pushq	%rbp
	.seh_pushreg	%rbp
	movq	%rsp, %rbp
	.seh_setframe	%rbp, 0
	.seh_endprologue
	movl	%ecx, 16(%rbp)
	movl	%edx, 24(%rbp)
	movl	16(%rbp), %edx
	movl	24(%rbp), %eax
	andl	%edx, %eax
	popq	%rbp
	ret
	.seh_endproc
	.section	.text$_ZNSt11atomic_flagC1Eb,"x"
	.linkonce discard
	.align 2
	.globl	_ZNSt11atomic_flagC1Eb
	.def	_ZNSt11atomic_flagC1Eb;	.scl	2;	.type	32;	.endef
	.seh_proc	_ZNSt11atomic_flagC1Eb
_ZNSt11atomic_flagC1Eb:
.LFB4235:
	pushq	%rbp
	.seh_pushreg	%rbp
	movq	%rsp, %rbp
	.seh_setframe	%rbp, 0
	subq	$32, %rsp
	.seh_stackalloc	32
	.seh_endprologue
	movq	%rcx, 16(%rbp)
	movl	%edx, %eax
	movb	%al, 24(%rbp)
	movzbl	24(%rbp), %eax
	movl	%eax, %ecx
	call	_ZNSt11atomic_flag7_S_initEb
	movq	16(%rbp), %rdx
	movb	%al, (%rdx)
	nop
	addq	$32, %rsp
	popq	%rbp
	ret
	.seh_endproc
	.section	.text$_ZNSt11atomic_flag7_S_initEb,"x"
	.linkonce discard
	.globl	_ZNSt11atomic_flag7_S_initEb
	.def	_ZNSt11atomic_flag7_S_initEb;	.scl	2;	.type	32;	.endef
	.seh_proc	_ZNSt11atomic_flag7_S_initEb
_ZNSt11atomic_flag7_S_initEb:
.LFB4240:
	pushq	%rbp
	.seh_pushreg	%rbp
	movq	%rsp, %rbp
	.seh_setframe	%rbp, 0
	.seh_endprologue
	movl	%ecx, %eax
	movb	%al, 16(%rbp)
	cmpb	$0, 16(%rbp)
	je	.L119
	movl	$1, %eax
	jmp	.L120
.L119:
	movl	$0, %eax
.L120:
	testl	%eax, %eax
	setne	%al
	popq	%rbp
	ret
	.seh_endproc
	.section	.text$_ZSt15make_error_codeSt11future_errc,"x"
	.linkonce discard
	.globl	_ZSt15make_error_codeSt11future_errc
	.def	_ZSt15make_error_codeSt11future_errc;	.scl	2;	.type	32;	.endef
	.seh_proc	_ZSt15make_error_codeSt11future_errc
_ZSt15make_error_codeSt11future_errc:
.LFB4542:
	pushq	%rbp
	.seh_pushreg	%rbp
	movq	%rsp, %rbp
	.seh_setframe	%rbp, 0
	subq	$32, %rsp
	.seh_stackalloc	32
	.seh_endprologue
	movq	%rcx, 16(%rbp)
	movl	%edx, 24(%rbp)
	call	_ZSt15future_categoryv
	movq	%rax, %rcx
	movl	24(%rbp), %edx
	movq	16(%rbp), %rax
	movq	%rcx, %r8
	movq	%rax, %rcx
	call	_ZNSt10error_codeC1EiRKNSt3_V214error_categoryE
	movq	16(%rbp), %rax
	addq	$32, %rsp
	popq	%rbp
	ret
	.seh_endproc
	.section	.text$_ZNSt12future_errorC1ESt11future_errc,"x"
	.linkonce discard
	.align 2
	.globl	_ZNSt12future_errorC1ESt11future_errc
	.def	_ZNSt12future_errorC1ESt11future_errc;	.scl	2;	.type	32;	.endef
	.seh_proc	_ZNSt12future_errorC1ESt11future_errc
_ZNSt12future_errorC1ESt11future_errc:
.LFB4546:
	pushq	%rbp
	.seh_pushreg	%rbp
	movq	%rsp, %rbp
	.seh_setframe	%rbp, 0
	subq	$64, %rsp
	.seh_stackalloc	64
	.seh_endprologue
	movq	%rcx, 16(%rbp)
	movl	%edx, 24(%rbp)
	leaq	-16(%rbp), %rax
	movl	24(%rbp), %edx
	movq	%rax, %rcx
	call	_ZSt15make_error_codeSt11future_errc
	movq	-16(%rbp), %rax
	movq	-8(%rbp), %rdx
	movq	%rax, -32(%rbp)
	movq	%rdx, -24(%rbp)
	leaq	-32(%rbp), %rdx
	movq	16(%rbp), %rax
	movq	%rax, %rcx
	call	_ZNSt12future_errorC1ESt10error_code
	nop
	addq	$64, %rsp
	popq	%rbp
	ret
	.seh_endproc
	.section .rdata,"dr"
.LC0:
	.ascii "std::future_error: \0"
	.section	.text$_ZNSt12future_errorC1ESt10error_code,"x"
	.linkonce discard
	.align 2
	.globl	_ZNSt12future_errorC1ESt10error_code
	.def	_ZNSt12future_errorC1ESt10error_code;	.scl	2;	.type	32;	.endef
	.seh_proc	_ZNSt12future_errorC1ESt10error_code
_ZNSt12future_errorC1ESt10error_code:
.LFB4550:
	pushq	%rbp
	.seh_pushreg	%rbp
	pushq	%rbx
	.seh_pushreg	%rbx
	subq	$120, %rsp
	.seh_stackalloc	120
	leaq	112(%rsp), %rbp
	.seh_setframe	%rbp, 112
	.seh_endprologue
	movq	%rcx, 32(%rbp)
	movq	%rdx, %rbx
	movq	(%rbx), %rax
	movq	8(%rbx), %rdx
	movq	%rax, -80(%rbp)
	movq	%rdx, -72(%rbp)
	movq	32(%rbp), %rbx
	leaq	-32(%rbp), %rax
	leaq	-80(%rbp), %rdx
	movq	%rax, %rcx
.LEHB2:
	call	_ZNKSt10error_code7messageB5cxx11Ev
.LEHE2:
	leaq	-64(%rbp), %rax
	leaq	-32(%rbp), %rdx
	movq	%rdx, %r8
	leaq	.LC0(%rip), %rdx
	movq	%rax, %rcx
.LEHB3:
	call	_ZStplIcSt11char_traitsIcESaIcEENSt7__cxx1112basic_stringIT_T0_T1_EEPKS5_OS8_
.LEHE3:
	leaq	-64(%rbp), %rax
	movq	%rax, %rdx
	movq	%rbx, %rcx
.LEHB4:
	call	_ZNSt11logic_errorC2ERKNSt7__cxx1112basic_stringIcSt11char_traitsIcESaIcEEE
.LEHE4:
	leaq	-64(%rbp), %rax
	movq	%rax, %rcx
	call	_ZNSt7__cxx1112basic_stringIcSt11char_traitsIcESaIcEED1Ev
	leaq	-32(%rbp), %rax
	movq	%rax, %rcx
	call	_ZNSt7__cxx1112basic_stringIcSt11char_traitsIcESaIcEED1Ev
	movq	.refptr._ZTVSt12future_error(%rip), %rax
	leaq	16(%rax), %rdx
	movq	32(%rbp), %rax
	movq	%rdx, (%rax)
	movq	32(%rbp), %rcx
	movq	-80(%rbp), %rax
	movq	-72(%rbp), %rdx
	movq	%rax, 16(%rcx)
	movq	%rdx, 24(%rcx)
	jmp	.L130
.L129:
	movq	%rax, %rbx
	leaq	-64(%rbp), %rax
	movq	%rax, %rcx
	call	_ZNSt7__cxx1112basic_stringIcSt11char_traitsIcESaIcEED1Ev
	jmp	.L127
.L128:
	movq	%rax, %rbx
.L127:
	leaq	-32(%rbp), %rax
	movq	%rax, %rcx
	call	_ZNSt7__cxx1112basic_stringIcSt11char_traitsIcESaIcEED1Ev
	movq	%rbx, %rax
	movq	%rax, %rcx
.LEHB5:
	call	_Unwind_Resume
	nop
.LEHE5:
.L130:
	addq	$120, %rsp
	popq	%rbx
	popq	%rbp
	ret
	.seh_handler	__gxx_personality_seh0, @unwind, @except
	.seh_handlerdata
.LLSDA4550:
	.byte	0xff
	.byte	0xff
	.byte	0x1
	.uleb128 .LLSDACSE4550-.LLSDACSB4550
.LLSDACSB4550:
	.uleb128 .LEHB2-.LFB4550
	.uleb128 .LEHE2-.LEHB2
	.uleb128 0
	.uleb128 0
	.uleb128 .LEHB3-.LFB4550
	.uleb128 .LEHE3-.LEHB3
	.uleb128 .L128-.LFB4550
	.uleb128 0
	.uleb128 .LEHB4-.LFB4550
	.uleb128 .LEHE4-.LEHB4
	.uleb128 .L129-.LFB4550
	.uleb128 0
	.uleb128 .LEHB5-.LFB4550
	.uleb128 .LEHE5-.LEHB5
	.uleb128 0
	.uleb128 0
.LLSDACSE4550:
	.section	.text$_ZNSt12future_errorC1ESt10error_code,"x"
	.linkonce discard
	.seh_endproc
	.section	.text$_ZNKSt13__future_base12_Result_base8_DeleterclEPS0_,"x"
	.linkonce discard
	.align 2
	.globl	_ZNKSt13__future_base12_Result_base8_DeleterclEPS0_
	.def	_ZNKSt13__future_base12_Result_base8_DeleterclEPS0_;	.scl	2;	.type	32;	.endef
	.seh_proc	_ZNKSt13__future_base12_Result_base8_DeleterclEPS0_
_ZNKSt13__future_base12_Result_base8_DeleterclEPS0_:
.LFB4566:
	pushq	%rbp
	.seh_pushreg	%rbp
	movq	%rsp, %rbp
	.seh_setframe	%rbp, 0
	subq	$32, %rsp
	.seh_stackalloc	32
	.seh_endprologue
	movq	%rcx, 16(%rbp)
	movq	%rdx, 24(%rbp)
	movq	24(%rbp), %rax
	movq	(%rax), %rax
	movq	(%rax), %rdx
	movq	24(%rbp), %rax
	movq	%rax, %rcx
	call	*%rdx
	nop
	addq	$32, %rsp
	popq	%rbp
	ret
	.seh_endproc
	.section	.text$_ZNSt5mutexD1Ev,"x"
	.linkonce discard
	.align 2
	.globl	_ZNSt5mutexD1Ev
	.def	_ZNSt5mutexD1Ev;	.scl	2;	.type	32;	.endef
	.seh_proc	_ZNSt5mutexD1Ev
_ZNSt5mutexD1Ev:
.LFB4581:
	pushq	%rbp
	.seh_pushreg	%rbp
	movq	%rsp, %rbp
	.seh_setframe	%rbp, 0
	subq	$32, %rsp
	.seh_stackalloc	32
	.seh_endprologue
	movq	%rcx, 16(%rbp)
	movq	16(%rbp), %rax
	movq	%rax, %rcx
	call	_ZNSt12__mutex_baseD2Ev
	nop
	addq	$32, %rsp
	popq	%rbp
	ret
	.seh_endproc
	.section	.text$_ZNSt23__atomic_futex_unsignedILj2147483648EED1Ev,"x"
	.linkonce discard
	.align 2
	.globl	_ZNSt23__atomic_futex_unsignedILj2147483648EED1Ev
	.def	_ZNSt23__atomic_futex_unsignedILj2147483648EED1Ev;	.scl	2;	.type	32;	.endef
	.seh_proc	_ZNSt23__atomic_futex_unsignedILj2147483648EED1Ev
_ZNSt23__atomic_futex_unsignedILj2147483648EED1Ev:
.LFB4583:
	pushq	%rbp
	.seh_pushreg	%rbp
	movq	%rsp, %rbp
	.seh_setframe	%rbp, 0
	subq	$32, %rsp
	.seh_stackalloc	32
	.seh_endprologue
	movq	%rcx, 16(%rbp)
	movq	16(%rbp), %rax
	addq	$16, %rax
	movq	%rax, %rcx
	call	_ZNSt18condition_variableD1Ev
	movq	16(%rbp), %rax
	addq	$8, %rax
	movq	%rax, %rcx
	call	_ZNSt5mutexD1Ev
	nop
	addq	$32, %rsp
	popq	%rbp
	ret
	.seh_endproc
	.section	.text$_ZNSt9once_flagC1Ev,"x"
	.linkonce discard
	.align 2
	.globl	_ZNSt9once_flagC1Ev
	.def	_ZNSt9once_flagC1Ev;	.scl	2;	.type	32;	.endef
	.seh_proc	_ZNSt9once_flagC1Ev
_ZNSt9once_flagC1Ev:
.LFB4586:
	pushq	%rbp
	.seh_pushreg	%rbp
	movq	%rsp, %rbp
	.seh_setframe	%rbp, 0
	.seh_endprologue
	movq	%rcx, 16(%rbp)
	movq	16(%rbp), %rax
	movl	$0, (%rax)
	nop
	popq	%rbp
	ret
	.seh_endproc
	.section	.text$_ZNSt13__future_base13_State_baseV2C2Ev,"x"
	.linkonce discard
	.align 2
	.globl	_ZNSt13__future_base13_State_baseV2C2Ev
	.def	_ZNSt13__future_base13_State_baseV2C2Ev;	.scl	2;	.type	32;	.endef
	.seh_proc	_ZNSt13__future_base13_State_baseV2C2Ev
_ZNSt13__future_base13_State_baseV2C2Ev:
.LFB4587:
	pushq	%rbp
	.seh_pushreg	%rbp
	movq	%rsp, %rbp
	.seh_setframe	%rbp, 0
	subq	$32, %rsp
	.seh_stackalloc	32
	.seh_endprologue
	movq	%rcx, 16(%rbp)
	leaq	16+_ZTVNSt13__future_base13_State_baseV2E(%rip), %rdx
	movq	16(%rbp), %rax
	movq	%rdx, (%rax)
	movq	16(%rbp), %rax
	addq	$8, %rax
	movq	%rax, %rcx
	call	_ZNSt10unique_ptrINSt13__future_base12_Result_baseENS1_8_DeleterEEC1IS2_vEEv
	movq	16(%rbp), %rax
	addq	$16, %rax
	movl	$0, %edx
	movq	%rax, %rcx
	call	_ZNSt23__atomic_futex_unsignedILj2147483648EEC1Ej
	movq	16(%rbp), %rax
	addq	$40, %rax
	movl	$0, %edx
	movq	%rax, %rcx
	call	_ZNSt11atomic_flagC1Eb
	movq	16(%rbp), %rax
	addq	$44, %rax
	movq	%rax, %rcx
	call	_ZNSt9once_flagC1Ev
	nop
	addq	$32, %rsp
	popq	%rbp
	ret
	.seh_endproc
	.section	.text$_ZNSt13__future_base13_State_baseV213_M_set_resultESt8functionIFSt10unique_ptrINS_12_Result_baseENS3_8_DeleterEEvEEb,"x"
	.linkonce discard
	.align 2
	.globl	_ZNSt13__future_base13_State_baseV213_M_set_resultESt8functionIFSt10unique_ptrINS_12_Result_baseENS3_8_DeleterEEvEEb
	.def	_ZNSt13__future_base13_State_baseV213_M_set_resultESt8functionIFSt10unique_ptrINS_12_Result_baseENS3_8_DeleterEEvEEb;	.scl	2;	.type	32;	.endef
	.seh_proc	_ZNSt13__future_base13_State_baseV213_M_set_resultESt8functionIFSt10unique_ptrINS_12_Result_baseENS3_8_DeleterEEvEEb
_ZNSt13__future_base13_State_baseV213_M_set_resultESt8functionIFSt10unique_ptrINS_12_Result_baseENS3_8_DeleterEEvEEb:
.LFB4592:
	pushq	%rbp
	.seh_pushreg	%rbp
	pushq	%rdi
	.seh_pushreg	%rdi
	pushq	%rsi
	.seh_pushreg	%rsi
	addq	$-128, %rsp
	.seh_stackalloc	128
	leaq	128(%rsp), %rbp
	.seh_setframe	%rbp, 128
	.seh_endprologue
	movq	%rcx, 32(%rbp)
	movq	%rdx, 40(%rbp)
	movl	%r8d, %eax
	movb	%al, 48(%rbp)
	movb	$0, -57(%rbp)
	leaq	-57(%rbp), %rax
	movq	%rax, %rcx
	call	_ZSt11__addressofIbEPT_RS0_
	movq	%rax, -56(%rbp)
	movq	40(%rbp), %rax
	movq	%rax, %rcx
	call	_ZSt11__addressofISt8functionIFSt10unique_ptrINSt13__future_base12_Result_baseENS3_8_DeleterEEvEEEPT_RS8_
	movq	%rax, -48(%rbp)
	movq	32(%rbp), %rax
	movq	%rax, -40(%rbp)
	leaq	_ZNSt13__future_base13_State_baseV29_M_do_setEPSt8functionIFSt10unique_ptrINS_12_Result_baseENS3_8_DeleterEEvEEPb(%rip), %rax
	movq	%rax, %rsi
	movl	$0, %edi
	movq	%rsi, -32(%rbp)
	movq	%rdi, -24(%rbp)
	movq	32(%rbp), %rax
	leaq	44(%rax), %rcx
	leaq	-48(%rbp), %r9
	leaq	-40(%rbp), %r8
	leaq	-32(%rbp), %rax
	leaq	-56(%rbp), %rdx
	movq	%rdx, 32(%rsp)
	movq	%rax, %rdx
	call	_ZSt9call_onceIMNSt13__future_base13_State_baseV2EFvPSt8functionIFSt10unique_ptrINS0_12_Result_baseENS4_8_DeleterEEvEEPbEJPS1_S9_SA_EEvRSt9once_flagOT_DpOT0_
	movzbl	-57(%rbp), %eax
	testb	%al, %al
	je	.L137
	movq	32(%rbp), %rax
	addq	$16, %rax
	movq	%rax, -8(%rbp)
	movl	$1, -12(%rbp)
	movl	$3, -16(%rbp)
	movq	-8(%rbp), %rax
	leaq	8(%rax), %rdx
	leaq	-80(%rbp), %rax
	movq	%rax, %rcx
	call	_ZNSt11unique_lockISt5mutexEC1ERS0_
	movq	-8(%rbp), %rax
	movl	-12(%rbp), %edx
	movl	%edx, (%rax)
	movq	-8(%rbp), %rax
	addq	$16, %rax
	movq	%rax, %rcx
	call	_ZNSt18condition_variable10notify_allEv
	leaq	-80(%rbp), %rax
	movq	%rax, %rcx
	call	_ZNSt11unique_lockISt5mutexED1Ev
	jmp	.L139
.L137:
	movzbl	48(%rbp), %eax
	xorl	$1, %eax
	testb	%al, %al
	je	.L139
	movl	$2, %ecx
	call	_ZSt20__throw_future_errori
.L139:
	nop
	subq	$-128, %rsp
	popq	%rsi
	popq	%rdi
	popq	%rbp
	ret
	.seh_endproc
	.section	.text$_ZNSt10__weak_ptrINSt13__future_base13_State_baseV2ELN9__gnu_cxx12_Lock_policyE2EED2Ev,"x"
	.linkonce discard
	.align 2
	.globl	_ZNSt10__weak_ptrINSt13__future_base13_State_baseV2ELN9__gnu_cxx12_Lock_policyE2EED2Ev
	.def	_ZNSt10__weak_ptrINSt13__future_base13_State_baseV2ELN9__gnu_cxx12_Lock_policyE2EED2Ev;	.scl	2;	.type	32;	.endef
	.seh_proc	_ZNSt10__weak_ptrINSt13__future_base13_State_baseV2ELN9__gnu_cxx12_Lock_policyE2EED2Ev
_ZNSt10__weak_ptrINSt13__future_base13_State_baseV2ELN9__gnu_cxx12_Lock_policyE2EED2Ev:
.LFB4605:
	pushq	%rbp
	.seh_pushreg	%rbp
	movq	%rsp, %rbp
	.seh_setframe	%rbp, 0
	subq	$32, %rsp
	.seh_stackalloc	32
	.seh_endprologue
	movq	%rcx, 16(%rbp)
	movq	16(%rbp), %rax
	addq	$8, %rax
	movq	%rax, %rcx
	call	_ZNSt12__weak_countILN9__gnu_cxx12_Lock_policyE2EED1Ev
	nop
	addq	$32, %rsp
	popq	%rbp
	ret
	.seh_endproc
	.section	.text$_ZNSt10__weak_ptrINSt13__future_base13_State_baseV2ELN9__gnu_cxx12_Lock_policyE2EED1Ev,"x"
	.linkonce discard
	.align 2
	.globl	_ZNSt10__weak_ptrINSt13__future_base13_State_baseV2ELN9__gnu_cxx12_Lock_policyE2EED1Ev
	.def	_ZNSt10__weak_ptrINSt13__future_base13_State_baseV2ELN9__gnu_cxx12_Lock_policyE2EED1Ev;	.scl	2;	.type	32;	.endef
	.seh_proc	_ZNSt10__weak_ptrINSt13__future_base13_State_baseV2ELN9__gnu_cxx12_Lock_policyE2EED1Ev
_ZNSt10__weak_ptrINSt13__future_base13_State_baseV2ELN9__gnu_cxx12_Lock_policyE2EED1Ev:
.LFB4606:
	pushq	%rbp
	.seh_pushreg	%rbp
	movq	%rsp, %rbp
	.seh_setframe	%rbp, 0
	subq	$32, %rsp
	.seh_stackalloc	32
	.seh_endprologue
	movq	%rcx, 16(%rbp)
	movq	16(%rbp), %rax
	addq	$8, %rax
	movq	%rax, %rcx
	call	_ZNSt12__weak_countILN9__gnu_cxx12_Lock_policyE2EED1Ev
	nop
	addq	$32, %rsp
	popq	%rbp
	ret
	.seh_endproc
	.section	.text$_ZNSt8weak_ptrINSt13__future_base13_State_baseV2EEC1Ev,"x"
	.linkonce discard
	.align 2
	.globl	_ZNSt8weak_ptrINSt13__future_base13_State_baseV2EEC1Ev
	.def	_ZNSt8weak_ptrINSt13__future_base13_State_baseV2EEC1Ev;	.scl	2;	.type	32;	.endef
	.seh_proc	_ZNSt8weak_ptrINSt13__future_base13_State_baseV2EEC1Ev
_ZNSt8weak_ptrINSt13__future_base13_State_baseV2EEC1Ev:
.LFB4608:
	pushq	%rbp
	.seh_pushreg	%rbp
	movq	%rsp, %rbp
	.seh_setframe	%rbp, 0
	subq	$32, %rsp
	.seh_stackalloc	32
	.seh_endprologue
	movq	%rcx, 16(%rbp)
	movq	16(%rbp), %rax
	movq	%rax, %rcx
	call	_ZNSt10__weak_ptrINSt13__future_base13_State_baseV2ELN9__gnu_cxx12_Lock_policyE2EEC2Ev
	nop
	addq	$32, %rsp
	popq	%rbp
	ret
	.seh_endproc
	.section	.text$_ZNSt8weak_ptrINSt13__future_base13_State_baseV2EED1Ev,"x"
	.linkonce discard
	.align 2
	.globl	_ZNSt8weak_ptrINSt13__future_base13_State_baseV2EED1Ev
	.def	_ZNSt8weak_ptrINSt13__future_base13_State_baseV2EED1Ev;	.scl	2;	.type	32;	.endef
	.seh_proc	_ZNSt8weak_ptrINSt13__future_base13_State_baseV2EED1Ev
_ZNSt8weak_ptrINSt13__future_base13_State_baseV2EED1Ev:
.LFB4611:
	pushq	%rbp
	.seh_pushreg	%rbp
	movq	%rsp, %rbp
	.seh_setframe	%rbp, 0
	subq	$32, %rsp
	.seh_stackalloc	32
	.seh_endprologue
	movq	%rcx, 16(%rbp)
	movq	16(%rbp), %rax
	movq	%rax, %rcx
	call	_ZNSt10__weak_ptrINSt13__future_base13_State_baseV2ELN9__gnu_cxx12_Lock_policyE2EED2Ev
	nop
	addq	$32, %rsp
	popq	%rbp
	ret
	.seh_endproc
	.section	.text$_ZNSt13__future_base13_State_baseV211_Make_readyC1Ev,"x"
	.linkonce discard
	.align 2
	.globl	_ZNSt13__future_base13_State_baseV211_Make_readyC1Ev
	.def	_ZNSt13__future_base13_State_baseV211_Make_readyC1Ev;	.scl	2;	.type	32;	.endef
	.seh_proc	_ZNSt13__future_base13_State_baseV211_Make_readyC1Ev
_ZNSt13__future_base13_State_baseV211_Make_readyC1Ev:
.LFB4613:
	pushq	%rbp
	.seh_pushreg	%rbp
	movq	%rsp, %rbp
	.seh_setframe	%rbp, 0
	subq	$32, %rsp
	.seh_stackalloc	32
	.seh_endprologue
	movq	%rcx, 16(%rbp)
	movq	16(%rbp), %rax
	addq	$16, %rax
	movq	%rax, %rcx
	call	_ZNSt8weak_ptrINSt13__future_base13_State_baseV2EEC1Ev
	nop
	addq	$32, %rsp
	popq	%rbp
	ret
	.seh_endproc
	.section	.text$_ZNSt8weak_ptrINSt13__future_base13_State_baseV2EEaSEOS2_,"x"
	.linkonce discard
	.align 2
	.globl	_ZNSt8weak_ptrINSt13__future_base13_State_baseV2EEaSEOS2_
	.def	_ZNSt8weak_ptrINSt13__future_base13_State_baseV2EEaSEOS2_;	.scl	2;	.type	32;	.endef
	.seh_proc	_ZNSt8weak_ptrINSt13__future_base13_State_baseV2EEaSEOS2_
_ZNSt8weak_ptrINSt13__future_base13_State_baseV2EEaSEOS2_:
.LFB4614:
	pushq	%rbp
	.seh_pushreg	%rbp
	movq	%rsp, %rbp
	.seh_setframe	%rbp, 0
	subq	$32, %rsp
	.seh_stackalloc	32
	.seh_endprologue
	movq	%rcx, 16(%rbp)
	movq	%rdx, 24(%rbp)
	movq	16(%rbp), %rax
	movq	24(%rbp), %rdx
	movq	%rax, %rcx
	call	_ZNSt10__weak_ptrINSt13__future_base13_State_baseV2ELN9__gnu_cxx12_Lock_policyE2EEaSEOS4_
	movq	16(%rbp), %rax
	addq	$32, %rsp
	popq	%rbp
	ret
	.seh_endproc
	.section	.text$_ZNSt13__future_base13_State_baseV221_M_set_delayed_resultESt8functionIFSt10unique_ptrINS_12_Result_baseENS3_8_DeleterEEvEESt8weak_ptrIS0_E,"x"
	.linkonce discard
	.align 2
	.globl	_ZNSt13__future_base13_State_baseV221_M_set_delayed_resultESt8functionIFSt10unique_ptrINS_12_Result_baseENS3_8_DeleterEEvEESt8weak_ptrIS0_E
	.def	_ZNSt13__future_base13_State_baseV221_M_set_delayed_resultESt8functionIFSt10unique_ptrINS_12_Result_baseENS3_8_DeleterEEvEESt8weak_ptrIS0_E;	.scl	2;	.type	32;	.endef
	.seh_proc	_ZNSt13__future_base13_State_baseV221_M_set_delayed_resultESt8functionIFSt10unique_ptrINS_12_Result_baseENS3_8_DeleterEEvEESt8weak_ptrIS0_E
_ZNSt13__future_base13_State_baseV221_M_set_delayed_resultESt8functionIFSt10unique_ptrINS_12_Result_baseENS3_8_DeleterEEvEESt8weak_ptrIS0_E:
.LFB4593:
	pushq	%rbp
	.seh_pushreg	%rbp
	pushq	%rdi
	.seh_pushreg	%rdi
	pushq	%rsi
	.seh_pushreg	%rsi
	pushq	%rbx
	.seh_pushreg	%rbx
	subq	$120, %rsp
	.seh_stackalloc	120
	leaq	112(%rsp), %rbp
	.seh_setframe	%rbp, 112
	.seh_endprologue
	movq	%rcx, 48(%rbp)
	movq	%rdx, 56(%rbp)
	movq	%r8, 64(%rbp)
	movb	$0, -41(%rbp)
	movl	$32, %ecx
.LEHB6:
	call	_Znwy
.LEHE6:
	movq	%rax, %rbx
	movq	%rbx, %rcx
	call	_ZNSt13__future_base13_State_baseV211_Make_readyC1Ev
	leaq	-56(%rbp), %rax
	movq	%rbx, %rdx
	movq	%rax, %rcx
	call	_ZNSt10unique_ptrINSt13__future_base13_State_baseV211_Make_readyESt14default_deleteIS2_EEC1IS4_vEEPS2_
	leaq	-41(%rbp), %rax
	movq	%rax, %rcx
	call	_ZSt11__addressofIbEPT_RS0_
	movq	%rax, -40(%rbp)
	movq	56(%rbp), %rax
	movq	%rax, %rcx
	call	_ZSt11__addressofISt8functionIFSt10unique_ptrINSt13__future_base12_Result_baseENS3_8_DeleterEEvEEEPT_RS8_
	movq	%rax, -32(%rbp)
	movq	48(%rbp), %rax
	movq	%rax, -24(%rbp)
	leaq	_ZNSt13__future_base13_State_baseV29_M_do_setEPSt8functionIFSt10unique_ptrINS_12_Result_baseENS3_8_DeleterEEvEEPb(%rip), %rax
	movq	%rax, %rsi
	movl	$0, %edi
	movq	%rsi, -16(%rbp)
	movq	%rdi, -8(%rbp)
	movq	48(%rbp), %rax
	leaq	44(%rax), %rcx
	leaq	-32(%rbp), %r9
	leaq	-24(%rbp), %r8
	leaq	-16(%rbp), %rax
	leaq	-40(%rbp), %rdx
	movq	%rdx, 32(%rsp)
	movq	%rax, %rdx
.LEHB7:
	call	_ZSt9call_onceIMNSt13__future_base13_State_baseV2EFvPSt8functionIFSt10unique_ptrINS0_12_Result_baseENS4_8_DeleterEEvEEPbEJPS1_S9_SA_EEvRSt9once_flagOT_DpOT0_
	movzbl	-41(%rbp), %eax
	xorl	$1, %eax
	testb	%al, %al
	je	.L148
	movl	$2, %ecx
	call	_ZSt20__throw_future_errori
.L148:
	movq	64(%rbp), %rax
	movq	%rax, %rcx
	call	_ZSt4moveIRSt8weak_ptrINSt13__future_base13_State_baseV2EEEONSt16remove_referenceIT_E4typeEOS6_
	movq	%rax, %rbx
	leaq	-56(%rbp), %rax
	movq	%rax, %rcx
	call	_ZNKSt10unique_ptrINSt13__future_base13_State_baseV211_Make_readyESt14default_deleteIS2_EEptEv
	addq	$16, %rax
	movq	%rbx, %rdx
	movq	%rax, %rcx
	call	_ZNSt8weak_ptrINSt13__future_base13_State_baseV2EEaSEOS2_
	leaq	-56(%rbp), %rax
	movq	%rax, %rcx
	call	_ZNKSt10unique_ptrINSt13__future_base13_State_baseV211_Make_readyESt14default_deleteIS2_EEptEv
	movq	%rax, %rcx
	call	_ZNSt13__future_base13_State_baseV211_Make_ready6_M_setEv
.LEHE7:
	leaq	-56(%rbp), %rax
	movq	%rax, %rcx
	call	_ZNSt10unique_ptrINSt13__future_base13_State_baseV211_Make_readyESt14default_deleteIS2_EE7releaseEv
	leaq	-56(%rbp), %rax
	movq	%rax, %rcx
	call	_ZNSt10unique_ptrINSt13__future_base13_State_baseV211_Make_readyESt14default_deleteIS2_EED1Ev
	jmp	.L151
.L150:
	movq	%rax, %rbx
	leaq	-56(%rbp), %rax
	movq	%rax, %rcx
	call	_ZNSt10unique_ptrINSt13__future_base13_State_baseV211_Make_readyESt14default_deleteIS2_EED1Ev
	movq	%rbx, %rax
	movq	%rax, %rcx
.LEHB8:
	call	_Unwind_Resume
	nop
.LEHE8:
.L151:
	addq	$120, %rsp
	popq	%rbx
	popq	%rsi
	popq	%rdi
	popq	%rbp
	ret
	.seh_handler	__gxx_personality_seh0, @unwind, @except
	.seh_handlerdata
.LLSDA4593:
	.byte	0xff
	.byte	0xff
	.byte	0x1
	.uleb128 .LLSDACSE4593-.LLSDACSB4593
.LLSDACSB4593:
	.uleb128 .LEHB6-.LFB4593
	.uleb128 .LEHE6-.LEHB6
	.uleb128 0
	.uleb128 0
	.uleb128 .LEHB7-.LFB4593
	.uleb128 .LEHE7-.LEHB7
	.uleb128 .L150-.LFB4593
	.uleb128 0
	.uleb128 .LEHB8-.LFB4593
	.uleb128 .LEHE8-.LEHB8
	.uleb128 0
	.uleb128 0
.LLSDACSE4593:
	.section	.text$_ZNSt13__future_base13_State_baseV221_M_set_delayed_resultESt8functionIFSt10unique_ptrINS_12_Result_baseENS3_8_DeleterEEvEESt8weak_ptrIS0_E,"x"
	.linkonce discard
	.seh_endproc
	.section	.text$_ZNSt13__future_base13_State_baseV216_M_break_promiseESt10unique_ptrINS_12_Result_baseENS2_8_DeleterEE,"x"
	.linkonce discard
	.align 2
	.globl	_ZNSt13__future_base13_State_baseV216_M_break_promiseESt10unique_ptrINS_12_Result_baseENS2_8_DeleterEE
	.def	_ZNSt13__future_base13_State_baseV216_M_break_promiseESt10unique_ptrINS_12_Result_baseENS2_8_DeleterEE;	.scl	2;	.type	32;	.endef
	.seh_proc	_ZNSt13__future_base13_State_baseV216_M_break_promiseESt10unique_ptrINS_12_Result_baseENS2_8_DeleterEE
_ZNSt13__future_base13_State_baseV216_M_break_promiseESt10unique_ptrINS_12_Result_baseENS2_8_DeleterEE:
.LFB4615:
	pushq	%rbp
	.seh_pushreg	%rbp
	movq	%rsp, %rbp
	.seh_setframe	%rbp, 0
	subq	$112, %rsp
	.seh_stackalloc	112
	.seh_endprologue
	movq	%rcx, 16(%rbp)
	movq	%rdx, 24(%rbp)
	movq	24(%rbp), %rax
	movq	%rax, %rcx
	call	_ZNKSt10unique_ptrINSt13__future_base12_Result_baseENS1_8_DeleterEEcvbEv
	testb	%al, %al
	je	.L154
	leaq	-48(%rbp), %rax
	movl	$4, %edx
	movq	%rax, %rcx
	call	_ZNSt12future_errorC1ESt11future_errc
	leaq	-56(%rbp), %rax
	leaq	-48(%rbp), %rdx
	movq	%rax, %rcx
	call	_ZSt18make_exception_ptrISt12future_errorENSt15__exception_ptr13exception_ptrET_
	movq	24(%rbp), %rax
	movq	%rax, %rcx
	call	_ZNKSt10unique_ptrINSt13__future_base12_Result_baseENS1_8_DeleterEEptEv
	leaq	8(%rax), %rcx
	leaq	-56(%rbp), %rax
	movq	%rax, %rdx
	call	_ZNSt15__exception_ptr13exception_ptraSEOS0_
	leaq	-56(%rbp), %rax
	movq	%rax, %rcx
	call	_ZNSt15__exception_ptr13exception_ptrD1Ev
	leaq	-48(%rbp), %rax
	movq	%rax, %rcx
	call	_ZNSt12future_errorD1Ev
	movq	16(%rbp), %rax
	leaq	8(%rax), %rcx
	movq	24(%rbp), %rax
	movq	%rax, %rdx
	call	_ZNSt10unique_ptrINSt13__future_base12_Result_baseENS1_8_DeleterEE4swapERS3_
	movq	16(%rbp), %rax
	addq	$16, %rax
	movq	%rax, -8(%rbp)
	movl	$1, -12(%rbp)
	movl	$3, -16(%rbp)
	movq	-8(%rbp), %rax
	leaq	8(%rax), %rdx
	leaq	-80(%rbp), %rax
	movq	%rax, %rcx
	call	_ZNSt11unique_lockISt5mutexEC1ERS0_
	movq	-8(%rbp), %rax
	movl	-12(%rbp), %edx
	movl	%edx, (%rax)
	movq	-8(%rbp), %rax
	addq	$16, %rax
	movq	%rax, %rcx
	call	_ZNSt18condition_variable10notify_allEv
	leaq	-80(%rbp), %rax
	movq	%rax, %rcx
	call	_ZNSt11unique_lockISt5mutexED1Ev
.L154:
	nop
	addq	$112, %rsp
	popq	%rbp
	ret
	.seh_endproc
	.section	.text$_ZNSt13__future_base13_State_baseV221_M_set_retrieved_flagEv,"x"
	.linkonce discard
	.align 2
	.globl	_ZNSt13__future_base13_State_baseV221_M_set_retrieved_flagEv
	.def	_ZNSt13__future_base13_State_baseV221_M_set_retrieved_flagEv;	.scl	2;	.type	32;	.endef
	.seh_proc	_ZNSt13__future_base13_State_baseV221_M_set_retrieved_flagEv
_ZNSt13__future_base13_State_baseV221_M_set_retrieved_flagEv:
.LFB4616:
	pushq	%rbp
	.seh_pushreg	%rbp
	movq	%rsp, %rbp
	.seh_setframe	%rbp, 0
	subq	$48, %rsp
	.seh_stackalloc	48
	.seh_endprologue
	movq	%rcx, 16(%rbp)
	movq	16(%rbp), %rax
	addq	$40, %rax
	movq	%rax, -8(%rbp)
	movl	$5, -12(%rbp)
	movq	-8(%rbp), %rdx
	movl	$1, %eax
	xchgb	(%rdx), %al
	nop
	testb	%al, %al
	je	.L158
	movl	$1, %ecx
	call	_ZSt20__throw_future_errori
.L158:
	nop
	addq	$48, %rsp
	popq	%rbp
	ret
	.seh_endproc
	.section	.text$_ZNSt13__future_base13_State_baseV29_M_do_setEPSt8functionIFSt10unique_ptrINS_12_Result_baseENS3_8_DeleterEEvEEPb,"x"
	.linkonce discard
	.align 2
	.globl	_ZNSt13__future_base13_State_baseV29_M_do_setEPSt8functionIFSt10unique_ptrINS_12_Result_baseENS3_8_DeleterEEvEEPb
	.def	_ZNSt13__future_base13_State_baseV29_M_do_setEPSt8functionIFSt10unique_ptrINS_12_Result_baseENS3_8_DeleterEEvEEPb;	.scl	2;	.type	32;	.endef
	.seh_proc	_ZNSt13__future_base13_State_baseV29_M_do_setEPSt8functionIFSt10unique_ptrINS_12_Result_baseENS3_8_DeleterEEvEEPb
_ZNSt13__future_base13_State_baseV29_M_do_setEPSt8functionIFSt10unique_ptrINS_12_Result_baseENS3_8_DeleterEEvEEPb:
.LFB4625:
	pushq	%rbp
	.seh_pushreg	%rbp
	movq	%rsp, %rbp
	.seh_setframe	%rbp, 0
	subq	$48, %rsp
	.seh_stackalloc	48
	.seh_endprologue
	movq	%rcx, 16(%rbp)
	movq	%rdx, 24(%rbp)
	movq	%r8, 32(%rbp)
	leaq	-8(%rbp), %rax
	movq	24(%rbp), %rdx
	movq	%rax, %rcx
	call	_ZNKSt8functionIFSt10unique_ptrINSt13__future_base12_Result_baseENS2_8_DeleterEEvEEclEv
	movq	32(%rbp), %rax
	movb	$1, (%rax)
	movq	16(%rbp), %rax
	leaq	8(%rax), %rcx
	leaq	-8(%rbp), %rax
	movq	%rax, %rdx
	call	_ZNSt10unique_ptrINSt13__future_base12_Result_baseENS1_8_DeleterEE4swapERS3_
	leaq	-8(%rbp), %rax
	movq	%rax, %rcx
	call	_ZNSt10unique_ptrINSt13__future_base12_Result_baseENS1_8_DeleterEED1Ev
	nop
	addq	$48, %rsp
	popq	%rbp
	ret
	.seh_endproc
	.section	.text$_ZNSt13__future_base13_State_baseV217_M_complete_asyncEv,"x"
	.linkonce discard
	.align 2
	.globl	_ZNSt13__future_base13_State_baseV217_M_complete_asyncEv
	.def	_ZNSt13__future_base13_State_baseV217_M_complete_asyncEv;	.scl	2;	.type	32;	.endef
	.seh_proc	_ZNSt13__future_base13_State_baseV217_M_complete_asyncEv
_ZNSt13__future_base13_State_baseV217_M_complete_asyncEv:
.LFB4626:
	pushq	%rbp
	.seh_pushreg	%rbp
	movq	%rsp, %rbp
	.seh_setframe	%rbp, 0
	.seh_endprologue
	movq	%rcx, 16(%rbp)
	nop
	popq	%rbp
	ret
	.seh_endproc
	.section	.text$_ZNKSt13__future_base13_State_baseV221_M_is_deferred_futureEv,"x"
	.linkonce discard
	.align 2
	.globl	_ZNKSt13__future_base13_State_baseV221_M_is_deferred_futureEv
	.def	_ZNKSt13__future_base13_State_baseV221_M_is_deferred_futureEv;	.scl	2;	.type	32;	.endef
	.seh_proc	_ZNKSt13__future_base13_State_baseV221_M_is_deferred_futureEv
_ZNKSt13__future_base13_State_baseV221_M_is_deferred_futureEv:
.LFB4627:
	pushq	%rbp
	.seh_pushreg	%rbp
	movq	%rsp, %rbp
	.seh_setframe	%rbp, 0
	.seh_endprologue
	movq	%rcx, 16(%rbp)
	movl	$0, %eax
	popq	%rbp
	ret
	.seh_endproc
	.section	.text$_ZNSt12__shared_ptrINSt13__future_base13_State_baseV2ELN9__gnu_cxx12_Lock_policyE2EED2Ev,"x"
	.linkonce discard
	.align 2
	.globl	_ZNSt12__shared_ptrINSt13__future_base13_State_baseV2ELN9__gnu_cxx12_Lock_policyE2EED2Ev
	.def	_ZNSt12__shared_ptrINSt13__future_base13_State_baseV2ELN9__gnu_cxx12_Lock_policyE2EED2Ev;	.scl	2;	.type	32;	.endef
	.seh_proc	_ZNSt12__shared_ptrINSt13__future_base13_State_baseV2ELN9__gnu_cxx12_Lock_policyE2EED2Ev
_ZNSt12__shared_ptrINSt13__future_base13_State_baseV2ELN9__gnu_cxx12_Lock_policyE2EED2Ev:
.LFB4662:
	pushq	%rbp
	.seh_pushreg	%rbp
	movq	%rsp, %rbp
	.seh_setframe	%rbp, 0
	subq	$32, %rsp
	.seh_stackalloc	32
	.seh_endprologue
	movq	%rcx, 16(%rbp)
	movq	16(%rbp), %rax
	addq	$8, %rax
	movq	%rax, %rcx
	call	_ZNSt14__shared_countILN9__gnu_cxx12_Lock_policyE2EED1Ev
	nop
	addq	$32, %rsp
	popq	%rbp
	ret
	.seh_endproc
	.section	.text$_ZNSt10shared_ptrINSt13__future_base13_State_baseV2EED1Ev,"x"
	.linkonce discard
	.align 2
	.globl	_ZNSt10shared_ptrINSt13__future_base13_State_baseV2EED1Ev
	.def	_ZNSt10shared_ptrINSt13__future_base13_State_baseV2EED1Ev;	.scl	2;	.type	32;	.endef
	.seh_proc	_ZNSt10shared_ptrINSt13__future_base13_State_baseV2EED1Ev
_ZNSt10shared_ptrINSt13__future_base13_State_baseV2EED1Ev:
.LFB4665:
	pushq	%rbp
	.seh_pushreg	%rbp
	movq	%rsp, %rbp
	.seh_setframe	%rbp, 0
	subq	$32, %rsp
	.seh_stackalloc	32
	.seh_endprologue
	movq	%rcx, 16(%rbp)
	movq	16(%rbp), %rax
	movq	%rax, %rcx
	call	_ZNSt12__shared_ptrINSt13__future_base13_State_baseV2ELN9__gnu_cxx12_Lock_policyE2EED2Ev
	nop
	addq	$32, %rsp
	popq	%rbp
	ret
	.seh_endproc
	.section	.text$_ZNSt8functionIFSt10unique_ptrINSt13__future_base12_Result_baseENS2_8_DeleterEEvEED1Ev,"x"
	.linkonce discard
	.align 2
	.globl	_ZNSt8functionIFSt10unique_ptrINSt13__future_base12_Result_baseENS2_8_DeleterEEvEED1Ev
	.def	_ZNSt8functionIFSt10unique_ptrINSt13__future_base12_Result_baseENS2_8_DeleterEEvEED1Ev;	.scl	2;	.type	32;	.endef
	.seh_proc	_ZNSt8functionIFSt10unique_ptrINSt13__future_base12_Result_baseENS2_8_DeleterEEvEED1Ev
_ZNSt8functionIFSt10unique_ptrINSt13__future_base12_Result_baseENS2_8_DeleterEEvEED1Ev:
.LFB4782:
	pushq	%rbp
	.seh_pushreg	%rbp
	movq	%rsp, %rbp
	.seh_setframe	%rbp, 0
	subq	$32, %rsp
	.seh_stackalloc	32
	.seh_endprologue
	movq	%rcx, 16(%rbp)
	movq	16(%rbp), %rax
	movq	%rax, %rcx
	call	_ZNSt14_Function_baseD2Ev
	nop
	addq	$32, %rsp
	popq	%rbp
	ret
	.seh_endproc
	.section	.text$_ZSt16__deque_buf_sizey,"x"
	.linkonce discard
	.globl	_ZSt16__deque_buf_sizey
	.def	_ZSt16__deque_buf_sizey;	.scl	2;	.type	32;	.endef
	.seh_proc	_ZSt16__deque_buf_sizey
_ZSt16__deque_buf_sizey:
.LFB4890:
	pushq	%rbp
	.seh_pushreg	%rbp
	movq	%rsp, %rbp
	.seh_setframe	%rbp, 0
	.seh_endprologue
	movq	%rcx, 16(%rbp)
	cmpq	$511, 16(%rbp)
	ja	.L167
	movl	$512, %eax
	movl	$0, %edx
	divq	16(%rbp)
	jmp	.L169
.L167:
	movl	$1, %eax
.L169:
	popq	%rbp
	ret
	.seh_endproc
	.section	.text$_ZNSt18_Rb_tree_node_base10_S_minimumEPS_,"x"
	.linkonce discard
	.globl	_ZNSt18_Rb_tree_node_base10_S_minimumEPS_
	.def	_ZNSt18_Rb_tree_node_base10_S_minimumEPS_;	.scl	2;	.type	32;	.endef
	.seh_proc	_ZNSt18_Rb_tree_node_base10_S_minimumEPS_
_ZNSt18_Rb_tree_node_base10_S_minimumEPS_:
.LFB5153:
	pushq	%rbp
	.seh_pushreg	%rbp
	movq	%rsp, %rbp
	.seh_setframe	%rbp, 0
	.seh_endprologue
	movq	%rcx, 16(%rbp)
	jmp	.L171
.L172:
	movq	16(%rbp), %rax
	movq	16(%rax), %rax
	movq	%rax, 16(%rbp)
.L171:
	movq	16(%rbp), %rax
	movq	16(%rax), %rax
	testq	%rax, %rax
	jne	.L172
	movq	16(%rbp), %rax
	popq	%rbp
	ret
	.seh_endproc
	.section	.text$_ZNSt18_Rb_tree_node_base10_S_maximumEPS_,"x"
	.linkonce discard
	.globl	_ZNSt18_Rb_tree_node_base10_S_maximumEPS_
	.def	_ZNSt18_Rb_tree_node_base10_S_maximumEPS_;	.scl	2;	.type	32;	.endef
	.seh_proc	_ZNSt18_Rb_tree_node_base10_S_maximumEPS_
_ZNSt18_Rb_tree_node_base10_S_maximumEPS_:
.LFB5155:
	pushq	%rbp
	.seh_pushreg	%rbp
	movq	%rsp, %rbp
	.seh_setframe	%rbp, 0
	.seh_endprologue
	movq	%rcx, 16(%rbp)
	jmp	.L175
.L176:
	movq	16(%rbp), %rax
	movq	24(%rax), %rax
	movq	%rax, 16(%rbp)
.L175:
	movq	16(%rbp), %rax
	movq	24(%rax), %rax
	testq	%rax, %rax
	jne	.L176
	movq	16(%rbp), %rax
	popq	%rbp
	ret
	.seh_endproc
	.section	.text$_ZNSt15_Rb_tree_headerC2Ev,"x"
	.linkonce discard
	.align 2
	.globl	_ZNSt15_Rb_tree_headerC2Ev
	.def	_ZNSt15_Rb_tree_headerC2Ev;	.scl	2;	.type	32;	.endef
	.seh_proc	_ZNSt15_Rb_tree_headerC2Ev
_ZNSt15_Rb_tree_headerC2Ev:
.LFB5161:
	pushq	%rbp
	.seh_pushreg	%rbp
	movq	%rsp, %rbp
	.seh_setframe	%rbp, 0
	subq	$32, %rsp
	.seh_stackalloc	32
	.seh_endprologue
	movq	%rcx, 16(%rbp)
	movq	16(%rbp), %rax
	movl	$0, (%rax)
	movq	16(%rbp), %rax
	movq	%rax, %rcx
	call	_ZNSt15_Rb_tree_header8_M_resetEv
	nop
	addq	$32, %rsp
	popq	%rbp
	ret
	.seh_endproc
	.section	.text$_ZNSt15_Rb_tree_headerC2EOS_,"x"
	.linkonce discard
	.align 2
	.globl	_ZNSt15_Rb_tree_headerC2EOS_
	.def	_ZNSt15_Rb_tree_headerC2EOS_;	.scl	2;	.type	32;	.endef
	.seh_proc	_ZNSt15_Rb_tree_headerC2EOS_
_ZNSt15_Rb_tree_headerC2EOS_:
.LFB5164:
	pushq	%rbp
	.seh_pushreg	%rbp
	movq	%rsp, %rbp
	.seh_setframe	%rbp, 0
	subq	$32, %rsp
	.seh_stackalloc	32
	.seh_endprologue
	movq	%rcx, 16(%rbp)
	movq	%rdx, 24(%rbp)
	movq	24(%rbp), %rax
	movq	8(%rax), %rax
	testq	%rax, %rax
	je	.L180
	movq	24(%rbp), %rdx
	movq	16(%rbp), %rax
	movq	%rax, %rcx
	call	_ZNSt15_Rb_tree_header12_M_move_dataERS_
	jmp	.L182
.L180:
	movq	16(%rbp), %rax
	movl	$0, (%rax)
	movq	16(%rbp), %rax
	movq	%rax, %rcx
	call	_ZNSt15_Rb_tree_header8_M_resetEv
.L182:
	nop
	addq	$32, %rsp
	popq	%rbp
	ret
	.seh_handler	__gxx_personality_seh0, @unwind, @except
	.seh_handlerdata
.LLSDA5164:
	.byte	0xff
	.byte	0xff
	.byte	0x1
	.uleb128 .LLSDACSE5164-.LLSDACSB5164
.LLSDACSB5164:
.LLSDACSE5164:
	.section	.text$_ZNSt15_Rb_tree_headerC2EOS_,"x"
	.linkonce discard
	.seh_endproc
	.section	.text$_ZNSt15_Rb_tree_header12_M_move_dataERS_,"x"
	.linkonce discard
	.align 2
	.globl	_ZNSt15_Rb_tree_header12_M_move_dataERS_
	.def	_ZNSt15_Rb_tree_header12_M_move_dataERS_;	.scl	2;	.type	32;	.endef
	.seh_proc	_ZNSt15_Rb_tree_header12_M_move_dataERS_
_ZNSt15_Rb_tree_header12_M_move_dataERS_:
.LFB5166:
	pushq	%rbp
	.seh_pushreg	%rbp
	movq	%rsp, %rbp
	.seh_setframe	%rbp, 0
	subq	$32, %rsp
	.seh_stackalloc	32
	.seh_endprologue
	movq	%rcx, 16(%rbp)
	movq	%rdx, 24(%rbp)
	movq	24(%rbp), %rax
	movl	(%rax), %edx
	movq	16(%rbp), %rax
	movl	%edx, (%rax)
	movq	24(%rbp), %rax
	movq	8(%rax), %rdx
	movq	16(%rbp), %rax
	movq	%rdx, 8(%rax)
	movq	24(%rbp), %rax
	movq	16(%rax), %rdx
	movq	16(%rbp), %rax
	movq	%rdx, 16(%rax)
	movq	24(%rbp), %rax
	movq	24(%rax), %rdx
	movq	16(%rbp), %rax
	movq	%rdx, 24(%rax)
	movq	16(%rbp), %rax
	movq	8(%rax), %rax
	movq	16(%rbp), %rdx
	movq	%rdx, 8(%rax)
	movq	24(%rbp), %rax
	movq	32(%rax), %rdx
	movq	16(%rbp), %rax
	movq	%rdx, 32(%rax)
	movq	24(%rbp), %rax
	movq	%rax, %rcx
	call	_ZNSt15_Rb_tree_header8_M_resetEv
	nop
	addq	$32, %rsp
	popq	%rbp
	ret
	.seh_endproc
	.section	.text$_ZNSt15_Rb_tree_header8_M_resetEv,"x"
	.linkonce discard
	.align 2
	.globl	_ZNSt15_Rb_tree_header8_M_resetEv
	.def	_ZNSt15_Rb_tree_header8_M_resetEv;	.scl	2;	.type	32;	.endef
	.seh_proc	_ZNSt15_Rb_tree_header8_M_resetEv
_ZNSt15_Rb_tree_header8_M_resetEv:
.LFB5167:
	pushq	%rbp
	.seh_pushreg	%rbp
	movq	%rsp, %rbp
	.seh_setframe	%rbp, 0
	.seh_endprologue
	movq	%rcx, 16(%rbp)
	movq	16(%rbp), %rax
	movq	$0, 8(%rax)
	movq	16(%rbp), %rdx
	movq	16(%rbp), %rax
	movq	%rdx, 16(%rax)
	movq	16(%rbp), %rdx
	movq	16(%rbp), %rax
	movq	%rdx, 24(%rax)
	movq	16(%rbp), %rax
	movq	$0, 32(%rax)
	nop
	popq	%rbp
	ret
	.seh_endproc
	.section	.text$_ZNSt4pairIKN3cpr21AcceptEncodingMethodsENSt7__cxx1112basic_stringIcSt11char_traitsIcESaIcEEEED1Ev,"x"
	.linkonce discard
	.align 2
	.globl	_ZNSt4pairIKN3cpr21AcceptEncodingMethodsENSt7__cxx1112basic_stringIcSt11char_traitsIcESaIcEEEED1Ev
	.def	_ZNSt4pairIKN3cpr21AcceptEncodingMethodsENSt7__cxx1112basic_stringIcSt11char_traitsIcESaIcEEEED1Ev;	.scl	2;	.type	32;	.endef
	.seh_proc	_ZNSt4pairIKN3cpr21AcceptEncodingMethodsENSt7__cxx1112basic_stringIcSt11char_traitsIcESaIcEEEED1Ev
_ZNSt4pairIKN3cpr21AcceptEncodingMethodsENSt7__cxx1112basic_stringIcSt11char_traitsIcESaIcEEEED1Ev:
.LFB5673:
	pushq	%rbp
	.seh_pushreg	%rbp
	movq	%rsp, %rbp
	.seh_setframe	%rbp, 0
	subq	$32, %rsp
	.seh_stackalloc	32
	.seh_endprologue
	movq	%rcx, 16(%rbp)
	movq	16(%rbp), %rax
	addq	$8, %rax
	movq	%rax, %rcx
	call	_ZNSt7__cxx1112basic_stringIcSt11char_traitsIcESaIcEED1Ev
	nop
	addq	$32, %rsp
	popq	%rbp
	ret
	.seh_endproc
	.section	.text$_ZNSt4pairIKN3cpr21AcceptEncodingMethodsENSt7__cxx1112basic_stringIcSt11char_traitsIcESaIcEEEEC1IS1_RA9_KcLb1EEEOT_OT0_,"x"
	.linkonce discard
	.align 2
	.globl	_ZNSt4pairIKN3cpr21AcceptEncodingMethodsENSt7__cxx1112basic_stringIcSt11char_traitsIcESaIcEEEEC1IS1_RA9_KcLb1EEEOT_OT0_
	.def	_ZNSt4pairIKN3cpr21AcceptEncodingMethodsENSt7__cxx1112basic_stringIcSt11char_traitsIcESaIcEEEEC1IS1_RA9_KcLb1EEEOT_OT0_;	.scl	2;	.type	32;	.endef
	.seh_proc	_ZNSt4pairIKN3cpr21AcceptEncodingMethodsENSt7__cxx1112basic_stringIcSt11char_traitsIcESaIcEEEEC1IS1_RA9_KcLb1EEEOT_OT0_
_ZNSt4pairIKN3cpr21AcceptEncodingMethodsENSt7__cxx1112basic_stringIcSt11char_traitsIcESaIcEEEEC1IS1_RA9_KcLb1EEEOT_OT0_:
.LFB5676:
	pushq	%rbp
	.seh_pushreg	%rbp
	pushq	%rbx
	.seh_pushreg	%rbx
	subq	$56, %rsp
	.seh_stackalloc	56
	leaq	48(%rsp), %rbp
	.seh_setframe	%rbp, 48
	.seh_endprologue
	movq	%rcx, 32(%rbp)
	movq	%rdx, 40(%rbp)
	movq	%r8, 48(%rbp)
	movq	40(%rbp), %rax
	movq	%rax, %rcx
	call	_ZSt7forwardIN3cpr21AcceptEncodingMethodsEEOT_RNSt16remove_referenceIS2_E4typeE
	movl	(%rax), %edx
	movq	32(%rbp), %rax
	movl	%edx, (%rax)
	movq	32(%rbp), %rax
	leaq	8(%rax), %rbx
	leaq	-9(%rbp), %rax
	movq	%rax, -8(%rbp)
	nop
	nop
	movq	48(%rbp), %rax
	movq	%rax, %rcx
	call	_ZSt7forwardIRA9_KcEOT_RNSt16remove_referenceIS3_E4typeE
	leaq	-9(%rbp), %rdx
	movq	%rdx, %r8
	movq	%rax, %rdx
	movq	%rbx, %rcx
.LEHB9:
	call	_ZNSt7__cxx1112basic_stringIcSt11char_traitsIcESaIcEEC1IS3_EEPKcRKS3_
.LEHE9:
	leaq	-9(%rbp), %rax
	movq	%rax, %rcx
	call	_ZNSt15__new_allocatorIcED2Ev
	nop
	jmp	.L189
.L188:
	movq	%rax, %rbx
	leaq	-9(%rbp), %rax
	movq	%rax, %rcx
	call	_ZNSt15__new_allocatorIcED2Ev
	nop
	movq	%rbx, %rax
	movq	%rax, %rcx
.LEHB10:
	call	_Unwind_Resume
	nop
.LEHE10:
.L189:
	addq	$56, %rsp
	popq	%rbx
	popq	%rbp
	ret
	.seh_handler	__gxx_personality_seh0, @unwind, @except
	.seh_handlerdata
.LLSDA5676:
	.byte	0xff
	.byte	0xff
	.byte	0x1
	.uleb128 .LLSDACSE5676-.LLSDACSB5676
.LLSDACSB5676:
	.uleb128 .LEHB9-.LFB5676
	.uleb128 .LEHE9-.LEHB9
	.uleb128 .L188-.LFB5676
	.uleb128 0
	.uleb128 .LEHB10-.LFB5676
	.uleb128 .LEHE10-.LEHB10
	.uleb128 0
	.uleb128 0
.LLSDACSE5676:
	.section	.text$_ZNSt4pairIKN3cpr21AcceptEncodingMethodsENSt7__cxx1112basic_stringIcSt11char_traitsIcESaIcEEEEC1IS1_RA9_KcLb1EEEOT_OT0_,"x"
	.linkonce discard
	.seh_endproc
	.section	.text$_ZNSt4pairIKN3cpr21AcceptEncodingMethodsENSt7__cxx1112basic_stringIcSt11char_traitsIcESaIcEEEEC1IS1_RA8_KcLb1EEEOT_OT0_,"x"
	.linkonce discard
	.align 2
	.globl	_ZNSt4pairIKN3cpr21AcceptEncodingMethodsENSt7__cxx1112basic_stringIcSt11char_traitsIcESaIcEEEEC1IS1_RA8_KcLb1EEEOT_OT0_
	.def	_ZNSt4pairIKN3cpr21AcceptEncodingMethodsENSt7__cxx1112basic_stringIcSt11char_traitsIcESaIcEEEEC1IS1_RA8_KcLb1EEEOT_OT0_;	.scl	2;	.type	32;	.endef
	.seh_proc	_ZNSt4pairIKN3cpr21AcceptEncodingMethodsENSt7__cxx1112basic_stringIcSt11char_traitsIcESaIcEEEEC1IS1_RA8_KcLb1EEEOT_OT0_
_ZNSt4pairIKN3cpr21AcceptEncodingMethodsENSt7__cxx1112basic_stringIcSt11char_traitsIcESaIcEEEEC1IS1_RA8_KcLb1EEEOT_OT0_:
.LFB5679:
	pushq	%rbp
	.seh_pushreg	%rbp
	pushq	%rbx
	.seh_pushreg	%rbx
	subq	$56, %rsp
	.seh_stackalloc	56
	leaq	48(%rsp), %rbp
	.seh_setframe	%rbp, 48
	.seh_endprologue
	movq	%rcx, 32(%rbp)
	movq	%rdx, 40(%rbp)
	movq	%r8, 48(%rbp)
	movq	40(%rbp), %rax
	movq	%rax, %rcx
	call	_ZSt7forwardIN3cpr21AcceptEncodingMethodsEEOT_RNSt16remove_referenceIS2_E4typeE
	movl	(%rax), %edx
	movq	32(%rbp), %rax
	movl	%edx, (%rax)
	movq	32(%rbp), %rax
	leaq	8(%rax), %rbx
	leaq	-9(%rbp), %rax
	movq	%rax, -8(%rbp)
	nop
	nop
	movq	48(%rbp), %rax
	movq	%rax, %rcx
	call	_ZSt7forwardIRA8_KcEOT_RNSt16remove_referenceIS3_E4typeE
	leaq	-9(%rbp), %rdx
	movq	%rdx, %r8
	movq	%rax, %rdx
	movq	%rbx, %rcx
.LEHB11:
	call	_ZNSt7__cxx1112basic_stringIcSt11char_traitsIcESaIcEEC1IS3_EEPKcRKS3_
.LEHE11:
	leaq	-9(%rbp), %rax
	movq	%rax, %rcx
	call	_ZNSt15__new_allocatorIcED2Ev
	nop
	jmp	.L193
.L192:
	movq	%rax, %rbx
	leaq	-9(%rbp), %rax
	movq	%rax, %rcx
	call	_ZNSt15__new_allocatorIcED2Ev
	nop
	movq	%rbx, %rax
	movq	%rax, %rcx
.LEHB12:
	call	_Unwind_Resume
	nop
.LEHE12:
.L193:
	addq	$56, %rsp
	popq	%rbx
	popq	%rbp
	ret
	.seh_handler	__gxx_personality_seh0, @unwind, @except
	.seh_handlerdata
.LLSDA5679:
	.byte	0xff
	.byte	0xff
	.byte	0x1
	.uleb128 .LLSDACSE5679-.LLSDACSB5679
.LLSDACSB5679:
	.uleb128 .LEHB11-.LFB5679
	.uleb128 .LEHE11-.LEHB11
	.uleb128 .L192-.LFB5679
	.uleb128 0
	.uleb128 .LEHB12-.LFB5679
	.uleb128 .LEHE12-.LEHB12
	.uleb128 0
	.uleb128 0
.LLSDACSE5679:
	.section	.text$_ZNSt4pairIKN3cpr21AcceptEncodingMethodsENSt7__cxx1112basic_stringIcSt11char_traitsIcESaIcEEEEC1IS1_RA8_KcLb1EEEOT_OT0_,"x"
	.linkonce discard
	.seh_endproc
	.section	.text$_ZNSt4pairIKN3cpr21AcceptEncodingMethodsENSt7__cxx1112basic_stringIcSt11char_traitsIcESaIcEEEEC1IS1_RA5_KcLb1EEEOT_OT0_,"x"
	.linkonce discard
	.align 2
	.globl	_ZNSt4pairIKN3cpr21AcceptEncodingMethodsENSt7__cxx1112basic_stringIcSt11char_traitsIcESaIcEEEEC1IS1_RA5_KcLb1EEEOT_OT0_
	.def	_ZNSt4pairIKN3cpr21AcceptEncodingMethodsENSt7__cxx1112basic_stringIcSt11char_traitsIcESaIcEEEEC1IS1_RA5_KcLb1EEEOT_OT0_;	.scl	2;	.type	32;	.endef
	.seh_proc	_ZNSt4pairIKN3cpr21AcceptEncodingMethodsENSt7__cxx1112basic_stringIcSt11char_traitsIcESaIcEEEEC1IS1_RA5_KcLb1EEEOT_OT0_
_ZNSt4pairIKN3cpr21AcceptEncodingMethodsENSt7__cxx1112basic_stringIcSt11char_traitsIcESaIcEEEEC1IS1_RA5_KcLb1EEEOT_OT0_:
.LFB5682:
	pushq	%rbp
	.seh_pushreg	%rbp
	pushq	%rbx
	.seh_pushreg	%rbx
	subq	$56, %rsp
	.seh_stackalloc	56
	leaq	48(%rsp), %rbp
	.seh_setframe	%rbp, 48
	.seh_endprologue
	movq	%rcx, 32(%rbp)
	movq	%rdx, 40(%rbp)
	movq	%r8, 48(%rbp)
	movq	40(%rbp), %rax
	movq	%rax, %rcx
	call	_ZSt7forwardIN3cpr21AcceptEncodingMethodsEEOT_RNSt16remove_referenceIS2_E4typeE
	movl	(%rax), %edx
	movq	32(%rbp), %rax
	movl	%edx, (%rax)
	movq	32(%rbp), %rax
	leaq	8(%rax), %rbx
	leaq	-9(%rbp), %rax
	movq	%rax, -8(%rbp)
	nop
	nop
	movq	48(%rbp), %rax
	movq	%rax, %rcx
	call	_ZSt7forwardIRA5_KcEOT_RNSt16remove_referenceIS3_E4typeE
	leaq	-9(%rbp), %rdx
	movq	%rdx, %r8
	movq	%rax, %rdx
	movq	%rbx, %rcx
.LEHB13:
	call	_ZNSt7__cxx1112basic_stringIcSt11char_traitsIcESaIcEEC1IS3_EEPKcRKS3_
.LEHE13:
	leaq	-9(%rbp), %rax
	movq	%rax, %rcx
	call	_ZNSt15__new_allocatorIcED2Ev
	nop
	jmp	.L197
.L196:
	movq	%rax, %rbx
	leaq	-9(%rbp), %rax
	movq	%rax, %rcx
	call	_ZNSt15__new_allocatorIcED2Ev
	nop
	movq	%rbx, %rax
	movq	%rax, %rcx
.LEHB14:
	call	_Unwind_Resume
	nop
.LEHE14:
.L197:
	addq	$56, %rsp
	popq	%rbx
	popq	%rbp
	ret
	.seh_handler	__gxx_personality_seh0, @unwind, @except
	.seh_handlerdata
.LLSDA5682:
	.byte	0xff
	.byte	0xff
	.byte	0x1
	.uleb128 .LLSDACSE5682-.LLSDACSB5682
.LLSDACSB5682:
	.uleb128 .LEHB13-.LFB5682
	.uleb128 .LEHE13-.LEHB13
	.uleb128 .L196-.LFB5682
	.uleb128 0
	.uleb128 .LEHB14-.LFB5682
	.uleb128 .LEHE14-.LEHB14
	.uleb128 0
	.uleb128 0
.LLSDACSE5682:
	.section	.text$_ZNSt4pairIKN3cpr21AcceptEncodingMethodsENSt7__cxx1112basic_stringIcSt11char_traitsIcESaIcEEEEC1IS1_RA5_KcLb1EEEOT_OT0_,"x"
	.linkonce discard
	.seh_endproc
.lcomm _ZN3cprL30AcceptEncodingMethodsStringMapE,48,32
	.section	.text$_ZNSt5mutexC1Ev,"x"
	.linkonce discard
	.align 2
	.globl	_ZNSt5mutexC1Ev
	.def	_ZNSt5mutexC1Ev;	.scl	2;	.type	32;	.endef
	.seh_proc	_ZNSt5mutexC1Ev
_ZNSt5mutexC1Ev:
.LFB11537:
	pushq	%rbp
	.seh_pushreg	%rbp
	movq	%rsp, %rbp
	.seh_setframe	%rbp, 0
	subq	$32, %rsp
	.seh_stackalloc	32
	.seh_endprologue
	movq	%rcx, 16(%rbp)
	movq	16(%rbp), %rax
	movq	%rax, %rcx
	call	_ZNSt12__mutex_baseC2Ev
	nop
	addq	$32, %rsp
	popq	%rbp
	ret
	.seh_endproc
	.section .rdata,"dr"
	.align 8
_ZN3cprL19EXPIRES_STRING_SIZEE:
	.quad	100
	.section	.text$_ZNSt12_Vector_baseIN3cpr6CookieESaIS1_EE12_Vector_implD1Ev,"x"
	.linkonce discard
	.align 2
	.globl	_ZNSt12_Vector_baseIN3cpr6CookieESaIS1_EE12_Vector_implD1Ev
	.def	_ZNSt12_Vector_baseIN3cpr6CookieESaIS1_EE12_Vector_implD1Ev;	.scl	2;	.type	32;	.endef
	.seh_proc	_ZNSt12_Vector_baseIN3cpr6CookieESaIS1_EE12_Vector_implD1Ev
_ZNSt12_Vector_baseIN3cpr6CookieESaIS1_EE12_Vector_implD1Ev:
.LFB11606:
	pushq	%rbp
	.seh_pushreg	%rbp
	movq	%rsp, %rbp
	.seh_setframe	%rbp, 0
	subq	$48, %rsp
	.seh_stackalloc	48
	.seh_endprologue
	movq	%rcx, 16(%rbp)
	movq	16(%rbp), %rax
	movq	%rax, -8(%rbp)
	movq	-8(%rbp), %rax
	movq	%rax, %rcx
	call	_ZNSt15__new_allocatorIN3cpr6CookieEED2Ev
	nop
	nop
	addq	$48, %rsp
	popq	%rbp
	ret
	.seh_endproc
	.section	.text$_ZN3cpr6CookieD1Ev,"x"
	.linkonce discard
	.align 2
	.globl	_ZN3cpr6CookieD1Ev
	.def	_ZN3cpr6CookieD1Ev;	.scl	2;	.type	32;	.endef
	.seh_proc	_ZN3cpr6CookieD1Ev
_ZN3cpr6CookieD1Ev:
.LFB11622:
	pushq	%rbp
	.seh_pushreg	%rbp
	movq	%rsp, %rbp
	.seh_setframe	%rbp, 0
	subq	$32, %rsp
	.seh_stackalloc	32
	.seh_endprologue
	movq	%rcx, 16(%rbp)
	movq	16(%rbp), %rax
	addq	$104, %rax
	movq	%rax, %rcx
	call	_ZNSt7__cxx1112basic_stringIcSt11char_traitsIcESaIcEED1Ev
	movq	16(%rbp), %rax
	addq	$64, %rax
	movq	%rax, %rcx
	call	_ZNSt7__cxx1112basic_stringIcSt11char_traitsIcESaIcEED1Ev
	movq	16(%rbp), %rax
	addq	$32, %rax
	movq	%rax, %rcx
	call	_ZNSt7__cxx1112basic_stringIcSt11char_traitsIcESaIcEED1Ev
	movq	16(%rbp), %rax
	movq	%rax, %rcx
	call	_ZNSt7__cxx1112basic_stringIcSt11char_traitsIcESaIcEED1Ev
	nop
	addq	$32, %rsp
	popq	%rbp
	ret
	.seh_endproc
	.section	.text$_ZN3cpr12StringHolderINS_3UrlEED2Ev,"x"
	.linkonce discard
	.align 2
	.globl	_ZN3cpr12StringHolderINS_3UrlEED2Ev
	.def	_ZN3cpr12StringHolderINS_3UrlEED2Ev;	.scl	2;	.type	32;	.endef
	.seh_proc	_ZN3cpr12StringHolderINS_3UrlEED2Ev
_ZN3cpr12StringHolderINS_3UrlEED2Ev:
.LFB11677:
	pushq	%rbp
	.seh_pushreg	%rbp
	movq	%rsp, %rbp
	.seh_setframe	%rbp, 0
	subq	$32, %rsp
	.seh_stackalloc	32
	.seh_endprologue
	movq	%rcx, 16(%rbp)
	leaq	16+_ZTVN3cpr12StringHolderINS_3UrlEEE(%rip), %rdx
	movq	16(%rbp), %rax
	movq	%rdx, (%rax)
	movq	16(%rbp), %rax
	addq	$8, %rax
	movq	%rax, %rcx
	call	_ZNSt7__cxx1112basic_stringIcSt11char_traitsIcESaIcEED1Ev
	nop
	addq	$32, %rsp
	popq	%rbp
	ret
	.seh_endproc
	.section	.text$_ZN3cpr12StringHolderINS_3UrlEED1Ev,"x"
	.linkonce discard
	.align 2
	.globl	_ZN3cpr12StringHolderINS_3UrlEED1Ev
	.def	_ZN3cpr12StringHolderINS_3UrlEED1Ev;	.scl	2;	.type	32;	.endef
	.seh_proc	_ZN3cpr12StringHolderINS_3UrlEED1Ev
_ZN3cpr12StringHolderINS_3UrlEED1Ev:
.LFB11678:
	pushq	%rbp
	.seh_pushreg	%rbp
	movq	%rsp, %rbp
	.seh_setframe	%rbp, 0
	subq	$32, %rsp
	.seh_stackalloc	32
	.seh_endprologue
	movq	%rcx, 16(%rbp)
	leaq	16+_ZTVN3cpr12StringHolderINS_3UrlEEE(%rip), %rdx
	movq	16(%rbp), %rax
	movq	%rdx, (%rax)
	movq	16(%rbp), %rax
	addq	$8, %rax
	movq	%rax, %rcx
	call	_ZNSt7__cxx1112basic_stringIcSt11char_traitsIcESaIcEED1Ev
	nop
	addq	$32, %rsp
	popq	%rbp
	ret
	.seh_endproc
	.section	.text$_ZN3cpr12StringHolderINS_3UrlEED0Ev,"x"
	.linkonce discard
	.align 2
	.globl	_ZN3cpr12StringHolderINS_3UrlEED0Ev
	.def	_ZN3cpr12StringHolderINS_3UrlEED0Ev;	.scl	2;	.type	32;	.endef
	.seh_proc	_ZN3cpr12StringHolderINS_3UrlEED0Ev
_ZN3cpr12StringHolderINS_3UrlEED0Ev:
.LFB11679:
	pushq	%rbp
	.seh_pushreg	%rbp
	movq	%rsp, %rbp
	.seh_setframe	%rbp, 0
	subq	$32, %rsp
	.seh_stackalloc	32
	.seh_endprologue
	movq	%rcx, 16(%rbp)
	movq	16(%rbp), %rax
	movq	%rax, %rcx
	call	_ZN3cpr12StringHolderINS_3UrlEED1Ev
	movq	16(%rbp), %rax
	movl	$40, %edx
	movq	%rax, %rcx
	call	_ZdlPvy
	nop
	addq	$32, %rsp
	popq	%rbp
	ret
	.seh_endproc
	.section	.text$_ZN3cpr3UrlC1ENSt7__cxx1112basic_stringIcSt11char_traitsIcESaIcEEE,"x"
	.linkonce discard
	.align 2
	.globl	_ZN3cpr3UrlC1ENSt7__cxx1112basic_stringIcSt11char_traitsIcESaIcEEE
	.def	_ZN3cpr3UrlC1ENSt7__cxx1112basic_stringIcSt11char_traitsIcESaIcEEE;	.scl	2;	.type	32;	.endef
	.seh_proc	_ZN3cpr3UrlC1ENSt7__cxx1112basic_stringIcSt11char_traitsIcESaIcEEE
_ZN3cpr3UrlC1ENSt7__cxx1112basic_stringIcSt11char_traitsIcESaIcEEE:
.LFB11681:
	pushq	%rbp
	.seh_pushreg	%rbp
	pushq	%rbx
	.seh_pushreg	%rbx
	subq	$72, %rsp
	.seh_stackalloc	72
	leaq	64(%rsp), %rbp
	.seh_setframe	%rbp, 64
	.seh_endprologue
	movq	%rcx, 32(%rbp)
	movq	%rdx, 40(%rbp)
	movq	32(%rbp), %rbx
	movq	40(%rbp), %rax
	movq	%rax, %rcx
	call	_ZSt4moveIRNSt7__cxx1112basic_stringIcSt11char_traitsIcESaIcEEEEONSt16remove_referenceIT_E4typeEOS8_
	movq	%rax, %rdx
	leaq	-32(%rbp), %rax
	movq	%rax, %rcx
	call	_ZNSt7__cxx1112basic_stringIcSt11char_traitsIcESaIcEEC1EOS4_
	leaq	-32(%rbp), %rax
	movq	%rax, %rdx
	movq	%rbx, %rcx
	call	_ZN3cpr12StringHolderINS_3UrlEEC2ENSt7__cxx1112basic_stringIcSt11char_traitsIcESaIcEEE
	leaq	-32(%rbp), %rax
	movq	%rax, %rcx
	call	_ZNSt7__cxx1112basic_stringIcSt11char_traitsIcESaIcEED1Ev
	leaq	16+_ZTVN3cpr3UrlE(%rip), %rdx
	movq	32(%rbp), %rax
	movq	%rdx, (%rax)
	nop
	addq	$72, %rsp
	popq	%rbx
	popq	%rbp
	ret
	.seh_endproc
	.section	.text$_ZN3cpr5ErrorC1ERKiONSt7__cxx1112basic_stringIcSt11char_traitsIcESaIcEEE,"x"
	.linkonce discard
	.align 2
	.globl	_ZN3cpr5ErrorC1ERKiONSt7__cxx1112basic_stringIcSt11char_traitsIcESaIcEEE
	.def	_ZN3cpr5ErrorC1ERKiONSt7__cxx1112basic_stringIcSt11char_traitsIcESaIcEEE;	.scl	2;	.type	32;	.endef
	.seh_proc	_ZN3cpr5ErrorC1ERKiONSt7__cxx1112basic_stringIcSt11char_traitsIcESaIcEEE
_ZN3cpr5ErrorC1ERKiONSt7__cxx1112basic_stringIcSt11char_traitsIcESaIcEEE:
.LFB11696:
	pushq	%rbp
	.seh_pushreg	%rbp
	pushq	%rbx
	.seh_pushreg	%rbx
	subq	$40, %rsp
	.seh_stackalloc	40
	leaq	32(%rsp), %rbp
	.seh_setframe	%rbp, 32
	.seh_endprologue
	movq	%rcx, 32(%rbp)
	movq	%rdx, 40(%rbp)
	movq	%r8, 48(%rbp)
	movq	40(%rbp), %rax
	movl	(%rax), %eax
	movl	%eax, %ecx
	call	_ZN3cpr5Error24getErrorCodeForCurlErrorEi
	movq	32(%rbp), %rdx
	movl	%eax, (%rdx)
	movq	32(%rbp), %rax
	leaq	8(%rax), %rbx
	movq	48(%rbp), %rax
	movq	%rax, %rcx
	call	_ZSt4moveIRNSt7__cxx1112basic_stringIcSt11char_traitsIcESaIcEEEEONSt16remove_referenceIT_E4typeEOS8_
	movq	%rax, %rdx
	movq	%rbx, %rcx
	call	_ZNSt7__cxx1112basic_stringIcSt11char_traitsIcESaIcEEC1EOS4_
	nop
	addq	$40, %rsp
	popq	%rbx
	popq	%rbp
	ret
	.seh_endproc
	.section	.text$_ZNSt8functionIFbPcRyxEED1Ev,"x"
	.linkonce discard
	.align 2
	.globl	_ZNSt8functionIFbPcRyxEED1Ev
	.def	_ZNSt8functionIFbPcRyxEED1Ev;	.scl	2;	.type	32;	.endef
	.seh_proc	_ZNSt8functionIFbPcRyxEED1Ev
_ZNSt8functionIFbPcRyxEED1Ev:
.LFB12401:
	pushq	%rbp
	.seh_pushreg	%rbp
	movq	%rsp, %rbp
	.seh_setframe	%rbp, 0
	subq	$32, %rsp
	.seh_stackalloc	32
	.seh_endprologue
	movq	%rcx, 16(%rbp)
	movq	16(%rbp), %rax
	movq	%rax, %rcx
	call	_ZNSt14_Function_baseD2Ev
	nop
	addq	$32, %rsp
	popq	%rbp
	ret
	.seh_endproc
	.section	.text$_ZNSt8functionIFbNSt7__cxx1112basic_stringIcSt11char_traitsIcESaIcEEExEED1Ev,"x"
	.linkonce discard
	.align 2
	.globl	_ZNSt8functionIFbNSt7__cxx1112basic_stringIcSt11char_traitsIcESaIcEEExEED1Ev
	.def	_ZNSt8functionIFbNSt7__cxx1112basic_stringIcSt11char_traitsIcESaIcEEExEED1Ev;	.scl	2;	.type	32;	.endef
	.seh_proc	_ZNSt8functionIFbNSt7__cxx1112basic_stringIcSt11char_traitsIcESaIcEEExEED1Ev
_ZNSt8functionIFbNSt7__cxx1112basic_stringIcSt11char_traitsIcESaIcEEExEED1Ev:
.LFB12411:
	pushq	%rbp
	.seh_pushreg	%rbp
	movq	%rsp, %rbp
	.seh_setframe	%rbp, 0
	subq	$32, %rsp
	.seh_stackalloc	32
	.seh_endprologue
	movq	%rcx, 16(%rbp)
	movq	16(%rbp), %rax
	movq	%rax, %rcx
	call	_ZNSt14_Function_baseD2Ev
	nop
	addq	$32, %rsp
	popq	%rbp
	ret
	.seh_endproc
	.section	.text$_ZNSt8functionIFbxxxxxEED1Ev,"x"
	.linkonce discard
	.align 2
	.globl	_ZNSt8functionIFbxxxxxEED1Ev
	.def	_ZNSt8functionIFbxxxxxEED1Ev;	.scl	2;	.type	32;	.endef
	.seh_proc	_ZNSt8functionIFbxxxxxEED1Ev
_ZNSt8functionIFbxxxxxEED1Ev:
.LFB12422:
	pushq	%rbp
	.seh_pushreg	%rbp
	movq	%rsp, %rbp
	.seh_setframe	%rbp, 0
	subq	$32, %rsp
	.seh_stackalloc	32
	.seh_endprologue
	movq	%rcx, 16(%rbp)
	movq	16(%rbp), %rax
	movq	%rax, %rcx
	call	_ZNSt14_Function_baseD2Ev
	nop
	addq	$32, %rsp
	popq	%rbp
	ret
	.seh_endproc
	.section	.text$_ZNK3cpr16ProgressCallbackclExxxx,"x"
	.linkonce discard
	.align 2
	.globl	_ZNK3cpr16ProgressCallbackclExxxx
	.def	_ZNK3cpr16ProgressCallbackclExxxx;	.scl	2;	.type	32;	.endef
	.seh_proc	_ZNK3cpr16ProgressCallbackclExxxx
_ZNK3cpr16ProgressCallbackclExxxx:
.LFB12425:
	pushq	%rbp
	.seh_pushreg	%rbp
	movq	%rsp, %rbp
	.seh_setframe	%rbp, 0
	subq	$48, %rsp
	.seh_stackalloc	48
	.seh_endprologue
	movq	%rcx, 16(%rbp)
	movq	%rdx, 24(%rbp)
	movq	%r8, 32(%rbp)
	movq	%r9, 40(%rbp)
	movq	16(%rbp), %rax
	leaq	8(%rax), %rcx
	movq	16(%rbp), %rax
	movq	(%rax), %rdx
	movq	40(%rbp), %r9
	movq	32(%rbp), %r8
	movq	24(%rbp), %rax
	movq	%rdx, 40(%rsp)
	movq	48(%rbp), %rdx
	movq	%rdx, 32(%rsp)
	movq	%rax, %rdx
	call	_ZNKSt8functionIFbxxxxxEEclExxxxx
	addq	$48, %rsp
	popq	%rbp
	ret
	.seh_endproc
	.section	.text$_ZNSt8functionIFvN3cpr13DebugCallback8InfoTypeENSt7__cxx1112basic_stringIcSt11char_traitsIcESaIcEEExEED1Ev,"x"
	.linkonce discard
	.align 2
	.globl	_ZNSt8functionIFvN3cpr13DebugCallback8InfoTypeENSt7__cxx1112basic_stringIcSt11char_traitsIcESaIcEEExEED1Ev
	.def	_ZNSt8functionIFvN3cpr13DebugCallback8InfoTypeENSt7__cxx1112basic_stringIcSt11char_traitsIcESaIcEEExEED1Ev;	.scl	2;	.type	32;	.endef
	.seh_proc	_ZNSt8functionIFvN3cpr13DebugCallback8InfoTypeENSt7__cxx1112basic_stringIcSt11char_traitsIcESaIcEEExEED1Ev
_ZNSt8functionIFvN3cpr13DebugCallback8InfoTypeENSt7__cxx1112basic_stringIcSt11char_traitsIcESaIcEEExEED1Ev:
.LFB12429:
	pushq	%rbp
	.seh_pushreg	%rbp
	movq	%rsp, %rbp
	.seh_setframe	%rbp, 0
	subq	$32, %rsp
	.seh_stackalloc	32
	.seh_endprologue
	movq	%rcx, 16(%rbp)
	movq	16(%rbp), %rax
	movq	%rax, %rcx
	call	_ZNSt14_Function_baseD2Ev
	nop
	addq	$32, %rsp
	popq	%rbp
	ret
	.seh_endproc
	.section	.text$_ZNSt12__shared_ptrISt6atomicIbELN9__gnu_cxx12_Lock_policyE2EED2Ev,"x"
	.linkonce discard
	.align 2
	.globl	_ZNSt12__shared_ptrISt6atomicIbELN9__gnu_cxx12_Lock_policyE2EED2Ev
	.def	_ZNSt12__shared_ptrISt6atomicIbELN9__gnu_cxx12_Lock_policyE2EED2Ev;	.scl	2;	.type	32;	.endef
	.seh_proc	_ZNSt12__shared_ptrISt6atomicIbELN9__gnu_cxx12_Lock_policyE2EED2Ev
_ZNSt12__shared_ptrISt6atomicIbELN9__gnu_cxx12_Lock_policyE2EED2Ev:
.LFB12437:
	pushq	%rbp
	.seh_pushreg	%rbp
	movq	%rsp, %rbp
	.seh_setframe	%rbp, 0
	subq	$32, %rsp
	.seh_stackalloc	32
	.seh_endprologue
	movq	%rcx, 16(%rbp)
	movq	16(%rbp), %rax
	addq	$8, %rax
	movq	%rax, %rcx
	call	_ZNSt14__shared_countILN9__gnu_cxx12_Lock_policyE2EED1Ev
	nop
	addq	$32, %rsp
	popq	%rbp
	ret
	.seh_endproc
	.section	.text$_ZNSt12__shared_ptrISt6atomicIbELN9__gnu_cxx12_Lock_policyE2EED1Ev,"x"
	.linkonce discard
	.align 2
	.globl	_ZNSt12__shared_ptrISt6atomicIbELN9__gnu_cxx12_Lock_policyE2EED1Ev
	.def	_ZNSt12__shared_ptrISt6atomicIbELN9__gnu_cxx12_Lock_policyE2EED1Ev;	.scl	2;	.type	32;	.endef
	.seh_proc	_ZNSt12__shared_ptrISt6atomicIbELN9__gnu_cxx12_Lock_policyE2EED1Ev
_ZNSt12__shared_ptrISt6atomicIbELN9__gnu_cxx12_Lock_policyE2EED1Ev:
.LFB12438:
	pushq	%rbp
	.seh_pushreg	%rbp
	movq	%rsp, %rbp
	.seh_setframe	%rbp, 0
	subq	$32, %rsp
	.seh_stackalloc	32
	.seh_endprologue
	movq	%rcx, 16(%rbp)
	movq	16(%rbp), %rax
	addq	$8, %rax
	movq	%rax, %rcx
	call	_ZNSt14__shared_countILN9__gnu_cxx12_Lock_policyE2EED1Ev
	nop
	addq	$32, %rsp
	popq	%rbp
	ret
	.seh_endproc
	.section	.text$_ZNSt10shared_ptrISt6atomicIbEED1Ev,"x"
	.linkonce discard
	.align 2
	.globl	_ZNSt10shared_ptrISt6atomicIbEED1Ev
	.def	_ZNSt10shared_ptrISt6atomicIbEED1Ev;	.scl	2;	.type	32;	.endef
	.seh_proc	_ZNSt10shared_ptrISt6atomicIbEED1Ev
_ZNSt10shared_ptrISt6atomicIbEED1Ev:
.LFB12440:
	pushq	%rbp
	.seh_pushreg	%rbp
	movq	%rsp, %rbp
	.seh_setframe	%rbp, 0
	subq	$32, %rsp
	.seh_stackalloc	32
	.seh_endprologue
	movq	%rcx, 16(%rbp)
	movq	16(%rbp), %rax
	movq	%rax, %rcx
	call	_ZNSt12__shared_ptrISt6atomicIbELN9__gnu_cxx12_Lock_policyE2EED2Ev
	nop
	addq	$32, %rsp
	popq	%rbp
	ret
	.seh_endproc
	.section	.text$_ZN3cpr20CancellationCallbackC1EOSt10shared_ptrISt6atomicIbEE,"x"
	.linkonce discard
	.align 2
	.globl	_ZN3cpr20CancellationCallbackC1EOSt10shared_ptrISt6atomicIbEE
	.def	_ZN3cpr20CancellationCallbackC1EOSt10shared_ptrISt6atomicIbEE;	.scl	2;	.type	32;	.endef
	.seh_proc	_ZN3cpr20CancellationCallbackC1EOSt10shared_ptrISt6atomicIbEE
_ZN3cpr20CancellationCallbackC1EOSt10shared_ptrISt6atomicIbEE:
.LFB12442:
	pushq	%rbp
	.seh_pushreg	%rbp
	pushq	%rbx
	.seh_pushreg	%rbx
	subq	$40, %rsp
	.seh_stackalloc	40
	leaq	32(%rsp), %rbp
	.seh_setframe	%rbp, 32
	.seh_endprologue
	movq	%rcx, 32(%rbp)
	movq	%rdx, 40(%rbp)
	movq	32(%rbp), %rbx
	movq	40(%rbp), %rax
	movq	%rax, %rcx
	call	_ZSt4moveIRSt10shared_ptrISt6atomicIbEEEONSt16remove_referenceIT_E4typeEOS6_
	movq	%rax, %rdx
	movq	%rbx, %rcx
	call	_ZNSt10shared_ptrISt6atomicIbEEC1EOS2_
	movq	32(%rbp), %rax
	addq	$16, %rax
	movq	%rax, %rcx
	call	_ZNSt8optionalISt17reference_wrapperIN3cpr16ProgressCallbackEEEC1Ev
	nop
	addq	$40, %rsp
	popq	%rbx
	popq	%rbp
	ret
	.seh_endproc
	.section	.text$_ZNK3cpr9VerifySslcvbEv,"x"
	.linkonce discard
	.align 2
	.globl	_ZNK3cpr9VerifySslcvbEv
	.def	_ZNK3cpr9VerifySslcvbEv;	.scl	2;	.type	32;	.endef
	.seh_proc	_ZNK3cpr9VerifySslcvbEv
_ZNK3cpr9VerifySslcvbEv:
.LFB12450:
	pushq	%rbp
	.seh_pushreg	%rbp
	movq	%rsp, %rbp
	.seh_setframe	%rbp, 0
	.seh_endprologue
	movq	%rcx, 16(%rbp)
	movq	16(%rbp), %rax
	movzbl	(%rax), %eax
	popq	%rbp
	ret
	.seh_endproc
	.section	.text$_ZNSt8_Rb_treeINSt7__cxx1112basic_stringIcSt11char_traitsIcESaIcEEESt4pairIKS5_S5_ESt10_Select1stIS8_EN3cpr22CaseInsensitiveCompareESaIS8_EE13_Rb_tree_implISC_Lb1EED1Ev,"x"
	.linkonce discard
	.align 2
	.globl	_ZNSt8_Rb_treeINSt7__cxx1112basic_stringIcSt11char_traitsIcESaIcEEESt4pairIKS5_S5_ESt10_Select1stIS8_EN3cpr22CaseInsensitiveCompareESaIS8_EE13_Rb_tree_implISC_Lb1EED1Ev
	.def	_ZNSt8_Rb_treeINSt7__cxx1112basic_stringIcSt11char_traitsIcESaIcEEESt4pairIKS5_S5_ESt10_Select1stIS8_EN3cpr22CaseInsensitiveCompareESaIS8_EE13_Rb_tree_implISC_Lb1EED1Ev;	.scl	2;	.type	32;	.endef
	.seh_proc	_ZNSt8_Rb_treeINSt7__cxx1112basic_stringIcSt11char_traitsIcESaIcEEESt4pairIKS5_S5_ESt10_Select1stIS8_EN3cpr22CaseInsensitiveCompareESaIS8_EE13_Rb_tree_implISC_Lb1EED1Ev
_ZNSt8_Rb_treeINSt7__cxx1112basic_stringIcSt11char_traitsIcESaIcEEESt4pairIKS5_S5_ESt10_Select1stIS8_EN3cpr22CaseInsensitiveCompareESaIS8_EE13_Rb_tree_implISC_Lb1EED1Ev:
.LFB12576:
	pushq	%rbp
	.seh_pushreg	%rbp
	movq	%rsp, %rbp
	.seh_setframe	%rbp, 0
	subq	$48, %rsp
	.seh_stackalloc	48
	.seh_endprologue
	movq	%rcx, 16(%rbp)
	movq	16(%rbp), %rax
	movq	%rax, -8(%rbp)
	movq	-8(%rbp), %rax
	movq	%rax, %rcx
	call	_ZNSt15__new_allocatorISt13_Rb_tree_nodeISt4pairIKNSt7__cxx1112basic_stringIcSt11char_traitsIcESaIcEEES7_EEED2Ev
	nop
	nop
	addq	$48, %rsp
	popq	%rbp
	ret
	.seh_endproc
	.section	.text$_ZNSt8_Rb_treeINSt7__cxx1112basic_stringIcSt11char_traitsIcESaIcEEESt4pairIKS5_S5_ESt10_Select1stIS8_EN3cpr22CaseInsensitiveCompareESaIS8_EEC1Ev,"x"
	.linkonce discard
	.align 2
	.globl	_ZNSt8_Rb_treeINSt7__cxx1112basic_stringIcSt11char_traitsIcESaIcEEESt4pairIKS5_S5_ESt10_Select1stIS8_EN3cpr22CaseInsensitiveCompareESaIS8_EEC1Ev
	.def	_ZNSt8_Rb_treeINSt7__cxx1112basic_stringIcSt11char_traitsIcESaIcEEESt4pairIKS5_S5_ESt10_Select1stIS8_EN3cpr22CaseInsensitiveCompareESaIS8_EEC1Ev;	.scl	2;	.type	32;	.endef
	.seh_proc	_ZNSt8_Rb_treeINSt7__cxx1112basic_stringIcSt11char_traitsIcESaIcEEESt4pairIKS5_S5_ESt10_Select1stIS8_EN3cpr22CaseInsensitiveCompareESaIS8_EEC1Ev
_ZNSt8_Rb_treeINSt7__cxx1112basic_stringIcSt11char_traitsIcESaIcEEESt4pairIKS5_S5_ESt10_Select1stIS8_EN3cpr22CaseInsensitiveCompareESaIS8_EEC1Ev:
.LFB12578:
	pushq	%rbp
	.seh_pushreg	%rbp
	movq	%rsp, %rbp
	.seh_setframe	%rbp, 0
	subq	$32, %rsp
	.seh_stackalloc	32
	.seh_endprologue
	movq	%rcx, 16(%rbp)
	movq	16(%rbp), %rax
	movq	%rax, %rcx
	call	_ZNSt8_Rb_treeINSt7__cxx1112basic_stringIcSt11char_traitsIcESaIcEEESt4pairIKS5_S5_ESt10_Select1stIS8_EN3cpr22CaseInsensitiveCompareESaIS8_EE13_Rb_tree_implISC_Lb1EEC1Ev
	nop
	addq	$32, %rsp
	popq	%rbp
	ret
	.seh_endproc
	.section	.text$_ZNSt3mapINSt7__cxx1112basic_stringIcSt11char_traitsIcESaIcEEES5_N3cpr22CaseInsensitiveCompareESaISt4pairIKS5_S5_EEEC1Ev,"x"
	.linkonce discard
	.align 2
	.globl	_ZNSt3mapINSt7__cxx1112basic_stringIcSt11char_traitsIcESaIcEEES5_N3cpr22CaseInsensitiveCompareESaISt4pairIKS5_S5_EEEC1Ev
	.def	_ZNSt3mapINSt7__cxx1112basic_stringIcSt11char_traitsIcESaIcEEES5_N3cpr22CaseInsensitiveCompareESaISt4pairIKS5_S5_EEEC1Ev;	.scl	2;	.type	32;	.endef
	.seh_proc	_ZNSt3mapINSt7__cxx1112basic_stringIcSt11char_traitsIcESaIcEEES5_N3cpr22CaseInsensitiveCompareESaISt4pairIKS5_S5_EEEC1Ev
_ZNSt3mapINSt7__cxx1112basic_stringIcSt11char_traitsIcESaIcEEES5_N3cpr22CaseInsensitiveCompareESaISt4pairIKS5_S5_EEEC1Ev:
.LFB12580:
	pushq	%rbp
	.seh_pushreg	%rbp
	movq	%rsp, %rbp
	.seh_setframe	%rbp, 0
	subq	$32, %rsp
	.seh_stackalloc	32
	.seh_endprologue
	movq	%rcx, 16(%rbp)
	movq	16(%rbp), %rax
	movq	%rax, %rcx
	call	_ZNSt8_Rb_treeINSt7__cxx1112basic_stringIcSt11char_traitsIcESaIcEEESt4pairIKS5_S5_ESt10_Select1stIS8_EN3cpr22CaseInsensitiveCompareESaIS8_EEC1Ev
	nop
	addq	$32, %rsp
	popq	%rbp
	ret
	.seh_endproc
	.section	.text$_ZN3cpr12StringHolderINS_3UrlEEC2Ev,"x"
	.linkonce discard
	.align 2
	.globl	_ZN3cpr12StringHolderINS_3UrlEEC2Ev
	.def	_ZN3cpr12StringHolderINS_3UrlEEC2Ev;	.scl	2;	.type	32;	.endef
	.seh_proc	_ZN3cpr12StringHolderINS_3UrlEEC2Ev
_ZN3cpr12StringHolderINS_3UrlEEC2Ev:
.LFB12583:
	pushq	%rbp
	.seh_pushreg	%rbp
	movq	%rsp, %rbp
	.seh_setframe	%rbp, 0
	subq	$32, %rsp
	.seh_stackalloc	32
	.seh_endprologue
	movq	%rcx, 16(%rbp)
	leaq	16+_ZTVN3cpr12StringHolderINS_3UrlEEE(%rip), %rdx
	movq	16(%rbp), %rax
	movq	%rdx, (%rax)
	movq	16(%rbp), %rax
	addq	$8, %rax
	movq	%rax, %rcx
	call	_ZNSt7__cxx1112basic_stringIcSt11char_traitsIcESaIcEEC1Ev
	nop
	addq	$32, %rsp
	popq	%rbp
	ret
	.seh_endproc
	.section	.text$_ZN3cpr3UrlC1Ev,"x"
	.linkonce discard
	.align 2
	.globl	_ZN3cpr3UrlC1Ev
	.def	_ZN3cpr3UrlC1Ev;	.scl	2;	.type	32;	.endef
	.seh_proc	_ZN3cpr3UrlC1Ev
_ZN3cpr3UrlC1Ev:
.LFB12586:
	pushq	%rbp
	.seh_pushreg	%rbp
	movq	%rsp, %rbp
	.seh_setframe	%rbp, 0
	subq	$32, %rsp
	.seh_stackalloc	32
	.seh_endprologue
	movq	%rcx, 16(%rbp)
	movq	16(%rbp), %rax
	movq	%rax, %rcx
	call	_ZN3cpr12StringHolderINS_3UrlEEC2Ev
	leaq	16+_ZTVN3cpr3UrlE(%rip), %rdx
	movq	16(%rbp), %rax
	movq	%rdx, (%rax)
	nop
	addq	$32, %rsp
	popq	%rbp
	ret
	.seh_endproc
	.section	.text$_ZNK3cpr4File20hasOverridenFilenameEv,"x"
	.linkonce discard
	.align 2
	.globl	_ZNK3cpr4File20hasOverridenFilenameEv
	.def	_ZNK3cpr4File20hasOverridenFilenameEv;	.scl	2;	.type	32;	.endef
	.seh_proc	_ZNK3cpr4File20hasOverridenFilenameEv
_ZNK3cpr4File20hasOverridenFilenameEv:
.LFB12612:
	pushq	%rbp
	.seh_pushreg	%rbp
	movq	%rsp, %rbp
	.seh_setframe	%rbp, 0
	subq	$32, %rsp
	.seh_stackalloc	32
	.seh_endprologue
	movq	%rcx, 16(%rbp)
	movq	16(%rbp), %rax
	addq	$32, %rax
	movq	%rax, %rcx
	call	_ZNKSt7__cxx1112basic_stringIcSt11char_traitsIcESaIcEE5emptyEv
	xorl	$1, %eax
	addq	$32, %rsp
	popq	%rbp
	ret
	.seh_endproc
	.section	.text$_ZNSt3mapINSt7__cxx1112basic_stringIcSt11char_traitsIcESaIcEEEN3cpr21EncodedAuthenticationESt4lessIS5_ESaISt4pairIKS5_S7_EEED1Ev,"x"
	.linkonce discard
	.align 2
	.globl	_ZNSt3mapINSt7__cxx1112basic_stringIcSt11char_traitsIcESaIcEEEN3cpr21EncodedAuthenticationESt4lessIS5_ESaISt4pairIKS5_S7_EEED1Ev
	.def	_ZNSt3mapINSt7__cxx1112basic_stringIcSt11char_traitsIcESaIcEEEN3cpr21EncodedAuthenticationESt4lessIS5_ESaISt4pairIKS5_S7_EEED1Ev;	.scl	2;	.type	32;	.endef
	.seh_proc	_ZNSt3mapINSt7__cxx1112basic_stringIcSt11char_traitsIcESaIcEEEN3cpr21EncodedAuthenticationESt4lessIS5_ESaISt4pairIKS5_S7_EEED1Ev
_ZNSt3mapINSt7__cxx1112basic_stringIcSt11char_traitsIcESaIcEEEN3cpr21EncodedAuthenticationESt4lessIS5_ESaISt4pairIKS5_S7_EEED1Ev:
.LFB12756:
	pushq	%rbp
	.seh_pushreg	%rbp
	movq	%rsp, %rbp
	.seh_setframe	%rbp, 0
	subq	$32, %rsp
	.seh_stackalloc	32
	.seh_endprologue
	movq	%rcx, 16(%rbp)
	movq	16(%rbp), %rax
	movq	%rax, %rcx
	call	_ZNSt8_Rb_treeINSt7__cxx1112basic_stringIcSt11char_traitsIcESaIcEEESt4pairIKS5_N3cpr21EncodedAuthenticationEESt10_Select1stISA_ESt4lessIS5_ESaISA_EED1Ev
	nop
	addq	$32, %rsp
	popq	%rbp
	ret
	.seh_endproc
	.section .rdata,"dr"
.LC1:
	.ascii "\0"
.LC2:
	.ascii "-\0"
	.section	.text$_ZNK3cpr5Range3strB5cxx11Ev,"x"
	.linkonce discard
	.align 2
	.globl	_ZNK3cpr5Range3strB5cxx11Ev
	.def	_ZNK3cpr5Range3strB5cxx11Ev;	.scl	2;	.type	32;	.endef
	.seh_proc	_ZNK3cpr5Range3strB5cxx11Ev
_ZNK3cpr5Range3strB5cxx11Ev:
.LFB12768:
	pushq	%rbp
	.seh_pushreg	%rbp
	pushq	%rsi
	.seh_pushreg	%rsi
	pushq	%rbx
	.seh_pushreg	%rbx
	subq	$160, %rsp
	.seh_stackalloc	160
	leaq	160(%rsp), %rbp
	.seh_setframe	%rbp, 160
	.seh_endprologue
	movq	%rcx, 32(%rbp)
	movq	%rdx, 40(%rbp)
	movq	40(%rbp), %rax
	movq	(%rax), %rax
	movl	$0, %ebx
	testq	%rax, %rax
	jns	.L227
	leaq	-50(%rbp), %rax
	movq	%rax, -8(%rbp)
	nop
	nop
	movl	$1, %ebx
	leaq	-50(%rbp), %rdx
	leaq	-96(%rbp), %rax
	movq	%rdx, %r8
	leaq	.LC1(%rip), %rdx
	movq	%rax, %rcx
.LEHB15:
	call	_ZNSt7__cxx1112basic_stringIcSt11char_traitsIcESaIcEEC1IS3_EEPKcRKS3_
	jmp	.L228
.L227:
	movq	40(%rbp), %rax
	movq	(%rax), %rdx
	leaq	-96(%rbp), %rax
	movq	%rax, %rcx
	call	_ZNSt7__cxx119to_stringEx
.LEHE15:
.L228:
	testb	%bl, %bl
	je	.L229
	leaq	-50(%rbp), %rax
	movq	%rax, %rcx
	call	_ZNSt15__new_allocatorIcED2Ev
	nop
.L229:
	movq	40(%rbp), %rax
	movq	8(%rax), %rax
	movl	$0, %ebx
	testq	%rax, %rax
	jns	.L230
	leaq	-49(%rbp), %rax
	movq	%rax, -16(%rbp)
	nop
	nop
	movl	$1, %ebx
	leaq	-49(%rbp), %rdx
	leaq	-128(%rbp), %rax
	movq	%rdx, %r8
	leaq	.LC1(%rip), %rdx
	movq	%rax, %rcx
.LEHB16:
	call	_ZNSt7__cxx1112basic_stringIcSt11char_traitsIcESaIcEEC1IS3_EEPKcRKS3_
	jmp	.L231
.L230:
	movq	40(%rbp), %rax
	movq	8(%rax), %rdx
	leaq	-128(%rbp), %rax
	movq	%rax, %rcx
	call	_ZNSt7__cxx119to_stringEx
.LEHE16:
.L231:
	testb	%bl, %bl
	je	.L232
	leaq	-49(%rbp), %rax
	movq	%rax, %rcx
	call	_ZNSt15__new_allocatorIcED2Ev
	nop
.L232:
	leaq	-48(%rbp), %rax
	leaq	-96(%rbp), %rdx
	leaq	.LC2(%rip), %r8
	movq	%rax, %rcx
.LEHB17:
	call	_ZStplIcSt11char_traitsIcESaIcEENSt7__cxx1112basic_stringIT_T0_T1_EERKS8_PKS5_
.LEHE17:
	movq	32(%rbp), %rax
	leaq	-128(%rbp), %rcx
	leaq	-48(%rbp), %rdx
	movq	%rcx, %r8
	movq	%rax, %rcx
.LEHB18:
	call	_ZStplIcSt11char_traitsIcESaIcEENSt7__cxx1112basic_stringIT_T0_T1_EEOS8_RKS8_
.LEHE18:
	nop
	leaq	-48(%rbp), %rax
	movq	%rax, %rcx
	call	_ZNSt7__cxx1112basic_stringIcSt11char_traitsIcESaIcEED1Ev
	leaq	-128(%rbp), %rax
	movq	%rax, %rcx
	call	_ZNSt7__cxx1112basic_stringIcSt11char_traitsIcESaIcEED1Ev
	leaq	-96(%rbp), %rax
	movq	%rax, %rcx
	call	_ZNSt7__cxx1112basic_stringIcSt11char_traitsIcESaIcEED1Ev
	jmp	.L245
.L241:
	movq	%rax, %rsi
	testb	%bl, %bl
	je	.L235
	leaq	-50(%rbp), %rax
	movq	%rax, %rcx
	call	_ZNSt15__new_allocatorIcED2Ev
	nop
.L235:
	movq	%rsi, %rax
	movq	%rax, %rcx
.LEHB19:
	call	_Unwind_Resume
.L242:
	movq	%rax, %rsi
	testb	%bl, %bl
	je	.L237
	leaq	-49(%rbp), %rax
	movq	%rax, %rcx
	call	_ZNSt15__new_allocatorIcED2Ev
	nop
.L237:
	movq	%rsi, %rbx
	jmp	.L238
.L244:
	movq	%rax, %rbx
	leaq	-48(%rbp), %rax
	movq	%rax, %rcx
	call	_ZNSt7__cxx1112basic_stringIcSt11char_traitsIcESaIcEED1Ev
	jmp	.L240
.L243:
	movq	%rax, %rbx
.L240:
	leaq	-128(%rbp), %rax
	movq	%rax, %rcx
	call	_ZNSt7__cxx1112basic_stringIcSt11char_traitsIcESaIcEED1Ev
.L238:
	leaq	-96(%rbp), %rax
	movq	%rax, %rcx
	call	_ZNSt7__cxx1112basic_stringIcSt11char_traitsIcESaIcEED1Ev
	movq	%rbx, %rax
	movq	%rax, %rcx
	call	_Unwind_Resume
.LEHE19:
.L245:
	movq	32(%rbp), %rax
	addq	$160, %rsp
	popq	%rbx
	popq	%rsi
	popq	%rbp
	ret
	.seh_handler	__gxx_personality_seh0, @unwind, @except
	.seh_handlerdata
.LLSDA12768:
	.byte	0xff
	.byte	0xff
	.byte	0x1
	.uleb128 .LLSDACSE12768-.LLSDACSB12768
.LLSDACSB12768:
	.uleb128 .LEHB15-.LFB12768
	.uleb128 .LEHE15-.LEHB15
	.uleb128 .L241-.LFB12768
	.uleb128 0
	.uleb128 .LEHB16-.LFB12768
	.uleb128 .LEHE16-.LEHB16
	.uleb128 .L242-.LFB12768
	.uleb128 0
	.uleb128 .LEHB17-.LFB12768
	.uleb128 .LEHE17-.LEHB17
	.uleb128 .L243-.LFB12768
	.uleb128 0
	.uleb128 .LEHB18-.LFB12768
	.uleb128 .LEHE18-.LEHB18
	.uleb128 .L244-.LFB12768
	.uleb128 0
	.uleb128 .LEHB19-.LFB12768
	.uleb128 .LEHE19-.LEHB19
	.uleb128 0
	.uleb128 0
.LLSDACSE12768:
	.section	.text$_ZNK3cpr5Range3strB5cxx11Ev,"x"
	.linkonce discard
	.seh_endproc
	.section .rdata,"dr"
.LC3:
	.ascii ", \0"
	.section	.text$_ZNK3cpr10MultiRange3strB5cxx11Ev,"x"
	.linkonce discard
	.align 2
	.globl	_ZNK3cpr10MultiRange3strB5cxx11Ev
	.def	_ZNK3cpr10MultiRange3strB5cxx11Ev;	.scl	2;	.type	32;	.endef
	.seh_proc	_ZNK3cpr10MultiRange3strB5cxx11Ev
_ZNK3cpr10MultiRange3strB5cxx11Ev:
.LFB12772:
	pushq	%rbp
	.seh_pushreg	%rbp
	pushq	%rbx
	.seh_pushreg	%rbx
	subq	$152, %rsp
	.seh_stackalloc	152
	leaq	144(%rsp), %rbp
	.seh_setframe	%rbp, 144
	.seh_endprologue
	movq	%rcx, 32(%rbp)
	movq	%rdx, 40(%rbp)
	movq	32(%rbp), %rax
	movq	%rax, %rcx
	call	_ZNSt7__cxx1112basic_stringIcSt11char_traitsIcESaIcEEC1Ev
	movq	40(%rbp), %rax
	movq	%rax, -8(%rbp)
	movq	-8(%rbp), %rax
	movq	%rax, %rcx
	call	_ZNKSt6vectorIN3cpr5RangeESaIS1_EE5beginEv
	movq	%rax, -104(%rbp)
	movq	-8(%rbp), %rax
	movq	%rax, %rcx
	call	_ZNKSt6vectorIN3cpr5RangeESaIS1_EE3endEv
	movq	%rax, -112(%rbp)
	jmp	.L247
.L250:
	leaq	-104(%rbp), %rax
	movq	%rax, %rcx
	call	_ZNK9__gnu_cxx17__normal_iteratorIPKN3cpr5RangeESt6vectorIS2_SaIS2_EEEdeEv
	movq	8(%rax), %rdx
	movq	(%rax), %rax
	movq	%rax, -96(%rbp)
	movq	%rdx, -88(%rbp)
	leaq	-48(%rbp), %rax
	leaq	-96(%rbp), %rdx
	movq	%rax, %rcx
.LEHB20:
	call	_ZNK3cpr5Range3strB5cxx11Ev
.LEHE20:
	movq	32(%rbp), %rax
	movq	%rax, %rcx
	call	_ZNKSt7__cxx1112basic_stringIcSt11char_traitsIcESaIcEE5emptyEv
	testb	%al, %al
	je	.L248
	leaq	.LC1(%rip), %rax
	jmp	.L249
.L248:
	leaq	.LC3(%rip), %rax
.L249:
	leaq	-80(%rbp), %rcx
	leaq	-48(%rbp), %rdx
	movq	%rdx, %r8
	movq	%rax, %rdx
.LEHB21:
	call	_ZStplIcSt11char_traitsIcESaIcEENSt7__cxx1112basic_stringIT_T0_T1_EEPKS5_RKS8_
.LEHE21:
	leaq	-80(%rbp), %rdx
	movq	32(%rbp), %rax
	movq	%rax, %rcx
.LEHB22:
	call	_ZNSt7__cxx1112basic_stringIcSt11char_traitsIcESaIcEEpLERKS4_
.LEHE22:
	leaq	-80(%rbp), %rax
	movq	%rax, %rcx
	call	_ZNSt7__cxx1112basic_stringIcSt11char_traitsIcESaIcEED1Ev
	leaq	-48(%rbp), %rax
	movq	%rax, %rcx
	call	_ZNSt7__cxx1112basic_stringIcSt11char_traitsIcESaIcEED1Ev
	leaq	-104(%rbp), %rax
	movq	%rax, %rcx
	call	_ZN9__gnu_cxx17__normal_iteratorIPKN3cpr5RangeESt6vectorIS2_SaIS2_EEEppEv
.L247:
	leaq	-112(%rbp), %rdx
	leaq	-104(%rbp), %rax
	movq	%rax, %rcx
	call	_ZN9__gnu_cxxneIPKN3cpr5RangeESt6vectorIS2_SaIS2_EEEEbRKNS_17__normal_iteratorIT_T0_EESD_
	testb	%al, %al
	jne	.L250
	jmp	.L258
.L257:
	movq	%rax, %rbx
	leaq	-80(%rbp), %rax
	movq	%rax, %rcx
	call	_ZNSt7__cxx1112basic_stringIcSt11char_traitsIcESaIcEED1Ev
	jmp	.L253
.L256:
	movq	%rax, %rbx
.L253:
	leaq	-48(%rbp), %rax
	movq	%rax, %rcx
	call	_ZNSt7__cxx1112basic_stringIcSt11char_traitsIcESaIcEED1Ev
	jmp	.L254
.L255:
	movq	%rax, %rbx
.L254:
	movq	32(%rbp), %rax
	movq	%rax, %rcx
	call	_ZNSt7__cxx1112basic_stringIcSt11char_traitsIcESaIcEED1Ev
	movq	%rbx, %rax
	movq	%rax, %rcx
.LEHB23:
	call	_Unwind_Resume
.LEHE23:
.L258:
	movq	32(%rbp), %rax
	addq	$152, %rsp
	popq	%rbx
	popq	%rbp
	ret
	.seh_handler	__gxx_personality_seh0, @unwind, @except
	.seh_handlerdata
.LLSDA12772:
	.byte	0xff
	.byte	0xff
	.byte	0x1
	.uleb128 .LLSDACSE12772-.LLSDACSB12772
.LLSDACSB12772:
	.uleb128 .LEHB20-.LFB12772
	.uleb128 .LEHE20-.LEHB20
	.uleb128 .L255-.LFB12772
	.uleb128 0
	.uleb128 .LEHB21-.LFB12772
	.uleb128 .LEHE21-.LEHB21
	.uleb128 .L256-.LFB12772
	.uleb128 0
	.uleb128 .LEHB22-.LFB12772
	.uleb128 .LEHE22-.LEHB22
	.uleb128 .L257-.LFB12772
	.uleb128 0
	.uleb128 .LEHB23-.LFB12772
	.uleb128 .LEHE23-.LEHB23
	.uleb128 0
	.uleb128 0
.LLSDACSE12772:
	.section	.text$_ZNK3cpr10MultiRange3strB5cxx11Ev,"x"
	.linkonce discard
	.seh_endproc
	.section	.text$_ZN3cpr11ReserveSizeC1Ey,"x"
	.linkonce discard
	.align 2
	.globl	_ZN3cpr11ReserveSizeC1Ey
	.def	_ZN3cpr11ReserveSizeC1Ey;	.scl	2;	.type	32;	.endef
	.seh_proc	_ZN3cpr11ReserveSizeC1Ey
_ZN3cpr11ReserveSizeC1Ey:
.LFB12790:
	pushq	%rbp
	.seh_pushreg	%rbp
	movq	%rsp, %rbp
	.seh_setframe	%rbp, 0
	.seh_endprologue
	movq	%rcx, 16(%rbp)
	movq	%rdx, 24(%rbp)
	movq	16(%rbp), %rax
	movq	24(%rbp), %rdx
	movq	%rdx, (%rax)
	nop
	popq	%rbp
	ret
	.seh_endproc
	.section	.text$_ZNSt3setItSt4lessItESaItEED1Ev,"x"
	.linkonce discard
	.align 2
	.globl	_ZNSt3setItSt4lessItESaItEED1Ev
	.def	_ZNSt3setItSt4lessItESaItEED1Ev;	.scl	2;	.type	32;	.endef
	.seh_proc	_ZNSt3setItSt4lessItESaItEED1Ev
_ZNSt3setItSt4lessItESaItEED1Ev:
.LFB12937:
	pushq	%rbp
	.seh_pushreg	%rbp
	movq	%rsp, %rbp
	.seh_setframe	%rbp, 0
	subq	$32, %rsp
	.seh_stackalloc	32
	.seh_endprologue
	movq	%rcx, 16(%rbp)
	movq	16(%rbp), %rax
	movq	%rax, %rcx
	call	_ZNSt8_Rb_treeIttSt9_IdentityItESt4lessItESaItEED1Ev
	nop
	addq	$32, %rsp
	popq	%rbp
	ret
	.seh_endproc
	.section	.text$_ZNSt3setItSt4lessItESaItEEC1ERKS3_,"x"
	.linkonce discard
	.align 2
	.globl	_ZNSt3setItSt4lessItESaItEEC1ERKS3_
	.def	_ZNSt3setItSt4lessItESaItEEC1ERKS3_;	.scl	2;	.type	32;	.endef
	.seh_proc	_ZNSt3setItSt4lessItESaItEEC1ERKS3_
_ZNSt3setItSt4lessItESaItEEC1ERKS3_:
.LFB12941:
	pushq	%rbp
	.seh_pushreg	%rbp
	movq	%rsp, %rbp
	.seh_setframe	%rbp, 0
	subq	$32, %rsp
	.seh_stackalloc	32
	.seh_endprologue
	movq	%rcx, 16(%rbp)
	movq	%rdx, 24(%rbp)
	movq	16(%rbp), %rax
	movq	24(%rbp), %rdx
	movq	%rax, %rcx
	call	_ZNSt8_Rb_treeIttSt9_IdentityItESt4lessItESaItEEC1ERKS5_
	nop
	addq	$32, %rsp
	popq	%rbp
	ret
	.seh_endproc
	.section .rdata,"dr"
	.align 8
_ZL38CPR_DEFAULT_THREAD_POOL_MIN_THREAD_NUM:
	.quad	1
	.align 8
_ZL37CPR_DEFAULT_THREAD_POOL_MAX_IDLE_TIME:
	.quad	60000
	.align 4
_ZN3cprL2ONE:
	.long	1
	.align 4
_ZN3cprL3OFFE:
	.space 4
	.align 8
.LC4:
	.ascii "curl_easy_perform cannot be executed if the CURL handle is used in a MultiPerform.\0"
	.text
	.align 2
	.globl	_ZN3cpr7Session13DoEasyPerformEv
	.def	_ZN3cpr7Session13DoEasyPerformEv;	.scl	2;	.type	32;	.endef
	.seh_proc	_ZN3cpr7Session13DoEasyPerformEv
_ZN3cpr7Session13DoEasyPerformEv:
.LFB13400:
	pushq	%rbp
	.seh_pushreg	%rbp
	movq	%rsp, %rbp
	.seh_setframe	%rbp, 0
	subq	$32, %rsp
	.seh_stackalloc	32
	.seh_endprologue
	movq	%rcx, 16(%rbp)
	movq	16(%rbp), %rax
	movzbl	704(%rax), %eax
	testb	%al, %al
	je	.L263
	leaq	.LC4(%rip), %rax
	movq	%rax, %rdx
	movq	.refptr._ZSt4cerr(%rip), %rax
	movq	%rax, %rcx
	call	_ZStlsISt11char_traitsIcEERSt13basic_ostreamIcT_ES5_PKc
	movq	%rax, %rcx
	movq	.refptr._ZSt4endlIcSt11char_traitsIcEERSt13basic_ostreamIT_T0_ES6_(%rip), %rax
	movq	%rax, %rdx
	call	_ZNSolsEPFRSoS_E
	movl	$2, %eax
	jmp	.L264
.L263:
	movq	16(%rbp), %rax
	addq	$24, %rax
	movq	%rax, %rcx
	call	_ZNKSt19__shared_ptr_accessIN3cpr10CurlHolderELN9__gnu_cxx12_Lock_policyE2ELb0ELb0EEptEv
	movq	(%rax), %rax
	movq	%rax, %rcx
	movq	__imp_curl_easy_perform(%rip), %rax
	call	*%rax
	nop
.L264:
	addq	$32, %rsp
	popq	%rbp
	ret
	.seh_endproc
	.section .rdata,"dr"
.LC5:
	.ascii ";\0"
.LC6:
	.ascii ": \0"
.LC7:
	.ascii "Transfer-Encoding\0"
.LC8:
	.ascii "Transfer-Encoding:chunked\0"
.LC9:
	.ascii "Expect:\0"
	.text
	.align 2
	.globl	_ZN3cpr7Session17SetHeaderInternalEv
	.def	_ZN3cpr7Session17SetHeaderInternalEv;	.scl	2;	.type	32;	.endef
	.seh_proc	_ZN3cpr7Session17SetHeaderInternalEv
_ZN3cpr7Session17SetHeaderInternalEv:
.LFB13401:
	pushq	%rbp
	.seh_pushreg	%rbp
	pushq	%rdi
	.seh_pushreg	%rdi
	pushq	%rsi
	.seh_pushreg	%rsi
	pushq	%rbx
	.seh_pushreg	%rbx
	subq	$232, %rsp
	.seh_stackalloc	232
	leaq	224(%rsp), %rbp
	.seh_setframe	%rbp, 224
	.seh_endprologue
	movq	%rcx, 48(%rbp)
	movq	$0, -8(%rbp)
	movq	48(%rbp), %rax
	addq	$208, %rax
	movq	%rax, -16(%rbp)
	movq	-16(%rbp), %rax
	movq	%rax, %rcx
	call	_ZNSt3mapINSt7__cxx1112basic_stringIcSt11char_traitsIcESaIcEEES5_N3cpr22CaseInsensitiveCompareESaISt4pairIKS5_S5_EEE5beginEv
	movq	%rax, -152(%rbp)
	movq	-16(%rbp), %rax
	movq	%rax, %rcx
	call	_ZNSt3mapINSt7__cxx1112basic_stringIcSt11char_traitsIcESaIcEEES5_N3cpr22CaseInsensitiveCompareESaISt4pairIKS5_S5_EEE3endEv
	movq	%rax, -160(%rbp)
	jmp	.L266
.L270:
	leaq	-152(%rbp), %rax
	movq	%rax, %rcx
	call	_ZNKSt17_Rb_tree_iteratorISt4pairIKNSt7__cxx1112basic_stringIcSt11char_traitsIcESaIcEEES6_EEdeEv
	movq	%rax, -40(%rbp)
	movq	-40(%rbp), %rdx
	leaq	-192(%rbp), %rax
	movq	%rax, %rcx
.LEHB24:
	call	_ZNSt7__cxx1112basic_stringIcSt11char_traitsIcESaIcEEC1ERKS4_
.LEHE24:
	movq	-40(%rbp), %rax
	addq	$32, %rax
	movq	%rax, %rcx
	call	_ZNKSt7__cxx1112basic_stringIcSt11char_traitsIcESaIcEE5emptyEv
	testb	%al, %al
	je	.L267
	leaq	-192(%rbp), %rax
	leaq	.LC5(%rip), %rdx
	movq	%rax, %rcx
.LEHB25:
	call	_ZNSt7__cxx1112basic_stringIcSt11char_traitsIcESaIcEEpLEPKc
	jmp	.L268
.L267:
	movq	-40(%rbp), %rax
	leaq	32(%rax), %rdx
	leaq	-144(%rbp), %rax
	movq	%rdx, %r8
	leaq	.LC6(%rip), %rdx
	movq	%rax, %rcx
	call	_ZStplIcSt11char_traitsIcESaIcEENSt7__cxx1112basic_stringIT_T0_T1_EEPKS5_RKS8_
.LEHE25:
	leaq	-144(%rbp), %rdx
	leaq	-192(%rbp), %rax
	movq	%rax, %rcx
.LEHB26:
	call	_ZNSt7__cxx1112basic_stringIcSt11char_traitsIcESaIcEEpLERKS4_
.LEHE26:
	leaq	-144(%rbp), %rax
	movq	%rax, %rcx
	call	_ZNSt7__cxx1112basic_stringIcSt11char_traitsIcESaIcEED1Ev
.L268:
	leaq	-192(%rbp), %rax
	movq	%rax, %rcx
	call	_ZNKSt7__cxx1112basic_stringIcSt11char_traitsIcESaIcEE5c_strEv
	movq	%rax, %rdx
	movq	-8(%rbp), %rax
	movq	%rax, %rcx
	movq	__imp_curl_slist_append(%rip), %rax
.LEHB27:
	call	*%rax
.LEHE27:
	movq	%rax, -48(%rbp)
	cmpq	$0, -48(%rbp)
	je	.L269
	movq	-48(%rbp), %rax
	movq	%rax, -8(%rbp)
.L269:
	leaq	-192(%rbp), %rax
	movq	%rax, %rcx
	call	_ZNSt7__cxx1112basic_stringIcSt11char_traitsIcESaIcEED1Ev
	leaq	-152(%rbp), %rax
	movq	%rax, %rcx
	call	_ZNSt17_Rb_tree_iteratorISt4pairIKNSt7__cxx1112basic_stringIcSt11char_traitsIcESaIcEEES6_EEppEv
.L266:
	leaq	-160(%rbp), %rdx
	leaq	-152(%rbp), %rax
	movq	%rax, %rcx
	call	_ZStneRKSt17_Rb_tree_iteratorISt4pairIKNSt7__cxx1112basic_stringIcSt11char_traitsIcESaIcEEES6_EESB_
	testb	%al, %al
	jne	.L270
	movl	$0, %ebx
	movl	$0, %esi
	movq	48(%rbp), %rax
	movzbl	17(%rax), %eax
	testb	%al, %al
	je	.L271
	movq	48(%rbp), %rax
	addq	$208, %rax
	movq	%rax, %rcx
	call	_ZNSt3mapINSt7__cxx1112basic_stringIcSt11char_traitsIcESaIcEEES5_N3cpr22CaseInsensitiveCompareESaISt4pairIKS5_S5_EEE3endEv
	movq	%rax, -112(%rbp)
	movq	48(%rbp), %rax
	leaq	208(%rax), %rdi
	leaq	-57(%rbp), %rax
	movq	%rax, -56(%rbp)
	nop
	nop
	movl	$1, %ebx
	leaq	-57(%rbp), %rdx
	leaq	-96(%rbp), %rax
	movq	%rdx, %r8
	leaq	.LC7(%rip), %rdx
	movq	%rax, %rcx
.LEHB28:
	call	_ZNSt7__cxx1112basic_stringIcSt11char_traitsIcESaIcEEC1IS3_EEPKcRKS3_
	movl	$1, %esi
	leaq	-96(%rbp), %rax
	movq	%rax, %rdx
	movq	%rdi, %rcx
	call	_ZNSt3mapINSt7__cxx1112basic_stringIcSt11char_traitsIcESaIcEEES5_N3cpr22CaseInsensitiveCompareESaISt4pairIKS5_S5_EEE4findERS9_
.LEHE28:
	movq	%rax, -104(%rbp)
	leaq	-112(%rbp), %rdx
	leaq	-104(%rbp), %rax
	movq	%rax, %rcx
	call	_ZSteqRKSt17_Rb_tree_iteratorISt4pairIKNSt7__cxx1112basic_stringIcSt11char_traitsIcESaIcEEES6_EESB_
	testb	%al, %al
	je	.L271
	movl	$1, %edi
	jmp	.L272
.L271:
	movl	$0, %edi
.L272:
	testb	%sil, %sil
	je	.L273
	leaq	-96(%rbp), %rax
	movq	%rax, %rcx
	call	_ZNSt7__cxx1112basic_stringIcSt11char_traitsIcESaIcEED1Ev
.L273:
	testb	%bl, %bl
	je	.L274
	leaq	-57(%rbp), %rax
	movq	%rax, %rcx
	call	_ZNSt15__new_allocatorIcED2Ev
	nop
.L274:
	testb	%dil, %dil
	je	.L275
	movq	-8(%rbp), %rax
	leaq	.LC8(%rip), %rdx
	movq	%rax, %rcx
	movq	__imp_curl_slist_append(%rip), %rax
.LEHB29:
	call	*%rax
	movq	%rax, -24(%rbp)
	cmpq	$0, -24(%rbp)
	je	.L275
	movq	-24(%rbp), %rax
	movq	%rax, -8(%rbp)
.L275:
	movq	-8(%rbp), %rax
	leaq	.LC9(%rip), %rdx
	movq	%rax, %rcx
	movq	__imp_curl_slist_append(%rip), %rax
	call	*%rax
	movq	%rax, -32(%rbp)
	cmpq	$0, -32(%rbp)
	je	.L276
	movq	-32(%rbp), %rax
	movq	%rax, -8(%rbp)
.L276:
	movq	48(%rbp), %rax
	addq	$24, %rax
	movq	%rax, %rcx
	call	_ZNKSt19__shared_ptr_accessIN3cpr10CurlHolderELN9__gnu_cxx12_Lock_policyE2ELb0ELb0EEptEv
	movq	(%rax), %rax
	movq	-8(%rbp), %rdx
	movq	%rdx, %r8
	movl	$10023, %edx
	movq	%rax, %rcx
	movq	__imp_curl_easy_setopt(%rip), %rax
	call	*%rax
	movq	48(%rbp), %rax
	addq	$24, %rax
	movq	%rax, %rcx
	call	_ZNKSt19__shared_ptr_accessIN3cpr10CurlHolderELN9__gnu_cxx12_Lock_policyE2ELb0ELb0EEptEv
	movq	8(%rax), %rax
	movq	%rax, %rcx
	movq	__imp_curl_slist_free_all(%rip), %rax
	call	*%rax
	movq	-8(%rbp), %rbx
	movq	48(%rbp), %rax
	addq	$24, %rax
	movq	%rax, %rcx
	call	_ZNKSt19__shared_ptr_accessIN3cpr10CurlHolderELN9__gnu_cxx12_Lock_policyE2ELb0ELb0EEptEv
	movq	%rbx, 8(%rax)
	jmp	.L285
.L283:
	movq	%rax, %rbx
	leaq	-144(%rbp), %rax
	movq	%rax, %rcx
	call	_ZNSt7__cxx1112basic_stringIcSt11char_traitsIcESaIcEED1Ev
	jmp	.L278
.L282:
	movq	%rax, %rbx
.L278:
	leaq	-192(%rbp), %rax
	movq	%rax, %rcx
	call	_ZNSt7__cxx1112basic_stringIcSt11char_traitsIcESaIcEED1Ev
	movq	%rbx, %rax
	movq	%rax, %rcx
	call	_Unwind_Resume
.L284:
	movq	%rax, %rdi
	testb	%sil, %sil
	je	.L280
	leaq	-96(%rbp), %rax
	movq	%rax, %rcx
	call	_ZNSt7__cxx1112basic_stringIcSt11char_traitsIcESaIcEED1Ev
.L280:
	movq	%rdi, %rsi
	testb	%bl, %bl
	je	.L281
	leaq	-57(%rbp), %rax
	movq	%rax, %rcx
	call	_ZNSt15__new_allocatorIcED2Ev
	nop
.L281:
	movq	%rsi, %rax
	movq	%rax, %rcx
	call	_Unwind_Resume
	nop
.LEHE29:
.L285:
	addq	$232, %rsp
	popq	%rbx
	popq	%rsi
	popq	%rdi
	popq	%rbp
	ret
	.seh_handler	__gxx_personality_seh0, @unwind, @except
	.seh_handlerdata
.LLSDA13401:
	.byte	0xff
	.byte	0xff
	.byte	0x1
	.uleb128 .LLSDACSE13401-.LLSDACSB13401
.LLSDACSB13401:
	.uleb128 .LEHB24-.LFB13401
	.uleb128 .LEHE24-.LEHB24
	.uleb128 0
	.uleb128 0
	.uleb128 .LEHB25-.LFB13401
	.uleb128 .LEHE25-.LEHB25
	.uleb128 .L282-.LFB13401
	.uleb128 0
	.uleb128 .LEHB26-.LFB13401
	.uleb128 .LEHE26-.LEHB26
	.uleb128 .L283-.LFB13401
	.uleb128 0
	.uleb128 .LEHB27-.LFB13401
	.uleb128 .LEHE27-.LEHB27
	.uleb128 .L282-.LFB13401
	.uleb128 0
	.uleb128 .LEHB28-.LFB13401
	.uleb128 .LEHE28-.LEHB28
	.uleb128 .L284-.LFB13401
	.uleb128 0
	.uleb128 .LEHB29-.LFB13401
	.uleb128 .LEHE29-.LEHB29
	.uleb128 0
	.uleb128 0
.LLSDACSE13401:
	.text
	.seh_endproc
	.align 2
	.globl	_ZN3cpr7Session9SetBearerERKNS_6BearerE
	.def	_ZN3cpr7Session9SetBearerERKNS_6BearerE;	.scl	2;	.type	32;	.endef
	.seh_proc	_ZN3cpr7Session9SetBearerERKNS_6BearerE
_ZN3cpr7Session9SetBearerERKNS_6BearerE:
.LFB13402:
	pushq	%rbp
	.seh_pushreg	%rbp
	pushq	%rbx
	.seh_pushreg	%rbx
	subq	$40, %rsp
	.seh_stackalloc	40
	leaq	32(%rsp), %rbp
	.seh_setframe	%rbp, 32
	.seh_endprologue
	movq	%rcx, 32(%rbp)
	movq	%rdx, 40(%rbp)
	movq	32(%rbp), %rax
	addq	$24, %rax
	movq	%rax, %rcx
	call	_ZNKSt19__shared_ptr_accessIN3cpr10CurlHolderELN9__gnu_cxx12_Lock_policyE2ELb0ELb0EEptEv
	movq	(%rax), %rax
	movl	$64, %r8d
	movl	$107, %edx
	movq	%rax, %rcx
	movq	__imp_curl_easy_setopt(%rip), %rax
	call	*%rax
	movq	40(%rbp), %rax
	movq	(%rax), %rax
	addq	$16, %rax
	movq	(%rax), %rdx
	movq	40(%rbp), %rax
	movq	%rax, %rcx
	call	*%rdx
	movq	%rax, %rbx
	movq	32(%rbp), %rax
	addq	$24, %rax
	movq	%rax, %rcx
	call	_ZNKSt19__shared_ptr_accessIN3cpr10CurlHolderELN9__gnu_cxx12_Lock_policyE2ELb0ELb0EEptEv
	movq	(%rax), %rax
	movq	%rbx, %r8
	movl	$10220, %edx
	movq	%rax, %rcx
	movq	__imp_curl_easy_setopt(%rip), %rax
	call	*%rax
	nop
	addq	$40, %rsp
	popq	%rbx
	popq	%rbp
	ret
	.seh_endproc
	.section	.text$_ZNSt12__shared_ptrIN3cpr10CurlHolderELN9__gnu_cxx12_Lock_policyE2EED2Ev,"x"
	.linkonce discard
	.align 2
	.globl	_ZNSt12__shared_ptrIN3cpr10CurlHolderELN9__gnu_cxx12_Lock_policyE2EED2Ev
	.def	_ZNSt12__shared_ptrIN3cpr10CurlHolderELN9__gnu_cxx12_Lock_policyE2EED2Ev;	.scl	2;	.type	32;	.endef
	.seh_proc	_ZNSt12__shared_ptrIN3cpr10CurlHolderELN9__gnu_cxx12_Lock_policyE2EED2Ev
_ZNSt12__shared_ptrIN3cpr10CurlHolderELN9__gnu_cxx12_Lock_policyE2EED2Ev:
.LFB13407:
	pushq	%rbp
	.seh_pushreg	%rbp
	movq	%rsp, %rbp
	.seh_setframe	%rbp, 0
	subq	$32, %rsp
	.seh_stackalloc	32
	.seh_endprologue
	movq	%rcx, 16(%rbp)
	movq	16(%rbp), %rax
	addq	$8, %rax
	movq	%rax, %rcx
	call	_ZNSt14__shared_countILN9__gnu_cxx12_Lock_policyE2EED1Ev
	nop
	addq	$32, %rsp
	popq	%rbp
	ret
	.seh_endproc
	.section	.text$_ZNSt10shared_ptrIN3cpr10CurlHolderEED1Ev,"x"
	.linkonce discard
	.align 2
	.globl	_ZNSt10shared_ptrIN3cpr10CurlHolderEED1Ev
	.def	_ZNSt10shared_ptrIN3cpr10CurlHolderEED1Ev;	.scl	2;	.type	32;	.endef
	.seh_proc	_ZNSt10shared_ptrIN3cpr10CurlHolderEED1Ev
_ZNSt10shared_ptrIN3cpr10CurlHolderEED1Ev:
.LFB13410:
	pushq	%rbp
	.seh_pushreg	%rbp
	movq	%rsp, %rbp
	.seh_setframe	%rbp, 0
	subq	$32, %rsp
	.seh_stackalloc	32
	.seh_endprologue
	movq	%rcx, 16(%rbp)
	movq	16(%rbp), %rax
	movq	%rax, %rcx
	call	_ZNSt12__shared_ptrIN3cpr10CurlHolderELN9__gnu_cxx12_Lock_policyE2EED2Ev
	nop
	addq	$32, %rsp
	popq	%rbp
	ret
	.seh_endproc
	.section	.text$_ZN3cpr3UrlD1Ev,"x"
	.linkonce discard
	.align 2
	.globl	_ZN3cpr3UrlD1Ev
	.def	_ZN3cpr3UrlD1Ev;	.scl	2;	.type	32;	.endef
	.seh_proc	_ZN3cpr3UrlD1Ev
_ZN3cpr3UrlD1Ev:
.LFB13413:
	pushq	%rbp
	.seh_pushreg	%rbp
	movq	%rsp, %rbp
	.seh_setframe	%rbp, 0
	subq	$32, %rsp
	.seh_stackalloc	32
	.seh_endprologue
	movq	%rcx, 16(%rbp)
	leaq	16+_ZTVN3cpr3UrlE(%rip), %rdx
	movq	16(%rbp), %rax
	movq	%rdx, (%rax)
	movq	16(%rbp), %rax
	movq	%rax, %rcx
	call	_ZN3cpr12StringHolderINS_3UrlEED2Ev
	nop
	addq	$32, %rsp
	popq	%rbp
	ret
	.seh_endproc
	.section	.text$_ZN3cpr3UrlD0Ev,"x"
	.linkonce discard
	.align 2
	.globl	_ZN3cpr3UrlD0Ev
	.def	_ZN3cpr3UrlD0Ev;	.scl	2;	.type	32;	.endef
	.seh_proc	_ZN3cpr3UrlD0Ev
_ZN3cpr3UrlD0Ev:
.LFB13414:
	pushq	%rbp
	.seh_pushreg	%rbp
	movq	%rsp, %rbp
	.seh_setframe	%rbp, 0
	subq	$32, %rsp
	.seh_stackalloc	32
	.seh_endprologue
	movq	%rcx, 16(%rbp)
	movq	16(%rbp), %rax
	movq	%rax, %rcx
	call	_ZN3cpr3UrlD1Ev
	movq	16(%rbp), %rax
	movl	$40, %edx
	movq	%rax, %rcx
	call	_ZdlPvy
	nop
	addq	$32, %rsp
	popq	%rbp
	ret
	.seh_endproc
	.section	.text$_ZNSt12_Vector_baseIN3cpr9ParameterESaIS1_EE12_Vector_implD1Ev,"x"
	.linkonce discard
	.align 2
	.globl	_ZNSt12_Vector_baseIN3cpr9ParameterESaIS1_EE12_Vector_implD1Ev
	.def	_ZNSt12_Vector_baseIN3cpr9ParameterESaIS1_EE12_Vector_implD1Ev;	.scl	2;	.type	32;	.endef
	.seh_proc	_ZNSt12_Vector_baseIN3cpr9ParameterESaIS1_EE12_Vector_implD1Ev
_ZNSt12_Vector_baseIN3cpr9ParameterESaIS1_EE12_Vector_implD1Ev:
.LFB13422:
	pushq	%rbp
	.seh_pushreg	%rbp
	movq	%rsp, %rbp
	.seh_setframe	%rbp, 0
	subq	$48, %rsp
	.seh_stackalloc	48
	.seh_endprologue
	movq	%rcx, 16(%rbp)
	movq	16(%rbp), %rax
	movq	%rax, -8(%rbp)
	movq	-8(%rbp), %rax
	movq	%rax, %rcx
	call	_ZNSt15__new_allocatorIN3cpr9ParameterEED2Ev
	nop
	nop
	addq	$48, %rsp
	popq	%rbp
	ret
	.seh_endproc
	.section	.text$_ZNSt12_Vector_baseIN3cpr9ParameterESaIS1_EEC2Ev,"x"
	.linkonce discard
	.align 2
	.globl	_ZNSt12_Vector_baseIN3cpr9ParameterESaIS1_EEC2Ev
	.def	_ZNSt12_Vector_baseIN3cpr9ParameterESaIS1_EEC2Ev;	.scl	2;	.type	32;	.endef
	.seh_proc	_ZNSt12_Vector_baseIN3cpr9ParameterESaIS1_EEC2Ev
_ZNSt12_Vector_baseIN3cpr9ParameterESaIS1_EEC2Ev:
.LFB13423:
	pushq	%rbp
	.seh_pushreg	%rbp
	movq	%rsp, %rbp
	.seh_setframe	%rbp, 0
	subq	$32, %rsp
	.seh_stackalloc	32
	.seh_endprologue
	movq	%rcx, 16(%rbp)
	movq	16(%rbp), %rax
	movq	%rax, %rcx
	call	_ZNSt12_Vector_baseIN3cpr9ParameterESaIS1_EE12_Vector_implC1Ev
	nop
	addq	$32, %rsp
	popq	%rbp
	ret
	.seh_endproc
	.section	.text$_ZNSt6vectorIN3cpr9ParameterESaIS1_EEC1Ev,"x"
	.linkonce discard
	.align 2
	.globl	_ZNSt6vectorIN3cpr9ParameterESaIS1_EEC1Ev
	.def	_ZNSt6vectorIN3cpr9ParameterESaIS1_EEC1Ev;	.scl	2;	.type	32;	.endef
	.seh_proc	_ZNSt6vectorIN3cpr9ParameterESaIS1_EEC1Ev
_ZNSt6vectorIN3cpr9ParameterESaIS1_EEC1Ev:
.LFB13426:
	pushq	%rbp
	.seh_pushreg	%rbp
	movq	%rsp, %rbp
	.seh_setframe	%rbp, 0
	subq	$32, %rsp
	.seh_stackalloc	32
	.seh_endprologue
	movq	%rcx, 16(%rbp)
	movq	16(%rbp), %rax
	movq	%rax, %rcx
	call	_ZNSt12_Vector_baseIN3cpr9ParameterESaIS1_EEC2Ev
	nop
	addq	$32, %rsp
	popq	%rbp
	ret
	.seh_endproc
	.section	.text$_ZN3cpr13CurlContainerINS_9ParameterEEC2Ev,"x"
	.linkonce discard
	.align 2
	.globl	_ZN3cpr13CurlContainerINS_9ParameterEEC2Ev
	.def	_ZN3cpr13CurlContainerINS_9ParameterEEC2Ev;	.scl	2;	.type	32;	.endef
	.seh_proc	_ZN3cpr13CurlContainerINS_9ParameterEEC2Ev
_ZN3cpr13CurlContainerINS_9ParameterEEC2Ev:
.LFB13427:
	pushq	%rbp
	.seh_pushreg	%rbp
	movq	%rsp, %rbp
	.seh_setframe	%rbp, 0
	subq	$32, %rsp
	.seh_stackalloc	32
	.seh_endprologue
	movq	%rcx, 16(%rbp)
	movq	16(%rbp), %rax
	movb	$1, (%rax)
	movq	16(%rbp), %rax
	addq	$8, %rax
	movq	%rax, %rcx
	call	_ZNSt6vectorIN3cpr9ParameterESaIS1_EEC1Ev
	nop
	addq	$32, %rsp
	popq	%rbp
	ret
	.seh_endproc
	.section	.text$_ZN3cpr13CurlContainerINS_9ParameterEED2Ev,"x"
	.linkonce discard
	.align 2
	.globl	_ZN3cpr13CurlContainerINS_9ParameterEED2Ev
	.def	_ZN3cpr13CurlContainerINS_9ParameterEED2Ev;	.scl	2;	.type	32;	.endef
	.seh_proc	_ZN3cpr13CurlContainerINS_9ParameterEED2Ev
_ZN3cpr13CurlContainerINS_9ParameterEED2Ev:
.LFB13430:
	pushq	%rbp
	.seh_pushreg	%rbp
	movq	%rsp, %rbp
	.seh_setframe	%rbp, 0
	subq	$32, %rsp
	.seh_stackalloc	32
	.seh_endprologue
	movq	%rcx, 16(%rbp)
	movq	16(%rbp), %rax
	addq	$8, %rax
	movq	%rax, %rcx
	call	_ZNSt6vectorIN3cpr9ParameterESaIS1_EED1Ev
	nop
	addq	$32, %rsp
	popq	%rbp
	ret
	.seh_endproc
	.section	.text$_ZN3cpr10ParametersC1Ev,"x"
	.linkonce discard
	.align 2
	.globl	_ZN3cpr10ParametersC1Ev
	.def	_ZN3cpr10ParametersC1Ev;	.scl	2;	.type	32;	.endef
	.seh_proc	_ZN3cpr10ParametersC1Ev
_ZN3cpr10ParametersC1Ev:
.LFB13433:
	pushq	%rbp
	.seh_pushreg	%rbp
	movq	%rsp, %rbp
	.seh_setframe	%rbp, 0
	subq	$32, %rsp
	.seh_stackalloc	32
	.seh_endprologue
	movq	%rcx, 16(%rbp)
	movq	16(%rbp), %rax
	movq	%rax, %rcx
	call	_ZN3cpr13CurlContainerINS_9ParameterEEC2Ev
	nop
	addq	$32, %rsp
	popq	%rbp
	ret
	.seh_endproc
	.section	.text$_ZN3cpr10ParametersD1Ev,"x"
	.linkonce discard
	.align 2
	.globl	_ZN3cpr10ParametersD1Ev
	.def	_ZN3cpr10ParametersD1Ev;	.scl	2;	.type	32;	.endef
	.seh_proc	_ZN3cpr10ParametersD1Ev
_ZN3cpr10ParametersD1Ev:
.LFB13436:
	pushq	%rbp
	.seh_pushreg	%rbp
	movq	%rsp, %rbp
	.seh_setframe	%rbp, 0
	subq	$32, %rsp
	.seh_stackalloc	32
	.seh_endprologue
	movq	%rcx, 16(%rbp)
	movq	16(%rbp), %rax
	movq	%rax, %rcx
	call	_ZN3cpr13CurlContainerINS_9ParameterEED2Ev
	nop
	addq	$32, %rsp
	popq	%rbp
	ret
	.seh_endproc
	.section	.text$_ZNSt8_Rb_treeINSt7__cxx1112basic_stringIcSt11char_traitsIcESaIcEEESt4pairIKS5_S5_ESt10_Select1stIS8_ESt4lessIS5_ESaIS8_EE13_Rb_tree_implISC_Lb1EED1Ev,"x"
	.linkonce discard
	.align 2
	.globl	_ZNSt8_Rb_treeINSt7__cxx1112basic_stringIcSt11char_traitsIcESaIcEEESt4pairIKS5_S5_ESt10_Select1stIS8_ESt4lessIS5_ESaIS8_EE13_Rb_tree_implISC_Lb1EED1Ev
	.def	_ZNSt8_Rb_treeINSt7__cxx1112basic_stringIcSt11char_traitsIcESaIcEEESt4pairIKS5_S5_ESt10_Select1stIS8_ESt4lessIS5_ESaIS8_EE13_Rb_tree_implISC_Lb1EED1Ev;	.scl	2;	.type	32;	.endef
	.seh_proc	_ZNSt8_Rb_treeINSt7__cxx1112basic_stringIcSt11char_traitsIcESaIcEEESt4pairIKS5_S5_ESt10_Select1stIS8_ESt4lessIS5_ESaIS8_EE13_Rb_tree_implISC_Lb1EED1Ev
_ZNSt8_Rb_treeINSt7__cxx1112basic_stringIcSt11char_traitsIcESaIcEEESt4pairIKS5_S5_ESt10_Select1stIS8_ESt4lessIS5_ESaIS8_EE13_Rb_tree_implISC_Lb1EED1Ev:
.LFB13444:
	pushq	%rbp
	.seh_pushreg	%rbp
	movq	%rsp, %rbp
	.seh_setframe	%rbp, 0
	subq	$48, %rsp
	.seh_stackalloc	48
	.seh_endprologue
	movq	%rcx, 16(%rbp)
	movq	16(%rbp), %rax
	movq	%rax, -8(%rbp)
	movq	-8(%rbp), %rax
	movq	%rax, %rcx
	call	_ZNSt15__new_allocatorISt13_Rb_tree_nodeISt4pairIKNSt7__cxx1112basic_stringIcSt11char_traitsIcESaIcEEES7_EEED2Ev
	nop
	nop
	addq	$48, %rsp
	popq	%rbp
	ret
	.seh_endproc
	.section	.text$_ZNSt8_Rb_treeINSt7__cxx1112basic_stringIcSt11char_traitsIcESaIcEEESt4pairIKS5_S5_ESt10_Select1stIS8_ESt4lessIS5_ESaIS8_EEC1Ev,"x"
	.linkonce discard
	.align 2
	.globl	_ZNSt8_Rb_treeINSt7__cxx1112basic_stringIcSt11char_traitsIcESaIcEEESt4pairIKS5_S5_ESt10_Select1stIS8_ESt4lessIS5_ESaIS8_EEC1Ev
	.def	_ZNSt8_Rb_treeINSt7__cxx1112basic_stringIcSt11char_traitsIcESaIcEEESt4pairIKS5_S5_ESt10_Select1stIS8_ESt4lessIS5_ESaIS8_EEC1Ev;	.scl	2;	.type	32;	.endef
	.seh_proc	_ZNSt8_Rb_treeINSt7__cxx1112basic_stringIcSt11char_traitsIcESaIcEEESt4pairIKS5_S5_ESt10_Select1stIS8_ESt4lessIS5_ESaIS8_EEC1Ev
_ZNSt8_Rb_treeINSt7__cxx1112basic_stringIcSt11char_traitsIcESaIcEEESt4pairIKS5_S5_ESt10_Select1stIS8_ESt4lessIS5_ESaIS8_EEC1Ev:
.LFB13446:
	pushq	%rbp
	.seh_pushreg	%rbp
	movq	%rsp, %rbp
	.seh_setframe	%rbp, 0
	subq	$32, %rsp
	.seh_stackalloc	32
	.seh_endprologue
	movq	%rcx, 16(%rbp)
	movq	16(%rbp), %rax
	movq	%rax, %rcx
	call	_ZNSt8_Rb_treeINSt7__cxx1112basic_stringIcSt11char_traitsIcESaIcEEESt4pairIKS5_S5_ESt10_Select1stIS8_ESt4lessIS5_ESaIS8_EE13_Rb_tree_implISC_Lb1EEC1Ev
	nop
	addq	$32, %rsp
	popq	%rbp
	ret
	.seh_endproc
	.section	.text$_ZNSt3mapINSt7__cxx1112basic_stringIcSt11char_traitsIcESaIcEEES5_St4lessIS5_ESaISt4pairIKS5_S5_EEEC1Ev,"x"
	.linkonce discard
	.align 2
	.globl	_ZNSt3mapINSt7__cxx1112basic_stringIcSt11char_traitsIcESaIcEEES5_St4lessIS5_ESaISt4pairIKS5_S5_EEEC1Ev
	.def	_ZNSt3mapINSt7__cxx1112basic_stringIcSt11char_traitsIcESaIcEEES5_St4lessIS5_ESaISt4pairIKS5_S5_EEEC1Ev;	.scl	2;	.type	32;	.endef
	.seh_proc	_ZNSt3mapINSt7__cxx1112basic_stringIcSt11char_traitsIcESaIcEEES5_St4lessIS5_ESaISt4pairIKS5_S5_EEEC1Ev
_ZNSt3mapINSt7__cxx1112basic_stringIcSt11char_traitsIcESaIcEEES5_St4lessIS5_ESaISt4pairIKS5_S5_EEEC1Ev:
.LFB13448:
	pushq	%rbp
	.seh_pushreg	%rbp
	movq	%rsp, %rbp
	.seh_setframe	%rbp, 0
	subq	$32, %rsp
	.seh_stackalloc	32
	.seh_endprologue
	movq	%rcx, 16(%rbp)
	movq	16(%rbp), %rax
	movq	%rax, %rcx
	call	_ZNSt8_Rb_treeINSt7__cxx1112basic_stringIcSt11char_traitsIcESaIcEEESt4pairIKS5_S5_ESt10_Select1stIS8_ESt4lessIS5_ESaIS8_EEC1Ev
	nop
	addq	$32, %rsp
	popq	%rbp
	ret
	.seh_endproc
	.section	.text$_ZNSt3mapINSt7__cxx1112basic_stringIcSt11char_traitsIcESaIcEEES5_St4lessIS5_ESaISt4pairIKS5_S5_EEED1Ev,"x"
	.linkonce discard
	.align 2
	.globl	_ZNSt3mapINSt7__cxx1112basic_stringIcSt11char_traitsIcESaIcEEES5_St4lessIS5_ESaISt4pairIKS5_S5_EEED1Ev
	.def	_ZNSt3mapINSt7__cxx1112basic_stringIcSt11char_traitsIcESaIcEEES5_St4lessIS5_ESaISt4pairIKS5_S5_EEED1Ev;	.scl	2;	.type	32;	.endef
	.seh_proc	_ZNSt3mapINSt7__cxx1112basic_stringIcSt11char_traitsIcESaIcEEES5_St4lessIS5_ESaISt4pairIKS5_S5_EEED1Ev
_ZNSt3mapINSt7__cxx1112basic_stringIcSt11char_traitsIcESaIcEEES5_St4lessIS5_ESaISt4pairIKS5_S5_EEED1Ev:
.LFB13451:
	pushq	%rbp
	.seh_pushreg	%rbp
	movq	%rsp, %rbp
	.seh_setframe	%rbp, 0
	subq	$32, %rsp
	.seh_stackalloc	32
	.seh_endprologue
	movq	%rcx, 16(%rbp)
	movq	16(%rbp), %rax
	movq	%rax, %rcx
	call	_ZNSt8_Rb_treeINSt7__cxx1112basic_stringIcSt11char_traitsIcESaIcEEESt4pairIKS5_S5_ESt10_Select1stIS8_ESt4lessIS5_ESaIS8_EED1Ev
	nop
	addq	$32, %rsp
	popq	%rbp
	ret
	.seh_endproc
	.section	.text$_ZN3cpr7ProxiesC1Ev,"x"
	.linkonce discard
	.align 2
	.globl	_ZN3cpr7ProxiesC1Ev
	.def	_ZN3cpr7ProxiesC1Ev;	.scl	2;	.type	32;	.endef
	.seh_proc	_ZN3cpr7ProxiesC1Ev
_ZN3cpr7ProxiesC1Ev:
.LFB13453:
	pushq	%rbp
	.seh_pushreg	%rbp
	movq	%rsp, %rbp
	.seh_setframe	%rbp, 0
	subq	$32, %rsp
	.seh_stackalloc	32
	.seh_endprologue
	movq	%rcx, 16(%rbp)
	movq	16(%rbp), %rax
	movq	%rax, %rcx
	call	_ZNSt3mapINSt7__cxx1112basic_stringIcSt11char_traitsIcESaIcEEES5_St4lessIS5_ESaISt4pairIKS5_S5_EEEC1Ev
	nop
	addq	$32, %rsp
	popq	%rbp
	ret
	.seh_endproc
	.section	.text$_ZN3cpr7ProxiesD1Ev,"x"
	.linkonce discard
	.align 2
	.globl	_ZN3cpr7ProxiesD1Ev
	.def	_ZN3cpr7ProxiesD1Ev;	.scl	2;	.type	32;	.endef
	.seh_proc	_ZN3cpr7ProxiesD1Ev
_ZN3cpr7ProxiesD1Ev:
.LFB13456:
	pushq	%rbp
	.seh_pushreg	%rbp
	movq	%rsp, %rbp
	.seh_setframe	%rbp, 0
	subq	$32, %rsp
	.seh_stackalloc	32
	.seh_endprologue
	movq	%rcx, 16(%rbp)
	movq	16(%rbp), %rax
	movq	%rax, %rcx
	call	_ZNSt3mapINSt7__cxx1112basic_stringIcSt11char_traitsIcESaIcEEES5_St4lessIS5_ESaISt4pairIKS5_S5_EEED1Ev
	nop
	addq	$32, %rsp
	popq	%rbp
	ret
	.seh_endproc
	.section	.text$_ZNSt8_Rb_treeINSt7__cxx1112basic_stringIcSt11char_traitsIcESaIcEEESt4pairIKS5_N3cpr21EncodedAuthenticationEESt10_Select1stISA_ESt4lessIS5_ESaISA_EE13_Rb_tree_implISE_Lb1EED1Ev,"x"
	.linkonce discard
	.align 2
	.globl	_ZNSt8_Rb_treeINSt7__cxx1112basic_stringIcSt11char_traitsIcESaIcEEESt4pairIKS5_N3cpr21EncodedAuthenticationEESt10_Select1stISA_ESt4lessIS5_ESaISA_EE13_Rb_tree_implISE_Lb1EED1Ev
	.def	_ZNSt8_Rb_treeINSt7__cxx1112basic_stringIcSt11char_traitsIcESaIcEEESt4pairIKS5_N3cpr21EncodedAuthenticationEESt10_Select1stISA_ESt4lessIS5_ESaISA_EE13_Rb_tree_implISE_Lb1EED1Ev;	.scl	2;	.type	32;	.endef
	.seh_proc	_ZNSt8_Rb_treeINSt7__cxx1112basic_stringIcSt11char_traitsIcESaIcEEESt4pairIKS5_N3cpr21EncodedAuthenticationEESt10_Select1stISA_ESt4lessIS5_ESaISA_EE13_Rb_tree_implISE_Lb1EED1Ev
_ZNSt8_Rb_treeINSt7__cxx1112basic_stringIcSt11char_traitsIcESaIcEEESt4pairIKS5_N3cpr21EncodedAuthenticationEESt10_Select1stISA_ESt4lessIS5_ESaISA_EE13_Rb_tree_implISE_Lb1EED1Ev:
.LFB13463:
	pushq	%rbp
	.seh_pushreg	%rbp
	movq	%rsp, %rbp
	.seh_setframe	%rbp, 0
	subq	$48, %rsp
	.seh_stackalloc	48
	.seh_endprologue
	movq	%rcx, 16(%rbp)
	movq	16(%rbp), %rax
	movq	%rax, -8(%rbp)
	movq	-8(%rbp), %rax
	movq	%rax, %rcx
	call	_ZNSt15__new_allocatorISt13_Rb_tree_nodeISt4pairIKNSt7__cxx1112basic_stringIcSt11char_traitsIcESaIcEEEN3cpr21EncodedAuthenticationEEEED2Ev
	nop
	nop
	addq	$48, %rsp
	popq	%rbp
	ret
	.seh_endproc
	.section	.text$_ZNSt8_Rb_treeINSt7__cxx1112basic_stringIcSt11char_traitsIcESaIcEEESt4pairIKS5_N3cpr21EncodedAuthenticationEESt10_Select1stISA_ESt4lessIS5_ESaISA_EEC1Ev,"x"
	.linkonce discard
	.align 2
	.globl	_ZNSt8_Rb_treeINSt7__cxx1112basic_stringIcSt11char_traitsIcESaIcEEESt4pairIKS5_N3cpr21EncodedAuthenticationEESt10_Select1stISA_ESt4lessIS5_ESaISA_EEC1Ev
	.def	_ZNSt8_Rb_treeINSt7__cxx1112basic_stringIcSt11char_traitsIcESaIcEEESt4pairIKS5_N3cpr21EncodedAuthenticationEESt10_Select1stISA_ESt4lessIS5_ESaISA_EEC1Ev;	.scl	2;	.type	32;	.endef
	.seh_proc	_ZNSt8_Rb_treeINSt7__cxx1112basic_stringIcSt11char_traitsIcESaIcEEESt4pairIKS5_N3cpr21EncodedAuthenticationEESt10_Select1stISA_ESt4lessIS5_ESaISA_EEC1Ev
_ZNSt8_Rb_treeINSt7__cxx1112basic_stringIcSt11char_traitsIcESaIcEEESt4pairIKS5_N3cpr21EncodedAuthenticationEESt10_Select1stISA_ESt4lessIS5_ESaISA_EEC1Ev:
.LFB13465:
	pushq	%rbp
	.seh_pushreg	%rbp
	movq	%rsp, %rbp
	.seh_setframe	%rbp, 0
	subq	$32, %rsp
	.seh_stackalloc	32
	.seh_endprologue
	movq	%rcx, 16(%rbp)
	movq	16(%rbp), %rax
	movq	%rax, %rcx
	call	_ZNSt8_Rb_treeINSt7__cxx1112basic_stringIcSt11char_traitsIcESaIcEEESt4pairIKS5_N3cpr21EncodedAuthenticationEESt10_Select1stISA_ESt4lessIS5_ESaISA_EE13_Rb_tree_implISE_Lb1EEC1Ev
	nop
	addq	$32, %rsp
	popq	%rbp
	ret
	.seh_endproc
	.section	.text$_ZNSt3mapINSt7__cxx1112basic_stringIcSt11char_traitsIcESaIcEEEN3cpr21EncodedAuthenticationESt4lessIS5_ESaISt4pairIKS5_S7_EEEC1Ev,"x"
	.linkonce discard
	.align 2
	.globl	_ZNSt3mapINSt7__cxx1112basic_stringIcSt11char_traitsIcESaIcEEEN3cpr21EncodedAuthenticationESt4lessIS5_ESaISt4pairIKS5_S7_EEEC1Ev
	.def	_ZNSt3mapINSt7__cxx1112basic_stringIcSt11char_traitsIcESaIcEEEN3cpr21EncodedAuthenticationESt4lessIS5_ESaISt4pairIKS5_S7_EEEC1Ev;	.scl	2;	.type	32;	.endef
	.seh_proc	_ZNSt3mapINSt7__cxx1112basic_stringIcSt11char_traitsIcESaIcEEEN3cpr21EncodedAuthenticationESt4lessIS5_ESaISt4pairIKS5_S7_EEEC1Ev
_ZNSt3mapINSt7__cxx1112basic_stringIcSt11char_traitsIcESaIcEEEN3cpr21EncodedAuthenticationESt4lessIS5_ESaISt4pairIKS5_S7_EEEC1Ev:
.LFB13467:
	pushq	%rbp
	.seh_pushreg	%rbp
	movq	%rsp, %rbp
	.seh_setframe	%rbp, 0
	subq	$32, %rsp
	.seh_stackalloc	32
	.seh_endprologue
	movq	%rcx, 16(%rbp)
	movq	16(%rbp), %rax
	movq	%rax, %rcx
	call	_ZNSt8_Rb_treeINSt7__cxx1112basic_stringIcSt11char_traitsIcESaIcEEESt4pairIKS5_N3cpr21EncodedAuthenticationEESt10_Select1stISA_ESt4lessIS5_ESaISA_EEC1Ev
	nop
	addq	$32, %rsp
	popq	%rbp
	ret
	.seh_endproc
	.section	.text$_ZN3cpr19ProxyAuthenticationC1Ev,"x"
	.linkonce discard
	.align 2
	.globl	_ZN3cpr19ProxyAuthenticationC1Ev
	.def	_ZN3cpr19ProxyAuthenticationC1Ev;	.scl	2;	.type	32;	.endef
	.seh_proc	_ZN3cpr19ProxyAuthenticationC1Ev
_ZN3cpr19ProxyAuthenticationC1Ev:
.LFB13469:
	pushq	%rbp
	.seh_pushreg	%rbp
	movq	%rsp, %rbp
	.seh_setframe	%rbp, 0
	subq	$32, %rsp
	.seh_stackalloc	32
	.seh_endprologue
	movq	%rcx, 16(%rbp)
	movq	16(%rbp), %rax
	movq	%rax, %rcx
	call	_ZNSt3mapINSt7__cxx1112basic_stringIcSt11char_traitsIcESaIcEEEN3cpr21EncodedAuthenticationESt4lessIS5_ESaISt4pairIKS5_S7_EEEC1Ev
	nop
	addq	$32, %rsp
	popq	%rbp
	ret
	.seh_endproc
	.section	.text$_ZN3cpr19ProxyAuthenticationD1Ev,"x"
	.linkonce discard
	.align 2
	.globl	_ZN3cpr19ProxyAuthenticationD1Ev
	.def	_ZN3cpr19ProxyAuthenticationD1Ev;	.scl	2;	.type	32;	.endef
	.seh_proc	_ZN3cpr19ProxyAuthenticationD1Ev
_ZN3cpr19ProxyAuthenticationD1Ev:
.LFB13472:
	pushq	%rbp
	.seh_pushreg	%rbp
	movq	%rsp, %rbp
	.seh_setframe	%rbp, 0
	subq	$32, %rsp
	.seh_stackalloc	32
	.seh_endprologue
	movq	%rcx, 16(%rbp)
	movq	16(%rbp), %rax
	movq	%rax, %rcx
	call	_ZNSt3mapINSt7__cxx1112basic_stringIcSt11char_traitsIcESaIcEEEN3cpr21EncodedAuthenticationESt4lessIS5_ESaISt4pairIKS5_S7_EEED1Ev
	nop
	addq	$32, %rsp
	popq	%rbp
	ret
	.seh_endproc
	.section	.text$_ZNSt3mapINSt7__cxx1112basic_stringIcSt11char_traitsIcESaIcEEES5_N3cpr22CaseInsensitiveCompareESaISt4pairIKS5_S5_EEED1Ev,"x"
	.linkonce discard
	.align 2
	.globl	_ZNSt3mapINSt7__cxx1112basic_stringIcSt11char_traitsIcESaIcEEES5_N3cpr22CaseInsensitiveCompareESaISt4pairIKS5_S5_EEED1Ev
	.def	_ZNSt3mapINSt7__cxx1112basic_stringIcSt11char_traitsIcESaIcEEES5_N3cpr22CaseInsensitiveCompareESaISt4pairIKS5_S5_EEED1Ev;	.scl	2;	.type	32;	.endef
	.seh_proc	_ZNSt3mapINSt7__cxx1112basic_stringIcSt11char_traitsIcESaIcEEES5_N3cpr22CaseInsensitiveCompareESaISt4pairIKS5_S5_EEED1Ev
_ZNSt3mapINSt7__cxx1112basic_stringIcSt11char_traitsIcESaIcEEES5_N3cpr22CaseInsensitiveCompareESaISt4pairIKS5_S5_EEED1Ev:
.LFB13475:
	pushq	%rbp
	.seh_pushreg	%rbp
	movq	%rsp, %rbp
	.seh_setframe	%rbp, 0
	subq	$32, %rsp
	.seh_stackalloc	32
	.seh_endprologue
	movq	%rcx, 16(%rbp)
	movq	16(%rbp), %rax
	movq	%rax, %rcx
	call	_ZNSt8_Rb_treeINSt7__cxx1112basic_stringIcSt11char_traitsIcESaIcEEESt4pairIKS5_S5_ESt10_Select1stIS8_EN3cpr22CaseInsensitiveCompareESaIS8_EED1Ev
	nop
	addq	$32, %rsp
	popq	%rbp
	ret
	.seh_endproc
	.section	.text$_ZNSt8__detail15_Hash_code_baseINSt7__cxx1112basic_stringIcSt11char_traitsIcESaIcEEES6_NS_9_IdentityESt4hashIS6_ENS_18_Mod_range_hashingENS_20_Default_ranged_hashELb1EEC2Ev,"x"
	.linkonce discard
	.align 2
	.globl	_ZNSt8__detail15_Hash_code_baseINSt7__cxx1112basic_stringIcSt11char_traitsIcESaIcEEES6_NS_9_IdentityESt4hashIS6_ENS_18_Mod_range_hashingENS_20_Default_ranged_hashELb1EEC2Ev
	.def	_ZNSt8__detail15_Hash_code_baseINSt7__cxx1112basic_stringIcSt11char_traitsIcESaIcEEES6_NS_9_IdentityESt4hashIS6_ENS_18_Mod_range_hashingENS_20_Default_ranged_hashELb1EEC2Ev;	.scl	2;	.type	32;	.endef
	.seh_proc	_ZNSt8__detail15_Hash_code_baseINSt7__cxx1112basic_stringIcSt11char_traitsIcESaIcEEES6_NS_9_IdentityESt4hashIS6_ENS_18_Mod_range_hashingENS_20_Default_ranged_hashELb1EEC2Ev
_ZNSt8__detail15_Hash_code_baseINSt7__cxx1112basic_stringIcSt11char_traitsIcESaIcEEES6_NS_9_IdentityESt4hashIS6_ENS_18_Mod_range_hashingENS_20_Default_ranged_hashELb1EEC2Ev:
.LFB13481:
	pushq	%rbp
	.seh_pushreg	%rbp
	movq	%rsp, %rbp
	.seh_setframe	%rbp, 0
	subq	$32, %rsp
	.seh_stackalloc	32
	.seh_endprologue
	movq	%rcx, 16(%rbp)
	movq	16(%rbp), %rax
	movq	%rax, %rcx
	call	_ZNSt8__detail21_Hashtable_ebo_helperILi1ESt4hashINSt7__cxx1112basic_stringIcSt11char_traitsIcESaIcEEEELb1EEC2Ev
	nop
	addq	$32, %rsp
	popq	%rbp
	ret
	.seh_endproc
	.section	.text$_ZNSt8__detail15_Hashtable_baseINSt7__cxx1112basic_stringIcSt11char_traitsIcESaIcEEES6_NS_9_IdentityESt8equal_toIS6_ESt4hashIS6_ENS_18_Mod_range_hashingENS_20_Default_ranged_hashENS_17_Hashtable_traitsILb1ELb1ELb1EEEEC2Ev,"x"
	.linkonce discard
	.align 2
	.globl	_ZNSt8__detail15_Hashtable_baseINSt7__cxx1112basic_stringIcSt11char_traitsIcESaIcEEES6_NS_9_IdentityESt8equal_toIS6_ESt4hashIS6_ENS_18_Mod_range_hashingENS_20_Default_ranged_hashENS_17_Hashtable_traitsILb1ELb1ELb1EEEEC2Ev
	.def	_ZNSt8__detail15_Hashtable_baseINSt7__cxx1112basic_stringIcSt11char_traitsIcESaIcEEES6_NS_9_IdentityESt8equal_toIS6_ESt4hashIS6_ENS_18_Mod_range_hashingENS_20_Default_ranged_hashENS_17_Hashtable_traitsILb1ELb1ELb1EEEEC2Ev;	.scl	2;	.type	32;	.endef
	.seh_proc	_ZNSt8__detail15_Hashtable_baseINSt7__cxx1112basic_stringIcSt11char_traitsIcESaIcEEES6_NS_9_IdentityESt8equal_toIS6_ESt4hashIS6_ENS_18_Mod_range_hashingENS_20_Default_ranged_hashENS_17_Hashtable_traitsILb1ELb1ELb1EEEEC2Ev
_ZNSt8__detail15_Hashtable_baseINSt7__cxx1112basic_stringIcSt11char_traitsIcESaIcEEES6_NS_9_IdentityESt8equal_toIS6_ESt4hashIS6_ENS_18_Mod_range_hashingENS_20_Default_ranged_hashENS_17_Hashtable_traitsILb1ELb1ELb1EEEEC2Ev:
.LFB13483:
	pushq	%rbp
	.seh_pushreg	%rbp
	movq	%rsp, %rbp
	.seh_setframe	%rbp, 0
	subq	$32, %rsp
	.seh_stackalloc	32
	.seh_endprologue
	movq	%rcx, 16(%rbp)
	movq	16(%rbp), %rax
	movq	%rax, %rcx
	call	_ZNSt8__detail15_Hash_code_baseINSt7__cxx1112basic_stringIcSt11char_traitsIcESaIcEEES6_NS_9_IdentityESt4hashIS6_ENS_18_Mod_range_hashingENS_20_Default_ranged_hashELb1EEC2Ev
	movq	16(%rbp), %rax
	movq	%rax, %rcx
	call	_ZNSt8__detail21_Hashtable_ebo_helperILi0ESt8equal_toINSt7__cxx1112basic_stringIcSt11char_traitsIcESaIcEEEELb1EEC2Ev
	nop
	addq	$32, %rsp
	popq	%rbp
	ret
	.seh_endproc
	.section	.text$_ZNSt8__detail21_Hashtable_ebo_helperILi0ESaINS_10_Hash_nodeINSt7__cxx1112basic_stringIcSt11char_traitsIcESaIcEEELb1EEEELb1EED2Ev,"x"
	.linkonce discard
	.align 2
	.globl	_ZNSt8__detail21_Hashtable_ebo_helperILi0ESaINS_10_Hash_nodeINSt7__cxx1112basic_stringIcSt11char_traitsIcESaIcEEELb1EEEELb1EED2Ev
	.def	_ZNSt8__detail21_Hashtable_ebo_helperILi0ESaINS_10_Hash_nodeINSt7__cxx1112basic_stringIcSt11char_traitsIcESaIcEEELb1EEEELb1EED2Ev;	.scl	2;	.type	32;	.endef
	.seh_proc	_ZNSt8__detail21_Hashtable_ebo_helperILi0ESaINS_10_Hash_nodeINSt7__cxx1112basic_stringIcSt11char_traitsIcESaIcEEELb1EEEELb1EED2Ev
_ZNSt8__detail21_Hashtable_ebo_helperILi0ESaINS_10_Hash_nodeINSt7__cxx1112basic_stringIcSt11char_traitsIcESaIcEEELb1EEEELb1EED2Ev:
.LFB13487:
	pushq	%rbp
	.seh_pushreg	%rbp
	movq	%rsp, %rbp
	.seh_setframe	%rbp, 0
	subq	$48, %rsp
	.seh_stackalloc	48
	.seh_endprologue
	movq	%rcx, 16(%rbp)
	movq	16(%rbp), %rax
	movq	%rax, -8(%rbp)
	movq	-8(%rbp), %rax
	movq	%rax, %rcx
	call	_ZNSt15__new_allocatorINSt8__detail10_Hash_nodeINSt7__cxx1112basic_stringIcSt11char_traitsIcESaIcEEELb1EEEED2Ev
	nop
	nop
	addq	$48, %rsp
	popq	%rbp
	ret
	.seh_endproc
	.section	.text$_ZNSt8__detail16_Hashtable_allocISaINS_10_Hash_nodeINSt7__cxx1112basic_stringIcSt11char_traitsIcESaIcEEELb1EEEEEC2Ev,"x"
	.linkonce discard
	.align 2
	.globl	_ZNSt8__detail16_Hashtable_allocISaINS_10_Hash_nodeINSt7__cxx1112basic_stringIcSt11char_traitsIcESaIcEEELb1EEEEEC2Ev
	.def	_ZNSt8__detail16_Hashtable_allocISaINS_10_Hash_nodeINSt7__cxx1112basic_stringIcSt11char_traitsIcESaIcEEELb1EEEEEC2Ev;	.scl	2;	.type	32;	.endef
	.seh_proc	_ZNSt8__detail16_Hashtable_allocISaINS_10_Hash_nodeINSt7__cxx1112basic_stringIcSt11char_traitsIcESaIcEEELb1EEEEEC2Ev
_ZNSt8__detail16_Hashtable_allocISaINS_10_Hash_nodeINSt7__cxx1112basic_stringIcSt11char_traitsIcESaIcEEELb1EEEEEC2Ev:
.LFB13489:
	pushq	%rbp
	.seh_pushreg	%rbp
	movq	%rsp, %rbp
	.seh_setframe	%rbp, 0
	subq	$32, %rsp
	.seh_stackalloc	32
	.seh_endprologue
	movq	%rcx, 16(%rbp)
	movq	16(%rbp), %rax
	movq	%rax, %rcx
	call	_ZNSt8__detail21_Hashtable_ebo_helperILi0ESaINS_10_Hash_nodeINSt7__cxx1112basic_stringIcSt11char_traitsIcESaIcEEELb1EEEELb1EEC2Ev
	nop
	addq	$32, %rsp
	popq	%rbp
	ret
	.seh_endproc
	.section	.text$_ZNSt8__detail16_Hashtable_allocISaINS_10_Hash_nodeINSt7__cxx1112basic_stringIcSt11char_traitsIcESaIcEEELb1EEEEED2Ev,"x"
	.linkonce discard
	.align 2
	.globl	_ZNSt8__detail16_Hashtable_allocISaINS_10_Hash_nodeINSt7__cxx1112basic_stringIcSt11char_traitsIcESaIcEEELb1EEEEED2Ev
	.def	_ZNSt8__detail16_Hashtable_allocISaINS_10_Hash_nodeINSt7__cxx1112basic_stringIcSt11char_traitsIcESaIcEEELb1EEEEED2Ev;	.scl	2;	.type	32;	.endef
	.seh_proc	_ZNSt8__detail16_Hashtable_allocISaINS_10_Hash_nodeINSt7__cxx1112basic_stringIcSt11char_traitsIcESaIcEEELb1EEEEED2Ev
_ZNSt8__detail16_Hashtable_allocISaINS_10_Hash_nodeINSt7__cxx1112basic_stringIcSt11char_traitsIcESaIcEEELb1EEEEED2Ev:
.LFB13492:
	pushq	%rbp
	.seh_pushreg	%rbp
	movq	%rsp, %rbp
	.seh_setframe	%rbp, 0
	subq	$32, %rsp
	.seh_stackalloc	32
	.seh_endprologue
	movq	%rcx, 16(%rbp)
	movq	16(%rbp), %rax
	movq	%rax, %rcx
	call	_ZNSt8__detail21_Hashtable_ebo_helperILi0ESaINS_10_Hash_nodeINSt7__cxx1112basic_stringIcSt11char_traitsIcESaIcEEELb1EEEELb1EED2Ev
	nop
	addq	$32, %rsp
	popq	%rbp
	ret
	.seh_endproc
	.section	.text$_ZNSt10_HashtableINSt7__cxx1112basic_stringIcSt11char_traitsIcESaIcEEES5_SaIS5_ENSt8__detail9_IdentityESt8equal_toIS5_ESt4hashIS5_ENS7_18_Mod_range_hashingENS7_20_Default_ranged_hashENS7_20_Prime_rehash_policyENS7_17_Hashtable_traitsILb1ELb1ELb1EEEEC1Ev,"x"
	.linkonce discard
	.align 2
	.globl	_ZNSt10_HashtableINSt7__cxx1112basic_stringIcSt11char_traitsIcESaIcEEES5_SaIS5_ENSt8__detail9_IdentityESt8equal_toIS5_ESt4hashIS5_ENS7_18_Mod_range_hashingENS7_20_Default_ranged_hashENS7_20_Prime_rehash_policyENS7_17_Hashtable_traitsILb1ELb1ELb1EEEEC1Ev
	.def	_ZNSt10_HashtableINSt7__cxx1112basic_stringIcSt11char_traitsIcESaIcEEES5_SaIS5_ENSt8__detail9_IdentityESt8equal_toIS5_ESt4hashIS5_ENS7_18_Mod_range_hashingENS7_20_Default_ranged_hashENS7_20_Prime_rehash_policyENS7_17_Hashtable_traitsILb1ELb1ELb1EEEEC1Ev;	.scl	2;	.type	32;	.endef
	.seh_proc	_ZNSt10_HashtableINSt7__cxx1112basic_stringIcSt11char_traitsIcESaIcEEES5_SaIS5_ENSt8__detail9_IdentityESt8equal_toIS5_ESt4hashIS5_ENS7_18_Mod_range_hashingENS7_20_Default_ranged_hashENS7_20_Prime_rehash_policyENS7_17_Hashtable_traitsILb1ELb1ELb1EEEEC1Ev
_ZNSt10_HashtableINSt7__cxx1112basic_stringIcSt11char_traitsIcESaIcEEES5_SaIS5_ENSt8__detail9_IdentityESt8equal_toIS5_ESt4hashIS5_ENS7_18_Mod_range_hashingENS7_20_Default_ranged_hashENS7_20_Prime_rehash_policyENS7_17_Hashtable_traitsILb1ELb1ELb1EEEEC1Ev:
.LFB13495:
	pushq	%rbp
	.seh_pushreg	%rbp
	movq	%rsp, %rbp
	.seh_setframe	%rbp, 0
	subq	$32, %rsp
	.seh_stackalloc	32
	.seh_endprologue
	movq	%rcx, 16(%rbp)
	movq	16(%rbp), %rax
	movq	%rax, %rcx
	call	_ZNSt8__detail15_Hashtable_baseINSt7__cxx1112basic_stringIcSt11char_traitsIcESaIcEEES6_NS_9_IdentityESt8equal_toIS6_ESt4hashIS6_ENS_18_Mod_range_hashingENS_20_Default_ranged_hashENS_17_Hashtable_traitsILb1ELb1ELb1EEEEC2Ev
	movq	16(%rbp), %rax
	movq	%rax, %rcx
	call	_ZNSt8__detail16_Hashtable_allocISaINS_10_Hash_nodeINSt7__cxx1112basic_stringIcSt11char_traitsIcESaIcEEELb1EEEEEC2Ev
	movq	16(%rbp), %rax
	leaq	48(%rax), %rdx
	movq	16(%rbp), %rax
	movq	%rdx, (%rax)
	movq	16(%rbp), %rax
	movq	$1, 8(%rax)
	movq	16(%rbp), %rax
	addq	$16, %rax
	movq	%rax, %rcx
	call	_ZNSt8__detail15_Hash_node_baseC1Ev
	movq	16(%rbp), %rax
	movq	$0, 24(%rax)
	movq	16(%rbp), %rax
	addq	$32, %rax
	movss	.LC10(%rip), %xmm1
	movq	%rax, %rcx
	call	_ZNSt8__detail20_Prime_rehash_policyC1Ef
	movq	16(%rbp), %rax
	movq	$0, 48(%rax)
	nop
	addq	$32, %rsp
	popq	%rbp
	ret
	.seh_endproc
	.section	.text$_ZNSt13unordered_setINSt7__cxx1112basic_stringIcSt11char_traitsIcESaIcEEESt4hashIS5_ESt8equal_toIS5_ESaIS5_EEC1Ev,"x"
	.linkonce discard
	.align 2
	.globl	_ZNSt13unordered_setINSt7__cxx1112basic_stringIcSt11char_traitsIcESaIcEEESt4hashIS5_ESt8equal_toIS5_ESaIS5_EEC1Ev
	.def	_ZNSt13unordered_setINSt7__cxx1112basic_stringIcSt11char_traitsIcESaIcEEESt4hashIS5_ESt8equal_toIS5_ESaIS5_EEC1Ev;	.scl	2;	.type	32;	.endef
	.seh_proc	_ZNSt13unordered_setINSt7__cxx1112basic_stringIcSt11char_traitsIcESaIcEEESt4hashIS5_ESt8equal_toIS5_ESaIS5_EEC1Ev
_ZNSt13unordered_setINSt7__cxx1112basic_stringIcSt11char_traitsIcESaIcEEESt4hashIS5_ESt8equal_toIS5_ESaIS5_EEC1Ev:
.LFB13497:
	pushq	%rbp
	.seh_pushreg	%rbp
	movq	%rsp, %rbp
	.seh_setframe	%rbp, 0
	subq	$32, %rsp
	.seh_stackalloc	32
	.seh_endprologue
	movq	%rcx, 16(%rbp)
	movq	16(%rbp), %rax
	movq	%rax, %rcx
	call	_ZNSt10_HashtableINSt7__cxx1112basic_stringIcSt11char_traitsIcESaIcEEES5_SaIS5_ENSt8__detail9_IdentityESt8equal_toIS5_ESt4hashIS5_ENS7_18_Mod_range_hashingENS7_20_Default_ranged_hashENS7_20_Prime_rehash_policyENS7_17_Hashtable_traitsILb1ELb1ELb1EEEEC1Ev
	nop
	addq	$32, %rsp
	popq	%rbp
	ret
	.seh_endproc
	.section	.text$_ZNSt13unordered_setINSt7__cxx1112basic_stringIcSt11char_traitsIcESaIcEEESt4hashIS5_ESt8equal_toIS5_ESaIS5_EED1Ev,"x"
	.linkonce discard
	.align 2
	.globl	_ZNSt13unordered_setINSt7__cxx1112basic_stringIcSt11char_traitsIcESaIcEEESt4hashIS5_ESt8equal_toIS5_ESaIS5_EED1Ev
	.def	_ZNSt13unordered_setINSt7__cxx1112basic_stringIcSt11char_traitsIcESaIcEEESt4hashIS5_ESt8equal_toIS5_ESaIS5_EED1Ev;	.scl	2;	.type	32;	.endef
	.seh_proc	_ZNSt13unordered_setINSt7__cxx1112basic_stringIcSt11char_traitsIcESaIcEEESt4hashIS5_ESt8equal_toIS5_ESaIS5_EED1Ev
_ZNSt13unordered_setINSt7__cxx1112basic_stringIcSt11char_traitsIcESaIcEEESt4hashIS5_ESt8equal_toIS5_ESaIS5_EED1Ev:
.LFB13500:
	pushq	%rbp
	.seh_pushreg	%rbp
	movq	%rsp, %rbp
	.seh_setframe	%rbp, 0
	subq	$32, %rsp
	.seh_stackalloc	32
	.seh_endprologue
	movq	%rcx, 16(%rbp)
	movq	16(%rbp), %rax
	movq	%rax, %rcx
	call	_ZNSt10_HashtableINSt7__cxx1112basic_stringIcSt11char_traitsIcESaIcEEES5_SaIS5_ENSt8__detail9_IdentityESt8equal_toIS5_ESt4hashIS5_ENS7_18_Mod_range_hashingENS7_20_Default_ranged_hashENS7_20_Prime_rehash_policyENS7_17_Hashtable_traitsILb1ELb1ELb1EEEED1Ev
	nop
	addq	$32, %rsp
	popq	%rbp
	ret
	.seh_endproc
	.section	.text$_ZN3cpr14AcceptEncodingC1Ev,"x"
	.linkonce discard
	.align 2
	.globl	_ZN3cpr14AcceptEncodingC1Ev
	.def	_ZN3cpr14AcceptEncodingC1Ev;	.scl	2;	.type	32;	.endef
	.seh_proc	_ZN3cpr14AcceptEncodingC1Ev
_ZN3cpr14AcceptEncodingC1Ev:
.LFB13502:
	pushq	%rbp
	.seh_pushreg	%rbp
	movq	%rsp, %rbp
	.seh_setframe	%rbp, 0
	subq	$32, %rsp
	.seh_stackalloc	32
	.seh_endprologue
	movq	%rcx, 16(%rbp)
	movq	16(%rbp), %rax
	movq	%rax, %rcx
	call	_ZNSt13unordered_setINSt7__cxx1112basic_stringIcSt11char_traitsIcESaIcEEESt4hashIS5_ESt8equal_toIS5_ESaIS5_EEC1Ev
	nop
	addq	$32, %rsp
	popq	%rbp
	ret
	.seh_endproc
	.section	.text$_ZN3cpr14AcceptEncodingD1Ev,"x"
	.linkonce discard
	.align 2
	.globl	_ZN3cpr14AcceptEncodingD1Ev
	.def	_ZN3cpr14AcceptEncodingD1Ev;	.scl	2;	.type	32;	.endef
	.seh_proc	_ZN3cpr14AcceptEncodingD1Ev
_ZN3cpr14AcceptEncodingD1Ev:
.LFB13505:
	pushq	%rbp
	.seh_pushreg	%rbp
	movq	%rsp, %rbp
	.seh_setframe	%rbp, 0
	subq	$32, %rsp
	.seh_stackalloc	32
	.seh_endprologue
	movq	%rcx, 16(%rbp)
	movq	16(%rbp), %rax
	movq	%rax, %rcx
	call	_ZNSt13unordered_setINSt7__cxx1112basic_stringIcSt11char_traitsIcESaIcEEESt4hashIS5_ESt8equal_toIS5_ESaIS5_EED1Ev
	nop
	addq	$32, %rsp
	popq	%rbp
	ret
	.seh_endproc
	.section	.text$_ZN3cpr12ReadCallbackC1Ev,"x"
	.linkonce discard
	.align 2
	.globl	_ZN3cpr12ReadCallbackC1Ev
	.def	_ZN3cpr12ReadCallbackC1Ev;	.scl	2;	.type	32;	.endef
	.seh_proc	_ZN3cpr12ReadCallbackC1Ev
_ZN3cpr12ReadCallbackC1Ev:
.LFB13508:
	pushq	%rbp
	.seh_pushreg	%rbp
	movq	%rsp, %rbp
	.seh_setframe	%rbp, 0
	subq	$32, %rsp
	.seh_stackalloc	32
	.seh_endprologue
	movq	%rcx, 16(%rbp)
	movq	16(%rbp), %rax
	movq	$0, (%rax)
	movq	16(%rbp), %rax
	movq	$0, 8(%rax)
	movq	16(%rbp), %rax
	addq	$16, %rax
	movq	%rax, %rcx
	call	_ZNSt8functionIFbPcRyxEEC1Ev
	nop
	addq	$32, %rsp
	popq	%rbp
	ret
	.seh_endproc
	.section	.text$_ZN3cpr12ReadCallbackD1Ev,"x"
	.linkonce discard
	.align 2
	.globl	_ZN3cpr12ReadCallbackD1Ev
	.def	_ZN3cpr12ReadCallbackD1Ev;	.scl	2;	.type	32;	.endef
	.seh_proc	_ZN3cpr12ReadCallbackD1Ev
_ZN3cpr12ReadCallbackD1Ev:
.LFB13511:
	pushq	%rbp
	.seh_pushreg	%rbp
	movq	%rsp, %rbp
	.seh_setframe	%rbp, 0
	subq	$32, %rsp
	.seh_stackalloc	32
	.seh_endprologue
	movq	%rcx, 16(%rbp)
	movq	16(%rbp), %rax
	addq	$16, %rax
	movq	%rax, %rcx
	call	_ZNSt8functionIFbPcRyxEED1Ev
	nop
	addq	$32, %rsp
	popq	%rbp
	ret
	.seh_endproc
	.section	.text$_ZN3cpr14HeaderCallbackC1Ev,"x"
	.linkonce discard
	.align 2
	.globl	_ZN3cpr14HeaderCallbackC1Ev
	.def	_ZN3cpr14HeaderCallbackC1Ev;	.scl	2;	.type	32;	.endef
	.seh_proc	_ZN3cpr14HeaderCallbackC1Ev
_ZN3cpr14HeaderCallbackC1Ev:
.LFB13514:
	pushq	%rbp
	.seh_pushreg	%rbp
	movq	%rsp, %rbp
	.seh_setframe	%rbp, 0
	subq	$32, %rsp
	.seh_stackalloc	32
	.seh_endprologue
	movq	%rcx, 16(%rbp)
	movq	16(%rbp), %rax
	movq	$0, (%rax)
	movq	16(%rbp), %rax
	addq	$8, %rax
	movq	%rax, %rcx
	call	_ZNSt8functionIFbNSt7__cxx1112basic_stringIcSt11char_traitsIcESaIcEEExEEC1Ev
	nop
	addq	$32, %rsp
	popq	%rbp
	ret
	.seh_endproc
	.section	.text$_ZN3cpr14HeaderCallbackD1Ev,"x"
	.linkonce discard
	.align 2
	.globl	_ZN3cpr14HeaderCallbackD1Ev
	.def	_ZN3cpr14HeaderCallbackD1Ev;	.scl	2;	.type	32;	.endef
	.seh_proc	_ZN3cpr14HeaderCallbackD1Ev
_ZN3cpr14HeaderCallbackD1Ev:
.LFB13517:
	pushq	%rbp
	.seh_pushreg	%rbp
	movq	%rsp, %rbp
	.seh_setframe	%rbp, 0
	subq	$32, %rsp
	.seh_stackalloc	32
	.seh_endprologue
	movq	%rcx, 16(%rbp)
	movq	16(%rbp), %rax
	addq	$8, %rax
	movq	%rax, %rcx
	call	_ZNSt8functionIFbNSt7__cxx1112basic_stringIcSt11char_traitsIcESaIcEEExEED1Ev
	nop
	addq	$32, %rsp
	popq	%rbp
	ret
	.seh_endproc
	.section	.text$_ZN3cpr13WriteCallbackC1Ev,"x"
	.linkonce discard
	.align 2
	.globl	_ZN3cpr13WriteCallbackC1Ev
	.def	_ZN3cpr13WriteCallbackC1Ev;	.scl	2;	.type	32;	.endef
	.seh_proc	_ZN3cpr13WriteCallbackC1Ev
_ZN3cpr13WriteCallbackC1Ev:
.LFB13520:
	pushq	%rbp
	.seh_pushreg	%rbp
	movq	%rsp, %rbp
	.seh_setframe	%rbp, 0
	subq	$32, %rsp
	.seh_stackalloc	32
	.seh_endprologue
	movq	%rcx, 16(%rbp)
	movq	16(%rbp), %rax
	movq	$0, (%rax)
	movq	16(%rbp), %rax
	addq	$8, %rax
	movq	%rax, %rcx
	call	_ZNSt8functionIFbNSt7__cxx1112basic_stringIcSt11char_traitsIcESaIcEEExEEC1Ev
	nop
	addq	$32, %rsp
	popq	%rbp
	ret
	.seh_endproc
	.section	.text$_ZN3cpr13WriteCallbackD1Ev,"x"
	.linkonce discard
	.align 2
	.globl	_ZN3cpr13WriteCallbackD1Ev
	.def	_ZN3cpr13WriteCallbackD1Ev;	.scl	2;	.type	32;	.endef
	.seh_proc	_ZN3cpr13WriteCallbackD1Ev
_ZN3cpr13WriteCallbackD1Ev:
.LFB13523:
	pushq	%rbp
	.seh_pushreg	%rbp
	movq	%rsp, %rbp
	.seh_setframe	%rbp, 0
	subq	$32, %rsp
	.seh_stackalloc	32
	.seh_endprologue
	movq	%rcx, 16(%rbp)
	movq	16(%rbp), %rax
	addq	$8, %rax
	movq	%rax, %rcx
	call	_ZNSt8functionIFbNSt7__cxx1112basic_stringIcSt11char_traitsIcESaIcEEExEED1Ev
	nop
	addq	$32, %rsp
	popq	%rbp
	ret
	.seh_endproc
	.section	.text$_ZN3cpr16ProgressCallbackC1Ev,"x"
	.linkonce discard
	.align 2
	.globl	_ZN3cpr16ProgressCallbackC1Ev
	.def	_ZN3cpr16ProgressCallbackC1Ev;	.scl	2;	.type	32;	.endef
	.seh_proc	_ZN3cpr16ProgressCallbackC1Ev
_ZN3cpr16ProgressCallbackC1Ev:
.LFB13526:
	pushq	%rbp
	.seh_pushreg	%rbp
	movq	%rsp, %rbp
	.seh_setframe	%rbp, 0
	subq	$32, %rsp
	.seh_stackalloc	32
	.seh_endprologue
	movq	%rcx, 16(%rbp)
	movq	16(%rbp), %rax
	movq	$0, (%rax)
	movq	16(%rbp), %rax
	addq	$8, %rax
	movq	%rax, %rcx
	call	_ZNSt8functionIFbxxxxxEEC1Ev
	nop
	addq	$32, %rsp
	popq	%rbp
	ret
	.seh_endproc
	.section	.text$_ZN3cpr16ProgressCallbackD1Ev,"x"
	.linkonce discard
	.align 2
	.globl	_ZN3cpr16ProgressCallbackD1Ev
	.def	_ZN3cpr16ProgressCallbackD1Ev;	.scl	2;	.type	32;	.endef
	.seh_proc	_ZN3cpr16ProgressCallbackD1Ev
_ZN3cpr16ProgressCallbackD1Ev:
.LFB13529:
	pushq	%rbp
	.seh_pushreg	%rbp
	movq	%rsp, %rbp
	.seh_setframe	%rbp, 0
	subq	$32, %rsp
	.seh_stackalloc	32
	.seh_endprologue
	movq	%rcx, 16(%rbp)
	movq	16(%rbp), %rax
	addq	$8, %rax
	movq	%rax, %rcx
	call	_ZNSt8functionIFbxxxxxEED1Ev
	nop
	addq	$32, %rsp
	popq	%rbp
	ret
	.seh_endproc
	.section	.text$_ZN3cpr13DebugCallbackC1Ev,"x"
	.linkonce discard
	.align 2
	.globl	_ZN3cpr13DebugCallbackC1Ev
	.def	_ZN3cpr13DebugCallbackC1Ev;	.scl	2;	.type	32;	.endef
	.seh_proc	_ZN3cpr13DebugCallbackC1Ev
_ZN3cpr13DebugCallbackC1Ev:
.LFB13532:
	pushq	%rbp
	.seh_pushreg	%rbp
	movq	%rsp, %rbp
	.seh_setframe	%rbp, 0
	subq	$32, %rsp
	.seh_stackalloc	32
	.seh_endprologue
	movq	%rcx, 16(%rbp)
	movq	16(%rbp), %rax
	movq	$0, (%rax)
	movq	16(%rbp), %rax
	addq	$8, %rax
	movq	%rax, %rcx
	call	_ZNSt8functionIFvN3cpr13DebugCallback8InfoTypeENSt7__cxx1112basic_stringIcSt11char_traitsIcESaIcEEExEEC1Ev
	nop
	addq	$32, %rsp
	popq	%rbp
	ret
	.seh_endproc
	.section	.text$_ZN3cpr13DebugCallbackD1Ev,"x"
	.linkonce discard
	.align 2
	.globl	_ZN3cpr13DebugCallbackD1Ev
	.def	_ZN3cpr13DebugCallbackD1Ev;	.scl	2;	.type	32;	.endef
	.seh_proc	_ZN3cpr13DebugCallbackD1Ev
_ZN3cpr13DebugCallbackD1Ev:
.LFB13535:
	pushq	%rbp
	.seh_pushreg	%rbp
	movq	%rsp, %rbp
	.seh_setframe	%rbp, 0
	subq	$32, %rsp
	.seh_stackalloc	32
	.seh_endprologue
	movq	%rcx, 16(%rbp)
	movq	16(%rbp), %rax
	addq	$8, %rax
	movq	%rax, %rcx
	call	_ZNSt8functionIFvN3cpr13DebugCallback8InfoTypeENSt7__cxx1112basic_stringIcSt11char_traitsIcESaIcEEExEED1Ev
	nop
	addq	$32, %rsp
	popq	%rbp
	ret
	.seh_endproc
	.section	.text$_ZNSt10shared_ptrISt6atomicIbEEC1Ev,"x"
	.linkonce discard
	.align 2
	.globl	_ZNSt10shared_ptrISt6atomicIbEEC1Ev
	.def	_ZNSt10shared_ptrISt6atomicIbEEC1Ev;	.scl	2;	.type	32;	.endef
	.seh_proc	_ZNSt10shared_ptrISt6atomicIbEEC1Ev
_ZNSt10shared_ptrISt6atomicIbEEC1Ev:
.LFB13539:
	pushq	%rbp
	.seh_pushreg	%rbp
	movq	%rsp, %rbp
	.seh_setframe	%rbp, 0
	subq	$32, %rsp
	.seh_stackalloc	32
	.seh_endprologue
	movq	%rcx, 16(%rbp)
	movq	16(%rbp), %rax
	movq	%rax, %rcx
	call	_ZNSt12__shared_ptrISt6atomicIbELN9__gnu_cxx12_Lock_policyE2EEC2Ev
	nop
	addq	$32, %rsp
	popq	%rbp
	ret
	.seh_endproc
	.section	.text$_ZNSt12__shared_ptrISt6atomicIbELN9__gnu_cxx12_Lock_policyE2EEC2Ev,"x"
	.linkonce discard
	.align 2
	.globl	_ZNSt12__shared_ptrISt6atomicIbELN9__gnu_cxx12_Lock_policyE2EEC2Ev
	.def	_ZNSt12__shared_ptrISt6atomicIbELN9__gnu_cxx12_Lock_policyE2EEC2Ev;	.scl	2;	.type	32;	.endef
	.seh_proc	_ZNSt12__shared_ptrISt6atomicIbELN9__gnu_cxx12_Lock_policyE2EEC2Ev
_ZNSt12__shared_ptrISt6atomicIbELN9__gnu_cxx12_Lock_policyE2EEC2Ev:
.LFB13541:
	pushq	%rbp
	.seh_pushreg	%rbp
	movq	%rsp, %rbp
	.seh_setframe	%rbp, 0
	subq	$32, %rsp
	.seh_stackalloc	32
	.seh_endprologue
	movq	%rcx, 16(%rbp)
	movq	16(%rbp), %rax
	movq	$0, (%rax)
	movq	16(%rbp), %rax
	addq	$8, %rax
	movq	%rax, %rcx
	call	_ZNSt14__shared_countILN9__gnu_cxx12_Lock_policyE2EEC1Ev
	nop
	addq	$32, %rsp
	popq	%rbp
	ret
	.seh_endproc
	.section	.text$_ZNSt22_Optional_payload_baseISt17reference_wrapperIN3cpr16ProgressCallbackEEE8_StorageIS3_Lb1EEC1Ev,"x"
	.linkonce discard
	.align 2
	.globl	_ZNSt22_Optional_payload_baseISt17reference_wrapperIN3cpr16ProgressCallbackEEE8_StorageIS3_Lb1EEC1Ev
	.def	_ZNSt22_Optional_payload_baseISt17reference_wrapperIN3cpr16ProgressCallbackEEE8_StorageIS3_Lb1EEC1Ev;	.scl	2;	.type	32;	.endef
	.seh_proc	_ZNSt22_Optional_payload_baseISt17reference_wrapperIN3cpr16ProgressCallbackEEE8_StorageIS3_Lb1EEC1Ev
_ZNSt22_Optional_payload_baseISt17reference_wrapperIN3cpr16ProgressCallbackEEE8_StorageIS3_Lb1EEC1Ev:
.LFB13549:
	pushq	%rbp
	.seh_pushreg	%rbp
	movq	%rsp, %rbp
	.seh_setframe	%rbp, 0
	.seh_endprologue
	movq	%rcx, 16(%rbp)
	nop
	popq	%rbp
	ret
	.seh_endproc
	.section	.text$_ZNSt22_Optional_payload_baseISt17reference_wrapperIN3cpr16ProgressCallbackEEEC2Ev,"x"
	.linkonce discard
	.align 2
	.globl	_ZNSt22_Optional_payload_baseISt17reference_wrapperIN3cpr16ProgressCallbackEEEC2Ev
	.def	_ZNSt22_Optional_payload_baseISt17reference_wrapperIN3cpr16ProgressCallbackEEEC2Ev;	.scl	2;	.type	32;	.endef
	.seh_proc	_ZNSt22_Optional_payload_baseISt17reference_wrapperIN3cpr16ProgressCallbackEEEC2Ev
_ZNSt22_Optional_payload_baseISt17reference_wrapperIN3cpr16ProgressCallbackEEEC2Ev:
.LFB13550:
	pushq	%rbp
	.seh_pushreg	%rbp
	movq	%rsp, %rbp
	.seh_setframe	%rbp, 0
	subq	$32, %rsp
	.seh_stackalloc	32
	.seh_endprologue
	movq	%rcx, 16(%rbp)
	movq	16(%rbp), %rax
	movq	%rax, %rcx
	call	_ZNSt22_Optional_payload_baseISt17reference_wrapperIN3cpr16ProgressCallbackEEE8_StorageIS3_Lb1EEC1Ev
	movq	16(%rbp), %rax
	movb	$0, 8(%rax)
	nop
	addq	$32, %rsp
	popq	%rbp
	ret
	.seh_endproc
	.section	.text$_ZNSt17_Optional_payloadISt17reference_wrapperIN3cpr16ProgressCallbackEELb1ELb1ELb1EEC1Ev,"x"
	.linkonce discard
	.align 2
	.globl	_ZNSt17_Optional_payloadISt17reference_wrapperIN3cpr16ProgressCallbackEELb1ELb1ELb1EEC1Ev
	.def	_ZNSt17_Optional_payloadISt17reference_wrapperIN3cpr16ProgressCallbackEELb1ELb1ELb1EEC1Ev;	.scl	2;	.type	32;	.endef
	.seh_proc	_ZNSt17_Optional_payloadISt17reference_wrapperIN3cpr16ProgressCallbackEELb1ELb1ELb1EEC1Ev
_ZNSt17_Optional_payloadISt17reference_wrapperIN3cpr16ProgressCallbackEELb1ELb1ELb1EEC1Ev:
.LFB13553:
	pushq	%rbp
	.seh_pushreg	%rbp
	movq	%rsp, %rbp
	.seh_setframe	%rbp, 0
	subq	$32, %rsp
	.seh_stackalloc	32
	.seh_endprologue
	movq	%rcx, 16(%rbp)
	movq	16(%rbp), %rax
	movq	%rax, %rcx
	call	_ZNSt22_Optional_payload_baseISt17reference_wrapperIN3cpr16ProgressCallbackEEEC2Ev
	nop
	addq	$32, %rsp
	popq	%rbp
	ret
	.seh_endproc
	.section	.text$_ZNSt14_Optional_baseISt17reference_wrapperIN3cpr16ProgressCallbackEELb1ELb1EEC2Ev,"x"
	.linkonce discard
	.align 2
	.globl	_ZNSt14_Optional_baseISt17reference_wrapperIN3cpr16ProgressCallbackEELb1ELb1EEC2Ev
	.def	_ZNSt14_Optional_baseISt17reference_wrapperIN3cpr16ProgressCallbackEELb1ELb1EEC2Ev;	.scl	2;	.type	32;	.endef
	.seh_proc	_ZNSt14_Optional_baseISt17reference_wrapperIN3cpr16ProgressCallbackEELb1ELb1EEC2Ev
_ZNSt14_Optional_baseISt17reference_wrapperIN3cpr16ProgressCallbackEELb1ELb1EEC2Ev:
.LFB13554:
	pushq	%rbp
	.seh_pushreg	%rbp
	movq	%rsp, %rbp
	.seh_setframe	%rbp, 0
	subq	$32, %rsp
	.seh_stackalloc	32
	.seh_endprologue
	movq	%rcx, 16(%rbp)
	movq	16(%rbp), %rax
	movq	%rax, %rcx
	call	_ZNSt17_Optional_payloadISt17reference_wrapperIN3cpr16ProgressCallbackEELb1ELb1ELb1EEC1Ev
	nop
	addq	$32, %rsp
	popq	%rbp
	ret
	.seh_endproc
	.section	.text$_ZNSt8optionalISt17reference_wrapperIN3cpr16ProgressCallbackEEEC1Ev,"x"
	.linkonce discard
	.align 2
	.globl	_ZNSt8optionalISt17reference_wrapperIN3cpr16ProgressCallbackEEEC1Ev
	.def	_ZNSt8optionalISt17reference_wrapperIN3cpr16ProgressCallbackEEEC1Ev;	.scl	2;	.type	32;	.endef
	.seh_proc	_ZNSt8optionalISt17reference_wrapperIN3cpr16ProgressCallbackEEEC1Ev
_ZNSt8optionalISt17reference_wrapperIN3cpr16ProgressCallbackEEEC1Ev:
.LFB13557:
	pushq	%rbp
	.seh_pushreg	%rbp
	movq	%rsp, %rbp
	.seh_setframe	%rbp, 0
	subq	$32, %rsp
	.seh_stackalloc	32
	.seh_endprologue
	movq	%rcx, 16(%rbp)
	movq	16(%rbp), %rax
	movq	%rax, %rcx
	call	_ZNSt14_Optional_baseISt17reference_wrapperIN3cpr16ProgressCallbackEELb1ELb1EEC2Ev
	nop
	addq	$32, %rsp
	popq	%rbp
	ret
	.seh_endproc
	.section	.text$_ZN3cpr20CancellationCallbackC1Ev,"x"
	.linkonce discard
	.align 2
	.globl	_ZN3cpr20CancellationCallbackC1Ev
	.def	_ZN3cpr20CancellationCallbackC1Ev;	.scl	2;	.type	32;	.endef
	.seh_proc	_ZN3cpr20CancellationCallbackC1Ev
_ZN3cpr20CancellationCallbackC1Ev:
.LFB13559:
	pushq	%rbp
	.seh_pushreg	%rbp
	movq	%rsp, %rbp
	.seh_setframe	%rbp, 0
	subq	$32, %rsp
	.seh_stackalloc	32
	.seh_endprologue
	movq	%rcx, 16(%rbp)
	movq	16(%rbp), %rax
	movq	%rax, %rcx
	call	_ZNSt10shared_ptrISt6atomicIbEEC1Ev
	movq	16(%rbp), %rax
	addq	$16, %rax
	movq	%rax, %rcx
	call	_ZNSt8optionalISt17reference_wrapperIN3cpr16ProgressCallbackEEEC1Ev
	nop
	addq	$32, %rsp
	popq	%rbp
	ret
	.seh_endproc
	.section	.text$_ZN3cpr20CancellationCallbackD1Ev,"x"
	.linkonce discard
	.align 2
	.globl	_ZN3cpr20CancellationCallbackD1Ev
	.def	_ZN3cpr20CancellationCallbackD1Ev;	.scl	2;	.type	32;	.endef
	.seh_proc	_ZN3cpr20CancellationCallbackD1Ev
_ZN3cpr20CancellationCallbackD1Ev:
.LFB13562:
	pushq	%rbp
	.seh_pushreg	%rbp
	movq	%rsp, %rbp
	.seh_setframe	%rbp, 0
	subq	$32, %rsp
	.seh_stackalloc	32
	.seh_endprologue
	movq	%rcx, 16(%rbp)
	movq	16(%rbp), %rax
	movq	%rax, %rcx
	call	_ZNSt10shared_ptrISt6atomicIbEED1Ev
	nop
	addq	$32, %rsp
	popq	%rbp
	ret
	.seh_endproc
	.section	.text$_ZNSt5queueISt10shared_ptrIN3cpr11InterceptorEESt5dequeIS3_SaIS3_EEED1Ev,"x"
	.linkonce discard
	.align 2
	.globl	_ZNSt5queueISt10shared_ptrIN3cpr11InterceptorEESt5dequeIS3_SaIS3_EEED1Ev
	.def	_ZNSt5queueISt10shared_ptrIN3cpr11InterceptorEESt5dequeIS3_SaIS3_EEED1Ev;	.scl	2;	.type	32;	.endef
	.seh_proc	_ZNSt5queueISt10shared_ptrIN3cpr11InterceptorEESt5dequeIS3_SaIS3_EEED1Ev
_ZNSt5queueISt10shared_ptrIN3cpr11InterceptorEESt5dequeIS3_SaIS3_EEED1Ev:
.LFB13566:
	pushq	%rbp
	.seh_pushreg	%rbp
	movq	%rsp, %rbp
	.seh_setframe	%rbp, 0
	subq	$32, %rsp
	.seh_stackalloc	32
	.seh_endprologue
	movq	%rcx, 16(%rbp)
	movq	16(%rbp), %rax
	movq	%rax, %rcx
	call	_ZNSt5dequeISt10shared_ptrIN3cpr11InterceptorEESaIS3_EED1Ev
	nop
	addq	$32, %rsp
	popq	%rbp
	ret
	.seh_endproc
	.section	.text$_ZN3cpr8RedirectC1Ev,"x"
	.linkonce discard
	.align 2
	.globl	_ZN3cpr8RedirectC1Ev
	.def	_ZN3cpr8RedirectC1Ev;	.scl	2;	.type	32;	.endef
	.seh_proc	_ZN3cpr8RedirectC1Ev
_ZN3cpr8RedirectC1Ev:
.LFB13569:
	pushq	%rbp
	.seh_pushreg	%rbp
	movq	%rsp, %rbp
	.seh_setframe	%rbp, 0
	.seh_endprologue
	movq	%rcx, 16(%rbp)
	movq	16(%rbp), %rax
	movl	$50, (%rax)
	movq	16(%rbp), %rax
	movb	$1, 4(%rax)
	movq	16(%rbp), %rax
	movb	$0, 5(%rax)
	movq	16(%rbp), %rax
	movb	$7, 6(%rax)
	nop
	popq	%rbp
	ret
	.seh_endproc
	.section .rdata,"dr"
.LC11:
	.ascii "curl/\0"
	.text
	.align 2
	.globl	_ZN3cpr7SessionC2Ev
	.def	_ZN3cpr7SessionC2Ev;	.scl	2;	.type	32;	.endef
	.seh_proc	_ZN3cpr7SessionC2Ev
_ZN3cpr7SessionC2Ev:
.LFB13570:
	pushq	%rbp
	.seh_pushreg	%rbp
	pushq	%rdi
	.seh_pushreg	%rdi
	pushq	%rsi
	.seh_pushreg	%rsi
	pushq	%rbx
	.seh_pushreg	%rbx
	subq	$152, %rsp
	.seh_stackalloc	152
	leaq	144(%rsp), %rbp
	.seh_setframe	%rbp, 144
	.seh_endprologue
	movq	%rcx, 48(%rbp)
	movq	48(%rbp), %rax
	movq	%rax, %rcx
	call	_ZNSt23enable_shared_from_thisIN3cpr7SessionEEC2Ev
	movq	48(%rbp), %rax
	movb	$0, 16(%rax)
	movq	48(%rbp), %rax
	movb	$0, 17(%rax)
	movq	48(%rbp), %rax
	leaq	24(%rax), %rsi
	movl	$288, %ecx
.LEHB30:
	call	_Znwy
.LEHE30:
	movq	%rax, %rbx
	movl	$1, %edi
	movq	%rbx, %rcx
.LEHB31:
	call	_ZN3cpr10CurlHolderC1Ev
	movl	$0, %edi
	movq	%rbx, %rdx
	movq	%rsi, %rcx
	call	_ZNSt10shared_ptrIN3cpr10CurlHolderEEC1IS1_vEEPT_
.LEHE31:
	movq	48(%rbp), %rax
	addq	$40, %rax
	movq	%rax, %rcx
	call	_ZN3cpr3UrlC1Ev
	movq	48(%rbp), %rax
	addq	$80, %rax
	movq	%rax, %rcx
	call	_ZN3cpr10ParametersC1Ev
	movq	48(%rbp), %rax
	addq	$112, %rax
	movq	%rax, %rcx
	call	_ZN3cpr7ProxiesC1Ev
	movq	48(%rbp), %rax
	addq	$160, %rax
	movq	%rax, %rcx
	call	_ZN3cpr19ProxyAuthenticationC1Ev
	movq	48(%rbp), %rax
	addq	$208, %rax
	movq	%rax, %rcx
	call	_ZNSt3mapINSt7__cxx1112basic_stringIcSt11char_traitsIcESaIcEEES5_N3cpr22CaseInsensitiveCompareESaISt4pairIKS5_S5_EEEC1Ev
	movq	48(%rbp), %rax
	addq	$256, %rax
	movq	%rax, %rcx
	call	_ZN3cpr14AcceptEncodingC1Ev
	movq	48(%rbp), %rax
	addq	$312, %rax
	movq	%rax, %rcx
	call	_ZN3cpr12ReadCallbackC1Ev
	movq	48(%rbp), %rax
	addq	$360, %rax
	movq	%rax, %rcx
	call	_ZN3cpr14HeaderCallbackC1Ev
	movq	48(%rbp), %rax
	addq	$400, %rax
	movq	%rax, %rcx
	call	_ZN3cpr13WriteCallbackC1Ev
	movq	48(%rbp), %rax
	addq	$440, %rax
	movq	%rax, %rcx
	call	_ZN3cpr16ProgressCallbackC1Ev
	movq	48(%rbp), %rax
	addq	$480, %rax
	movq	%rax, %rcx
	call	_ZN3cpr13DebugCallbackC1Ev
	movq	48(%rbp), %rax
	addq	$520, %rax
	movq	%rax, %rcx
	call	_ZN3cpr20CancellationCallbackC1Ev
	movq	48(%rbp), %rax
	movq	$0, 552(%rax)
	movq	48(%rbp), %rax
	addq	$560, %rax
	movq	%rax, %rcx
	call	_ZNSt7__cxx1112basic_stringIcSt11char_traitsIcESaIcEEC1Ev
	movq	48(%rbp), %rax
	addq	$592, %rax
	movq	%rax, %rcx
	call	_ZNSt7__cxx1112basic_stringIcSt11char_traitsIcESaIcEEC1Ev
	movq	48(%rbp), %rax
	addq	$624, %rax
	movq	%rax, %rcx
.LEHB32:
	call	_ZNSt5queueISt10shared_ptrIN3cpr11InterceptorEESt5dequeIS3_SaIS3_EEEC1IS6_vEEv
.LEHE32:
	movq	48(%rbp), %rax
	movb	$0, 704(%rax)
	movq	48(%rbp), %rax
	movb	$0, 705(%rax)
	movl	$11, %ecx
	movq	__imp_curl_version_info(%rip), %rax
.LEHB33:
	call	*%rax
.LEHE33:
	movq	%rax, -8(%rbp)
	movq	-8(%rbp), %rax
	movq	8(%rax), %rdx
	leaq	-33(%rbp), %rax
	movq	%rax, -16(%rbp)
	nop
	nop
	leaq	-33(%rbp), %rcx
	leaq	-80(%rbp), %rax
	movq	%rcx, %r8
	movq	%rax, %rcx
.LEHB34:
	call	_ZNSt7__cxx1112basic_stringIcSt11char_traitsIcESaIcEEC1IS3_EEPKcRKS3_
.LEHE34:
	leaq	-112(%rbp), %rax
	leaq	-80(%rbp), %rdx
	movq	%rdx, %r8
	leaq	.LC11(%rip), %rdx
	movq	%rax, %rcx
.LEHB35:
	call	_ZStplIcSt11char_traitsIcESaIcEENSt7__cxx1112basic_stringIT_T0_T1_EEPKS5_OS8_
.LEHE35:
	leaq	-80(%rbp), %rax
	movq	%rax, %rcx
	call	_ZNSt7__cxx1112basic_stringIcSt11char_traitsIcESaIcEED1Ev
	leaq	-33(%rbp), %rax
	movq	%rax, %rcx
	call	_ZNSt15__new_allocatorIcED2Ev
	nop
	leaq	-112(%rbp), %rax
	movq	%rax, %rcx
	call	_ZNKSt7__cxx1112basic_stringIcSt11char_traitsIcESaIcEE5c_strEv
	movq	%rax, %rbx
	movq	48(%rbp), %rax
	addq	$24, %rax
	movq	%rax, %rcx
	call	_ZNKSt19__shared_ptr_accessIN3cpr10CurlHolderELN9__gnu_cxx12_Lock_policyE2ELb0ELb0EEptEv
	movq	(%rax), %rax
	movq	%rbx, %r8
	movl	$10018, %edx
	movq	%rax, %rcx
	movq	__imp_curl_easy_setopt(%rip), %rax
.LEHB36:
	call	*%rax
	movl	$0, -32(%rbp)
	movb	$0, -28(%rbp)
	movb	$0, -27(%rbp)
	movb	$0, -26(%rbp)
	leaq	-32(%rbp), %rax
	movq	%rax, %rcx
	call	_ZN3cpr8RedirectC1Ev
	leaq	-32(%rbp), %rdx
	movq	48(%rbp), %rax
	movq	%rax, %rcx
	call	_ZN3cpr7Session11SetRedirectERKNS_8RedirectE
	movq	48(%rbp), %rax
	addq	$24, %rax
	movq	%rax, %rcx
	call	_ZNKSt19__shared_ptr_accessIN3cpr10CurlHolderELN9__gnu_cxx12_Lock_policyE2ELb0ELb0EEptEv
	movq	(%rax), %rax
	movl	$1, %r8d
	movl	$43, %edx
	movq	%rax, %rcx
	movq	__imp_curl_easy_setopt(%rip), %rax
	call	*%rax
	movq	48(%rbp), %rax
	addq	$24, %rax
	movq	%rax, %rcx
	call	_ZNKSt19__shared_ptr_accessIN3cpr10CurlHolderELN9__gnu_cxx12_Lock_policyE2ELb0ELb0EEptEv
	addq	$32, %rax
	movq	%rax, -24(%rbp)
	movq	-24(%rbp), %rbx
	movq	48(%rbp), %rax
	addq	$24, %rax
	movq	%rax, %rcx
	call	_ZNKSt19__shared_ptr_accessIN3cpr10CurlHolderELN9__gnu_cxx12_Lock_policyE2ELb0ELb0EEptEv
	movq	(%rax), %rax
	movq	%rbx, %r8
	movl	$10010, %edx
	movq	%rax, %rcx
	movq	__imp_curl_easy_setopt(%rip), %rax
	call	*%rax
	movq	48(%rbp), %rax
	addq	$24, %rax
	movq	%rax, %rcx
	call	_ZNKSt19__shared_ptr_accessIN3cpr10CurlHolderELN9__gnu_cxx12_Lock_policyE2ELb0ELb0EEptEv
	movq	(%rax), %rax
	leaq	.LC1(%rip), %r8
	movl	$10031, %edx
	movq	%rax, %rcx
	movq	__imp_curl_easy_setopt(%rip), %rax
	call	*%rax
	movq	48(%rbp), %rax
	addq	$24, %rax
	movq	%rax, %rcx
	call	_ZNKSt19__shared_ptr_accessIN3cpr10CurlHolderELN9__gnu_cxx12_Lock_policyE2ELb0ELb0EEptEv
	movq	(%rax), %rax
	movl	$1, %r8d
	movl	$213, %edx
	movq	%rax, %rcx
	movq	__imp_curl_easy_setopt(%rip), %rax
	call	*%rax
.LEHE36:
	leaq	-112(%rbp), %rax
	movq	%rax, %rcx
	call	_ZNSt7__cxx1112basic_stringIcSt11char_traitsIcESaIcEED1Ev
	jmp	.L358
.L352:
	movq	%rax, %rsi
	testb	%dil, %dil
	je	.L344
	movl	$288, %edx
	movq	%rbx, %rcx
	call	_ZdlPvy
.L344:
	movq	%rsi, %rbx
	jmp	.L345
.L356:
	movq	%rax, %rbx
	leaq	-80(%rbp), %rax
	movq	%rax, %rcx
	call	_ZNSt7__cxx1112basic_stringIcSt11char_traitsIcESaIcEED1Ev
	jmp	.L347
.L355:
	movq	%rax, %rbx
.L347:
	leaq	-33(%rbp), %rax
	movq	%rax, %rcx
	call	_ZNSt15__new_allocatorIcED2Ev
	nop
	jmp	.L348
.L357:
	movq	%rax, %rbx
	leaq	-112(%rbp), %rax
	movq	%rax, %rcx
	call	_ZNSt7__cxx1112basic_stringIcSt11char_traitsIcESaIcEED1Ev
	jmp	.L348
.L354:
	movq	%rax, %rbx
.L348:
	movq	48(%rbp), %rax
	addq	$624, %rax
	movq	%rax, %rcx
	call	_ZNSt5queueISt10shared_ptrIN3cpr11InterceptorEESt5dequeIS3_SaIS3_EEED1Ev
	jmp	.L350
.L353:
	movq	%rax, %rbx
.L350:
	movq	48(%rbp), %rax
	addq	$592, %rax
	movq	%rax, %rcx
	call	_ZNSt7__cxx1112basic_stringIcSt11char_traitsIcESaIcEED1Ev
	movq	48(%rbp), %rax
	addq	$560, %rax
	movq	%rax, %rcx
	call	_ZNSt7__cxx1112basic_stringIcSt11char_traitsIcESaIcEED1Ev
	movq	48(%rbp), %rax
	addq	$520, %rax
	movq	%rax, %rcx
	call	_ZN3cpr20CancellationCallbackD1Ev
	movq	48(%rbp), %rax
	addq	$480, %rax
	movq	%rax, %rcx
	call	_ZN3cpr13DebugCallbackD1Ev
	movq	48(%rbp), %rax
	addq	$440, %rax
	movq	%rax, %rcx
	call	_ZN3cpr16ProgressCallbackD1Ev
	movq	48(%rbp), %rax
	addq	$400, %rax
	movq	%rax, %rcx
	call	_ZN3cpr13WriteCallbackD1Ev
	movq	48(%rbp), %rax
	addq	$360, %rax
	movq	%rax, %rcx
	call	_ZN3cpr14HeaderCallbackD1Ev
	movq	48(%rbp), %rax
	addq	$312, %rax
	movq	%rax, %rcx
	call	_ZN3cpr12ReadCallbackD1Ev
	movq	48(%rbp), %rax
	addq	$256, %rax
	movq	%rax, %rcx
	call	_ZN3cpr14AcceptEncodingD1Ev
	movq	48(%rbp), %rax
	addq	$208, %rax
	movq	%rax, %rcx
	call	_ZNSt3mapINSt7__cxx1112basic_stringIcSt11char_traitsIcESaIcEEES5_N3cpr22CaseInsensitiveCompareESaISt4pairIKS5_S5_EEED1Ev
	movq	48(%rbp), %rax
	addq	$160, %rax
	movq	%rax, %rcx
	call	_ZN3cpr19ProxyAuthenticationD1Ev
	movq	48(%rbp), %rax
	addq	$112, %rax
	movq	%rax, %rcx
	call	_ZN3cpr7ProxiesD1Ev
	movq	48(%rbp), %rax
	addq	$80, %rax
	movq	%rax, %rcx
	call	_ZN3cpr10ParametersD1Ev
	movq	48(%rbp), %rax
	addq	$40, %rax
	movq	%rax, %rcx
	call	_ZN3cpr3UrlD1Ev
	movq	48(%rbp), %rax
	addq	$24, %rax
	movq	%rax, %rcx
	call	_ZNSt10shared_ptrIN3cpr10CurlHolderEED1Ev
	jmp	.L345
.L351:
	movq	%rax, %rbx
.L345:
	movq	48(%rbp), %rax
	movq	%rax, %rcx
	call	_ZNSt23enable_shared_from_thisIN3cpr7SessionEED2Ev
	movq	%rbx, %rax
	movq	%rax, %rcx
.LEHB37:
	call	_Unwind_Resume
	nop
.LEHE37:
.L358:
	addq	$152, %rsp
	popq	%rbx
	popq	%rsi
	popq	%rdi
	popq	%rbp
	ret
	.seh_handler	__gxx_personality_seh0, @unwind, @except
	.seh_handlerdata
.LLSDA13570:
	.byte	0xff
	.byte	0xff
	.byte	0x1
	.uleb128 .LLSDACSE13570-.LLSDACSB13570
.LLSDACSB13570:
	.uleb128 .LEHB30-.LFB13570
	.uleb128 .LEHE30-.LEHB30
	.uleb128 .L351-.LFB13570
	.uleb128 0
	.uleb128 .LEHB31-.LFB13570
	.uleb128 .LEHE31-.LEHB31
	.uleb128 .L352-.LFB13570
	.uleb128 0
	.uleb128 .LEHB32-.LFB13570
	.uleb128 .LEHE32-.LEHB32
	.uleb128 .L353-.LFB13570
	.uleb128 0
	.uleb128 .LEHB33-.LFB13570
	.uleb128 .LEHE33-.LEHB33
	.uleb128 .L354-.LFB13570
	.uleb128 0
	.uleb128 .LEHB34-.LFB13570
	.uleb128 .LEHE34-.LEHB34
	.uleb128 .L355-.LFB13570
	.uleb128 0
	.uleb128 .LEHB35-.LFB13570
	.uleb128 .LEHE35-.LEHB35
	.uleb128 .L356-.LFB13570
	.uleb128 0
	.uleb128 .LEHB36-.LFB13570
	.uleb128 .LEHE36-.LEHB36
	.uleb128 .L357-.LFB13570
	.uleb128 0
	.uleb128 .LEHB37-.LFB13570
	.uleb128 .LEHE37-.LEHB37
	.uleb128 0
	.uleb128 0
.LLSDACSE13570:
	.text
	.seh_endproc
	.globl	_ZN3cpr7SessionC1Ev
	.def	_ZN3cpr7SessionC1Ev;	.scl	2;	.type	32;	.endef
	.set	_ZN3cpr7SessionC1Ev,_ZN3cpr7SessionC2Ev
	.section	.text$_ZN3cpr7CookiesD1Ev,"x"
	.linkonce discard
	.align 2
	.globl	_ZN3cpr7CookiesD1Ev
	.def	_ZN3cpr7CookiesD1Ev;	.scl	2;	.type	32;	.endef
	.seh_proc	_ZN3cpr7CookiesD1Ev
_ZN3cpr7CookiesD1Ev:
.LFB13576:
	pushq	%rbp
	.seh_pushreg	%rbp
	movq	%rsp, %rbp
	.seh_setframe	%rbp, 0
	subq	$32, %rsp
	.seh_stackalloc	32
	.seh_endprologue
	movq	%rcx, 16(%rbp)
	movq	16(%rbp), %rax
	addq	$8, %rax
	movq	%rax, %rcx
	call	_ZNSt6vectorIN3cpr6CookieESaIS1_EED1Ev
	nop
	addq	$32, %rsp
	popq	%rbp
	ret
	.seh_endproc
	.section	.text$_ZN3cpr5ErrorD1Ev,"x"
	.linkonce discard
	.align 2
	.globl	_ZN3cpr5ErrorD1Ev
	.def	_ZN3cpr5ErrorD1Ev;	.scl	2;	.type	32;	.endef
	.seh_proc	_ZN3cpr5ErrorD1Ev
_ZN3cpr5ErrorD1Ev:
.LFB13579:
	pushq	%rbp
	.seh_pushreg	%rbp
	movq	%rsp, %rbp
	.seh_setframe	%rbp, 0
	subq	$32, %rsp
	.seh_stackalloc	32
	.seh_endprologue
	movq	%rcx, 16(%rbp)
	movq	16(%rbp), %rax
	addq	$8, %rax
	movq	%rax, %rcx
	call	_ZNSt7__cxx1112basic_stringIcSt11char_traitsIcESaIcEED1Ev
	nop
	addq	$32, %rsp
	popq	%rbp
	ret
	.seh_endproc
	.section	.text$_ZN3cpr8ResponseD1Ev,"x"
	.linkonce discard
	.align 2
	.globl	_ZN3cpr8ResponseD1Ev
	.def	_ZN3cpr8ResponseD1Ev;	.scl	2;	.type	32;	.endef
	.seh_proc	_ZN3cpr8ResponseD1Ev
_ZN3cpr8ResponseD1Ev:
.LFB13581:
	pushq	%rbp
	.seh_pushreg	%rbp
	movq	%rsp, %rbp
	.seh_setframe	%rbp, 0
	subq	$32, %rsp
	.seh_stackalloc	32
	.seh_endprologue
	movq	%rcx, 16(%rbp)
	movq	16(%rbp), %rax
	addq	$288, %rax
	movq	%rax, %rcx
	call	_ZNSt7__cxx1112basic_stringIcSt11char_traitsIcESaIcEED1Ev
	movq	16(%rbp), %rax
	addq	$256, %rax
	movq	%rax, %rcx
	call	_ZNSt7__cxx1112basic_stringIcSt11char_traitsIcESaIcEED1Ev
	movq	16(%rbp), %rax
	addq	$224, %rax
	movq	%rax, %rcx
	call	_ZNSt7__cxx1112basic_stringIcSt11char_traitsIcESaIcEED1Ev
	movq	16(%rbp), %rax
	addq	$184, %rax
	movq	%rax, %rcx
	call	_ZN3cpr5ErrorD1Ev
	movq	16(%rbp), %rax
	addq	$152, %rax
	movq	%rax, %rcx
	call	_ZN3cpr7CookiesD1Ev
	movq	16(%rbp), %rax
	addq	$104, %rax
	movq	%rax, %rcx
	call	_ZN3cpr3UrlD1Ev
	movq	16(%rbp), %rax
	addq	$56, %rax
	movq	%rax, %rcx
	call	_ZNSt3mapINSt7__cxx1112basic_stringIcSt11char_traitsIcESaIcEEES5_N3cpr22CaseInsensitiveCompareESaISt4pairIKS5_S5_EEED1Ev
	movq	16(%rbp), %rax
	addq	$24, %rax
	movq	%rax, %rcx
	call	_ZNSt7__cxx1112basic_stringIcSt11char_traitsIcESaIcEED1Ev
	movq	16(%rbp), %rax
	movq	%rax, %rcx
	call	_ZNSt10shared_ptrIN3cpr10CurlHolderEED1Ev
	nop
	addq	$32, %rsp
	popq	%rbp
	ret
	.seh_endproc
	.text
	.align 2
	.globl	_ZN3cpr7Session19makeDownloadRequestEv
	.def	_ZN3cpr7Session19makeDownloadRequestEv;	.scl	2;	.type	32;	.endef
	.seh_proc	_ZN3cpr7Session19makeDownloadRequestEv
_ZN3cpr7Session19makeDownloadRequestEv:
.LFB13572:
	pushq	%rbp
	.seh_pushreg	%rbp
	movq	%rsp, %rbp
	.seh_setframe	%rbp, 0
	subq	$48, %rsp
	.seh_stackalloc	48
	.seh_endprologue
	movq	%rcx, 16(%rbp)
	movq	%rdx, 24(%rbp)
	movq	24(%rbp), %rax
	addq	$624, %rax
	movq	%rax, %rcx
	call	_ZNKSt5queueISt10shared_ptrIN3cpr11InterceptorEESt5dequeIS3_SaIS3_EEE5emptyEv
	xorl	$1, %eax
	testb	%al, %al
	je	.L363
	movq	16(%rbp), %rax
	movq	24(%rbp), %rdx
	movq	%rax, %rcx
	call	_ZN3cpr7Session9interceptEv
	jmp	.L364
.L363:
	movq	24(%rbp), %rax
	movq	%rax, %rcx
	call	_ZN3cpr7Session13DoEasyPerformEv
	movl	%eax, -4(%rbp)
	movq	16(%rbp), %rax
	movl	-4(%rbp), %ecx
	movq	24(%rbp), %rdx
	movl	%ecx, %r8d
	movq	%rax, %rcx
	call	_ZN3cpr7Session16CompleteDownloadE8CURLcode
.L364:
	movq	16(%rbp), %rax
	addq	$48, %rsp
	popq	%rbp
	ret
	.seh_endproc
	.section .rdata,"dr"
	.align 8
.LC12:
	.ascii "./dependencies/src/cpr/session.cpp\0"
.LC13:
	.ascii "curl_->handle\0"
.LC14:
	.ascii "?\0"
	.text
	.align 2
	.globl	_ZN3cpr7Session13prepareCommonEv
	.def	_ZN3cpr7Session13prepareCommonEv;	.scl	2;	.type	32;	.endef
	.seh_proc	_ZN3cpr7Session13prepareCommonEv
_ZN3cpr7Session13prepareCommonEv:
.LFB13582:
	pushq	%rbp
	.seh_pushreg	%rbp
	pushq	%rbx
	.seh_pushreg	%rbx
	subq	$248, %rsp
	.seh_stackalloc	248
	leaq	240(%rsp), %rbp
	.seh_setframe	%rbp, 240
	.seh_endprologue
	movq	%rcx, 32(%rbp)
	movq	32(%rbp), %rax
	addq	$24, %rax
	movq	%rax, %rcx
	call	_ZNKSt19__shared_ptr_accessIN3cpr10CurlHolderELN9__gnu_cxx12_Lock_policyE2ELb0ELb0EEptEv
	movq	(%rax), %rax
	testq	%rax, %rax
	jne	.L366
	movl	$116, %r8d
	leaq	.LC12(%rip), %rax
	movq	%rax, %rdx
	leaq	.LC13(%rip), %rax
	movq	%rax, %rcx
	movq	__imp__assert(%rip), %rax
.LEHB38:
	call	*%rax
.L366:
	movq	32(%rbp), %rax
	movq	%rax, %rcx
	call	_ZN3cpr7Session17SetHeaderInternalEv
	movq	32(%rbp), %rax
	leaq	80(%rax), %rbx
	movq	32(%rbp), %rax
	addq	$24, %rax
	movq	%rax, %rcx
	call	_ZNKSt19__shared_ptr_accessIN3cpr10CurlHolderELN9__gnu_cxx12_Lock_policyE2ELb0ELb0EEdeEv
	movq	%rax, %rdx
	leaq	-128(%rbp), %rax
	movq	%rdx, %r8
	movq	%rbx, %rdx
	movq	%rax, %rcx
	call	_ZNK3cpr13CurlContainerINS_9ParameterEE10GetContentB5cxx11ERKNS_10CurlHolderE
.LEHE38:
	leaq	-128(%rbp), %rax
	movq	%rax, %rcx
	call	_ZNKSt7__cxx1112basic_stringIcSt11char_traitsIcESaIcEE5emptyEv
	xorl	$1, %eax
	testb	%al, %al
	je	.L367
	movq	32(%rbp), %rax
	leaq	40(%rax), %rdx
	leaq	-96(%rbp), %rax
	leaq	.LC14(%rip), %r8
	movq	%rax, %rcx
.LEHB39:
	call	_ZNK3cpr12StringHolderINS_3UrlEEplEPKc
.LEHE39:
	leaq	-208(%rbp), %rax
	leaq	-128(%rbp), %rcx
	leaq	-96(%rbp), %rdx
	movq	%rcx, %r8
	movq	%rax, %rcx
.LEHB40:
	call	_ZNK3cpr12StringHolderINS_3UrlEEplERKNSt7__cxx1112basic_stringIcSt11char_traitsIcESaIcEEE
.LEHE40:
	leaq	-96(%rbp), %rax
	movq	%rax, %rcx
	call	_ZN3cpr3UrlD1Ev
	leaq	-208(%rbp), %rax
	movq	%rax, %rcx
	call	_ZNK3cpr12StringHolderINS_3UrlEE5c_strEv
	movq	%rax, %rbx
	movq	32(%rbp), %rax
	addq	$24, %rax
	movq	%rax, %rcx
	call	_ZNKSt19__shared_ptr_accessIN3cpr10CurlHolderELN9__gnu_cxx12_Lock_policyE2ELb0ELb0EEptEv
	movq	(%rax), %rax
	movq	%rbx, %r8
	movl	$10002, %edx
	movq	%rax, %rcx
	movq	__imp_curl_easy_setopt(%rip), %rax
.LEHB41:
	call	*%rax
.LEHE41:
	leaq	-208(%rbp), %rax
	movq	%rax, %rcx
	call	_ZN3cpr3UrlD1Ev
	jmp	.L368
.L367:
	movq	32(%rbp), %rax
	addq	$40, %rax
	movq	%rax, %rcx
	call	_ZNK3cpr12StringHolderINS_3UrlEE5c_strEv
	movq	%rax, %rbx
	movq	32(%rbp), %rax
	addq	$24, %rax
	movq	%rax, %rcx
	call	_ZNKSt19__shared_ptr_accessIN3cpr10CurlHolderELN9__gnu_cxx12_Lock_policyE2ELb0ELb0EEptEv
	movq	(%rax), %rax
	movq	%rbx, %r8
	movl	$10002, %edx
	movq	%rax, %rcx
	movq	__imp_curl_easy_setopt(%rip), %rax
.LEHB42:
	call	*%rax
.L368:
	movq	32(%rbp), %rax
	addq	$40, %rax
	movq	%rax, %rcx
	call	_ZN3cpr12StringHolderINS_3UrlEE3strB5cxx11Ev
	movq	%rax, %rbx
	movq	32(%rbp), %rax
	addq	$40, %rax
	movq	%rax, %rcx
	call	_ZN3cpr12StringHolderINS_3UrlEE3strB5cxx11Ev
	movl	$0, %r8d
	movl	$58, %edx
	movq	%rax, %rcx
	call	_ZNKSt7__cxx1112basic_stringIcSt11char_traitsIcESaIcEE4findEcy
	movq	%rax, %rdx
	leaq	-160(%rbp), %rax
	movq	%rdx, %r9
	movl	$0, %r8d
	movq	%rbx, %rdx
	movq	%rax, %rcx
	call	_ZNKSt7__cxx1112basic_stringIcSt11char_traitsIcESaIcEE6substrEyy
.LEHE42:
	movq	32(%rbp), %rax
	leaq	112(%rax), %rcx
	leaq	-160(%rbp), %rax
	movq	%rax, %rdx
.LEHB43:
	call	_ZNK3cpr7Proxies3hasERKNSt7__cxx1112basic_stringIcSt11char_traitsIcESaIcEEE
	testb	%al, %al
	je	.L369
	movq	32(%rbp), %rax
	leaq	112(%rax), %rcx
	leaq	-160(%rbp), %rax
	movq	%rax, %rdx
	call	_ZN3cpr7ProxiesixERKNSt7__cxx1112basic_stringIcSt11char_traitsIcESaIcEEE
	movq	%rax, %rcx
	call	_ZNKSt7__cxx1112basic_stringIcSt11char_traitsIcESaIcEE5c_strEv
	movq	%rax, %rbx
	movq	32(%rbp), %rax
	addq	$24, %rax
	movq	%rax, %rcx
	call	_ZNKSt19__shared_ptr_accessIN3cpr10CurlHolderELN9__gnu_cxx12_Lock_policyE2ELb0ELb0EEptEv
	movq	(%rax), %rax
	movq	%rbx, %r8
	movl	$10004, %edx
	movq	%rax, %rcx
	movq	__imp_curl_easy_setopt(%rip), %rax
	call	*%rax
	movq	32(%rbp), %rax
	leaq	160(%rax), %rcx
	leaq	-160(%rbp), %rax
	movq	%rax, %rdx
	call	_ZNK3cpr19ProxyAuthentication3hasERKNSt7__cxx1112basic_stringIcSt11char_traitsIcESaIcEEE
	testb	%al, %al
	je	.L369
	movq	32(%rbp), %rax
	addq	$24, %rax
	movq	%rax, %rcx
	call	_ZNKSt19__shared_ptr_accessIN3cpr10CurlHolderELN9__gnu_cxx12_Lock_policyE2ELb0ELb0EEptEv
	movq	(%rax), %rax
	movl	$-17, %r8d
	movl	$111, %edx
	movq	%rax, %rcx
	movq	__imp_curl_easy_setopt(%rip), %rax
	call	*%rax
	movq	32(%rbp), %rax
	leaq	160(%rax), %rcx
	leaq	-160(%rbp), %rax
	movq	%rax, %rdx
	call	_ZN3cpr19ProxyAuthenticationixERKNSt7__cxx1112basic_stringIcSt11char_traitsIcESaIcEEE
	movq	%rax, %rbx
	movq	32(%rbp), %rax
	addq	$24, %rax
	movq	%rax, %rcx
	call	_ZNKSt19__shared_ptr_accessIN3cpr10CurlHolderELN9__gnu_cxx12_Lock_policyE2ELb0ELb0EEptEv
	movq	(%rax), %rax
	movq	%rbx, %r8
	movl	$10006, %edx
	movq	%rax, %rcx
	movq	__imp_curl_easy_setopt(%rip), %rax
	call	*%rax
.L369:
	movq	32(%rbp), %rax
	addq	$256, %rax
	movq	%rax, %rcx
	call	_ZNK3cpr14AcceptEncoding5emptyEv
	testb	%al, %al
	je	.L370
	movq	32(%rbp), %rax
	addq	$24, %rax
	movq	%rax, %rcx
	call	_ZNKSt19__shared_ptr_accessIN3cpr10CurlHolderELN9__gnu_cxx12_Lock_policyE2ELb0ELb0EEptEv
	movq	(%rax), %rax
	leaq	.LC1(%rip), %r8
	movl	$10102, %edx
	movq	%rax, %rcx
	movq	__imp_curl_easy_setopt(%rip), %rax
	call	*%rax
	jmp	.L371
.L370:
	movq	32(%rbp), %rax
	addq	$256, %rax
	movq	%rax, %rcx
	call	_ZNK3cpr14AcceptEncoding8disabledEv
	testb	%al, %al
	je	.L372
	movq	32(%rbp), %rax
	addq	$24, %rax
	movq	%rax, %rcx
	call	_ZNKSt19__shared_ptr_accessIN3cpr10CurlHolderELN9__gnu_cxx12_Lock_policyE2ELb0ELb0EEptEv
	movq	(%rax), %rax
	movl	$0, %r8d
	movl	$10102, %edx
	movq	%rax, %rcx
	movq	__imp_curl_easy_setopt(%rip), %rax
	call	*%rax
	jmp	.L371
.L372:
	movq	32(%rbp), %rax
	leaq	256(%rax), %rdx
	leaq	-48(%rbp), %rax
	movq	%rax, %rcx
	call	_ZNK3cpr14AcceptEncoding9getStringB5cxx11Ev
.LEHE43:
	leaq	-48(%rbp), %rax
	movq	%rax, %rcx
	call	_ZNKSt7__cxx1112basic_stringIcSt11char_traitsIcESaIcEE5c_strEv
	movq	%rax, %rbx
	movq	32(%rbp), %rax
	addq	$24, %rax
	movq	%rax, %rcx
	call	_ZNKSt19__shared_ptr_accessIN3cpr10CurlHolderELN9__gnu_cxx12_Lock_policyE2ELb0ELb0EEptEv
	movq	(%rax), %rax
	movq	%rbx, %r8
	movl	$10102, %edx
	movq	%rax, %rcx
	movq	__imp_curl_easy_setopt(%rip), %rax
.LEHB44:
	call	*%rax
.LEHE44:
	leaq	-48(%rbp), %rax
	movq	%rax, %rcx
	call	_ZNSt7__cxx1112basic_stringIcSt11char_traitsIcESaIcEED1Ev
.L371:
	movl	$0, -164(%rbp)
	movq	32(%rbp), %rax
	addq	$24, %rax
	movq	%rax, %rcx
	call	_ZNKSt19__shared_ptr_accessIN3cpr10CurlHolderELN9__gnu_cxx12_Lock_policyE2ELb0ELb0EEptEv
	movq	(%rax), %rax
	leaq	-164(%rbp), %rdx
	movq	%rdx, %r8
	movl	$216, %edx
	movq	%rax, %rcx
	movq	__imp_curl_easy_setopt(%rip), %rax
.LEHB45:
	call	*%rax
	movl	-164(%rbp), %eax
	andl	$2, %eax
	testl	%eax, %eax
	setne	%al
	movb	%al, -1(%rbp)
	movq	32(%rbp), %rax
	addq	$24, %rax
	movq	%rax, %rcx
	call	_ZNKSt19__shared_ptr_accessIN3cpr10CurlHolderELN9__gnu_cxx12_Lock_policyE2ELb0ELb0EEptEv
	movq	(%rax), %rax
	movl	$16, %r8d
	movl	$216, %edx
	movq	%rax, %rcx
	movq	__imp_curl_easy_setopt(%rip), %rax
	call	*%rax
	cmpb	$0, -1(%rbp)
	je	.L373
	movq	32(%rbp), %rax
	addq	$24, %rax
	movq	%rax, %rcx
	call	_ZNKSt19__shared_ptr_accessIN3cpr10CurlHolderELN9__gnu_cxx12_Lock_policyE2ELb0ELb0EEptEv
	movq	(%rax), %rax
	movl	$2, %r8d
	movl	$216, %edx
	movq	%rax, %rcx
	movq	__imp_curl_easy_setopt(%rip), %rax
	call	*%rax
.L373:
	movq	32(%rbp), %rax
	addq	$24, %rax
	movq	%rax, %rcx
	call	_ZNKSt19__shared_ptr_accessIN3cpr10CurlHolderELN9__gnu_cxx12_Lock_policyE2ELb0ELb0EEptEv
	addq	$32, %rax
	movl	$0, %edx
	movq	%rax, %rcx
	call	_ZNSt5arrayIcLy256EEixEy
	movb	$0, (%rax)
	movq	32(%rbp), %rax
	addq	$560, %rax
	movq	%rax, %rcx
	call	_ZNSt7__cxx1112basic_stringIcSt11char_traitsIcESaIcEE5clearEv
	movq	32(%rbp), %rax
	movq	552(%rax), %rax
	testq	%rax, %rax
	je	.L374
	movq	32(%rbp), %rax
	leaq	560(%rax), %rcx
	movq	32(%rbp), %rax
	movq	552(%rax), %rax
	movq	%rax, %rdx
	call	_ZNSt7__cxx1112basic_stringIcSt11char_traitsIcESaIcEE7reserveEy
.L374:
	movq	32(%rbp), %rax
	addq	$592, %rax
	movq	%rax, %rcx
	call	_ZNSt7__cxx1112basic_stringIcSt11char_traitsIcESaIcEE5clearEv
	movq	32(%rbp), %rax
	addq	$408, %rax
	movq	%rax, %rcx
	call	_ZNKSt8functionIFbNSt7__cxx1112basic_stringIcSt11char_traitsIcESaIcEEExEEcvbEv
	xorl	$1, %eax
	testb	%al, %al
	je	.L375
	movq	32(%rbp), %rax
	addq	$24, %rax
	movq	%rax, %rcx
	call	_ZNKSt19__shared_ptr_accessIN3cpr10CurlHolderELN9__gnu_cxx12_Lock_policyE2ELb0ELb0EEptEv
	movq	(%rax), %rax
	movq	.refptr._ZN3cpr4util13writeFunctionEPcyyPNSt7__cxx1112basic_stringIcSt11char_traitsIcESaIcEEE(%rip), %r8
	movl	$20011, %edx
	movq	%rax, %rcx
	movq	__imp_curl_easy_setopt(%rip), %rax
	call	*%rax
	movq	32(%rbp), %rax
	leaq	560(%rax), %rbx
	movq	32(%rbp), %rax
	addq	$24, %rax
	movq	%rax, %rcx
	call	_ZNKSt19__shared_ptr_accessIN3cpr10CurlHolderELN9__gnu_cxx12_Lock_policyE2ELb0ELb0EEptEv
	movq	(%rax), %rax
	movq	%rbx, %r8
	movl	$10001, %edx
	movq	%rax, %rcx
	movq	__imp_curl_easy_setopt(%rip), %rax
	call	*%rax
.L375:
	movq	32(%rbp), %rax
	addq	$368, %rax
	movq	%rax, %rcx
	call	_ZNKSt8functionIFbNSt7__cxx1112basic_stringIcSt11char_traitsIcESaIcEEExEEcvbEv
	xorl	$1, %eax
	testb	%al, %al
	je	.L376
	movq	32(%rbp), %rax
	addq	$24, %rax
	movq	%rax, %rcx
	call	_ZNKSt19__shared_ptr_accessIN3cpr10CurlHolderELN9__gnu_cxx12_Lock_policyE2ELb0ELb0EEptEv
	movq	(%rax), %rax
	movq	.refptr._ZN3cpr4util13writeFunctionEPcyyPNSt7__cxx1112basic_stringIcSt11char_traitsIcESaIcEEE(%rip), %r8
	movl	$20079, %edx
	movq	%rax, %rcx
	movq	__imp_curl_easy_setopt(%rip), %rax
	call	*%rax
	movq	32(%rbp), %rax
	leaq	592(%rax), %rbx
	movq	32(%rbp), %rax
	addq	$24, %rax
	movq	%rax, %rcx
	call	_ZNKSt19__shared_ptr_accessIN3cpr10CurlHolderELN9__gnu_cxx12_Lock_policyE2ELb0ELb0EEptEv
	movq	(%rax), %rax
	movq	%rbx, %r8
	movl	$10029, %edx
	movq	%rax, %rcx
	movq	__imp_curl_easy_setopt(%rip), %rax
	call	*%rax
.L376:
	movq	32(%rbp), %rax
	addq	$24, %rax
	movq	%rax, %rcx
	call	_ZNKSt19__shared_ptr_accessIN3cpr10CurlHolderELN9__gnu_cxx12_Lock_policyE2ELb0ELb0EEptEv
	movq	(%rax), %rax
	movl	$1, %r8d
	movl	$172, %edx
	movq	%rax, %rcx
	movq	__imp_curl_easy_setopt(%rip), %rax
	call	*%rax
.LEHE45:
	leaq	-160(%rbp), %rax
	movq	%rax, %rcx
	call	_ZNSt7__cxx1112basic_stringIcSt11char_traitsIcESaIcEED1Ev
	leaq	-128(%rbp), %rax
	movq	%rax, %rcx
	call	_ZNSt7__cxx1112basic_stringIcSt11char_traitsIcESaIcEED1Ev
	jmp	.L387
.L382:
	movq	%rax, %rbx
	leaq	-96(%rbp), %rax
	movq	%rax, %rcx
	call	_ZN3cpr3UrlD1Ev
	jmp	.L378
.L383:
	movq	%rax, %rbx
	leaq	-208(%rbp), %rax
	movq	%rax, %rcx
	call	_ZN3cpr3UrlD1Ev
	jmp	.L378
.L386:
	movq	%rax, %rbx
	leaq	-48(%rbp), %rax
	movq	%rax, %rcx
	call	_ZNSt7__cxx1112basic_stringIcSt11char_traitsIcESaIcEED1Ev
	jmp	.L381
.L385:
	movq	%rax, %rbx
.L381:
	leaq	-160(%rbp), %rax
	movq	%rax, %rcx
	call	_ZNSt7__cxx1112basic_stringIcSt11char_traitsIcESaIcEED1Ev
	jmp	.L378
.L384:
	movq	%rax, %rbx
.L378:
	leaq	-128(%rbp), %rax
	movq	%rax, %rcx
	call	_ZNSt7__cxx1112basic_stringIcSt11char_traitsIcESaIcEED1Ev
	movq	%rbx, %rax
	movq	%rax, %rcx
.LEHB46:
	call	_Unwind_Resume
	nop
.LEHE46:
.L387:
	addq	$248, %rsp
	popq	%rbx
	popq	%rbp
	ret
	.seh_handler	__gxx_personality_seh0, @unwind, @except
	.seh_handlerdata
.LLSDA13582:
	.byte	0xff
	.byte	0xff
	.byte	0x1
	.uleb128 .LLSDACSE13582-.LLSDACSB13582
.LLSDACSB13582:
	.uleb128 .LEHB38-.LFB13582
	.uleb128 .LEHE38-.LEHB38
	.uleb128 0
	.uleb128 0
	.uleb128 .LEHB39-.LFB13582
	.uleb128 .LEHE39-.LEHB39
	.uleb128 .L384-.LFB13582
	.uleb128 0
	.uleb128 .LEHB40-.LFB13582
	.uleb128 .LEHE40-.LEHB40
	.uleb128 .L382-.LFB13582
	.uleb128 0
	.uleb128 .LEHB41-.LFB13582
	.uleb128 .LEHE41-.LEHB41
	.uleb128 .L383-.LFB13582
	.uleb128 0
	.uleb128 .LEHB42-.LFB13582
	.uleb128 .LEHE42-.LEHB42
	.uleb128 .L384-.LFB13582
	.uleb128 0
	.uleb128 .LEHB43-.LFB13582
	.uleb128 .LEHE43-.LEHB43
	.uleb128 .L385-.LFB13582
	.uleb128 0
	.uleb128 .LEHB44-.LFB13582
	.uleb128 .LEHE44-.LEHB44
	.uleb128 .L386-.LFB13582
	.uleb128 0
	.uleb128 .LEHB45-.LFB13582
	.uleb128 .LEHE45-.LEHB45
	.uleb128 .L385-.LFB13582
	.uleb128 0
	.uleb128 .LEHB46-.LFB13582
	.uleb128 .LEHE46-.LEHB46
	.uleb128 0
	.uleb128 0
.LLSDACSE13582:
	.text
	.seh_endproc
	.align 2
	.globl	_ZN3cpr7Session21prepareCommonDownloadEv
	.def	_ZN3cpr7Session21prepareCommonDownloadEv;	.scl	2;	.type	32;	.endef
	.seh_proc	_ZN3cpr7Session21prepareCommonDownloadEv
_ZN3cpr7Session21prepareCommonDownloadEv:
.LFB13583:
	pushq	%rbp
	.seh_pushreg	%rbp
	pushq	%rbx
	.seh_pushreg	%rbx
	subq	$200, %rsp
	.seh_stackalloc	200
	leaq	192(%rsp), %rbp
	.seh_setframe	%rbp, 192
	.seh_endprologue
	movq	%rcx, 32(%rbp)
	movq	32(%rbp), %rax
	addq	$24, %rax
	movq	%rax, %rcx
	call	_ZNKSt19__shared_ptr_accessIN3cpr10CurlHolderELN9__gnu_cxx12_Lock_policyE2ELb0ELb0EEptEv
	movq	(%rax), %rax
	testq	%rax, %rax
	jne	.L389
	movl	$191, %r8d
	leaq	.LC12(%rip), %rax
	movq	%rax, %rdx
	leaq	.LC13(%rip), %rax
	movq	%rax, %rcx
	movq	__imp__assert(%rip), %rax
.LEHB47:
	call	*%rax
.L389:
	movq	32(%rbp), %rax
	movq	%rax, %rcx
	call	_ZN3cpr7Session17SetHeaderInternalEv
	movq	32(%rbp), %rax
	leaq	80(%rax), %rbx
	movq	32(%rbp), %rax
	addq	$24, %rax
	movq	%rax, %rcx
	call	_ZNKSt19__shared_ptr_accessIN3cpr10CurlHolderELN9__gnu_cxx12_Lock_policyE2ELb0ELb0EEdeEv
	movq	%rax, %rdx
	leaq	-80(%rbp), %rax
	movq	%rdx, %r8
	movq	%rbx, %rdx
	movq	%rax, %rcx
	call	_ZNK3cpr13CurlContainerINS_9ParameterEE10GetContentB5cxx11ERKNS_10CurlHolderE
.LEHE47:
	leaq	-80(%rbp), %rax
	movq	%rax, %rcx
	call	_ZNKSt7__cxx1112basic_stringIcSt11char_traitsIcESaIcEE5emptyEv
	xorl	$1, %eax
	testb	%al, %al
	je	.L390
	movq	32(%rbp), %rax
	leaq	40(%rax), %rdx
	leaq	-48(%rbp), %rax
	leaq	.LC14(%rip), %r8
	movq	%rax, %rcx
.LEHB48:
	call	_ZNK3cpr12StringHolderINS_3UrlEEplEPKc
.LEHE48:
	leaq	-160(%rbp), %rax
	leaq	-80(%rbp), %rcx
	leaq	-48(%rbp), %rdx
	movq	%rcx, %r8
	movq	%rax, %rcx
.LEHB49:
	call	_ZNK3cpr12StringHolderINS_3UrlEEplERKNSt7__cxx1112basic_stringIcSt11char_traitsIcESaIcEEE
.LEHE49:
	leaq	-48(%rbp), %rax
	movq	%rax, %rcx
	call	_ZN3cpr3UrlD1Ev
	leaq	-160(%rbp), %rax
	movq	%rax, %rcx
	call	_ZNK3cpr12StringHolderINS_3UrlEE5c_strEv
	movq	%rax, %rbx
	movq	32(%rbp), %rax
	addq	$24, %rax
	movq	%rax, %rcx
	call	_ZNKSt19__shared_ptr_accessIN3cpr10CurlHolderELN9__gnu_cxx12_Lock_policyE2ELb0ELb0EEptEv
	movq	(%rax), %rax
	movq	%rbx, %r8
	movl	$10002, %edx
	movq	%rax, %rcx
	movq	__imp_curl_easy_setopt(%rip), %rax
.LEHB50:
	call	*%rax
.LEHE50:
	leaq	-160(%rbp), %rax
	movq	%rax, %rcx
	call	_ZN3cpr3UrlD1Ev
	jmp	.L391
.L390:
	movq	32(%rbp), %rax
	addq	$40, %rax
	movq	%rax, %rcx
	call	_ZNK3cpr12StringHolderINS_3UrlEE5c_strEv
	movq	%rax, %rbx
	movq	32(%rbp), %rax
	addq	$24, %rax
	movq	%rax, %rcx
	call	_ZNKSt19__shared_ptr_accessIN3cpr10CurlHolderELN9__gnu_cxx12_Lock_policyE2ELb0ELb0EEptEv
	movq	(%rax), %rax
	movq	%rbx, %r8
	movl	$10002, %edx
	movq	%rax, %rcx
	movq	__imp_curl_easy_setopt(%rip), %rax
.LEHB51:
	call	*%rax
.L391:
	movq	32(%rbp), %rax
	addq	$40, %rax
	movq	%rax, %rcx
	call	_ZN3cpr12StringHolderINS_3UrlEE3strB5cxx11Ev
	movq	%rax, %rbx
	movq	32(%rbp), %rax
	addq	$40, %rax
	movq	%rax, %rcx
	call	_ZN3cpr12StringHolderINS_3UrlEE3strB5cxx11Ev
	movl	$0, %r8d
	movl	$58, %edx
	movq	%rax, %rcx
	call	_ZNKSt7__cxx1112basic_stringIcSt11char_traitsIcESaIcEE4findEcy
	movq	%rax, %rdx
	leaq	-112(%rbp), %rax
	movq	%rdx, %r9
	movl	$0, %r8d
	movq	%rbx, %rdx
	movq	%rax, %rcx
	call	_ZNKSt7__cxx1112basic_stringIcSt11char_traitsIcESaIcEE6substrEyy
.LEHE51:
	movq	32(%rbp), %rax
	leaq	112(%rax), %rcx
	leaq	-112(%rbp), %rax
	movq	%rax, %rdx
.LEHB52:
	call	_ZNK3cpr7Proxies3hasERKNSt7__cxx1112basic_stringIcSt11char_traitsIcESaIcEEE
	testb	%al, %al
	je	.L392
	movq	32(%rbp), %rax
	leaq	112(%rax), %rcx
	leaq	-112(%rbp), %rax
	movq	%rax, %rdx
	call	_ZN3cpr7ProxiesixERKNSt7__cxx1112basic_stringIcSt11char_traitsIcESaIcEEE
	movq	%rax, %rcx
	call	_ZNKSt7__cxx1112basic_stringIcSt11char_traitsIcESaIcEE5c_strEv
	movq	%rax, %rbx
	movq	32(%rbp), %rax
	addq	$24, %rax
	movq	%rax, %rcx
	call	_ZNKSt19__shared_ptr_accessIN3cpr10CurlHolderELN9__gnu_cxx12_Lock_policyE2ELb0ELb0EEptEv
	movq	(%rax), %rax
	movq	%rbx, %r8
	movl	$10004, %edx
	movq	%rax, %rcx
	movq	__imp_curl_easy_setopt(%rip), %rax
	call	*%rax
	movq	32(%rbp), %rax
	leaq	160(%rax), %rcx
	leaq	-112(%rbp), %rax
	movq	%rax, %rdx
	call	_ZNK3cpr19ProxyAuthentication3hasERKNSt7__cxx1112basic_stringIcSt11char_traitsIcESaIcEEE
	testb	%al, %al
	je	.L392
	movq	32(%rbp), %rax
	addq	$24, %rax
	movq	%rax, %rcx
	call	_ZNKSt19__shared_ptr_accessIN3cpr10CurlHolderELN9__gnu_cxx12_Lock_policyE2ELb0ELb0EEptEv
	movq	(%rax), %rax
	movl	$-17, %r8d
	movl	$111, %edx
	movq	%rax, %rcx
	movq	__imp_curl_easy_setopt(%rip), %rax
	call	*%rax
	movq	32(%rbp), %rax
	leaq	160(%rax), %rcx
	leaq	-112(%rbp), %rax
	movq	%rax, %rdx
	call	_ZN3cpr19ProxyAuthenticationixERKNSt7__cxx1112basic_stringIcSt11char_traitsIcESaIcEEE
	movq	%rax, %rbx
	movq	32(%rbp), %rax
	addq	$24, %rax
	movq	%rax, %rcx
	call	_ZNKSt19__shared_ptr_accessIN3cpr10CurlHolderELN9__gnu_cxx12_Lock_policyE2ELb0ELb0EEptEv
	movq	(%rax), %rax
	movq	%rbx, %r8
	movl	$10006, %edx
	movq	%rax, %rcx
	movq	__imp_curl_easy_setopt(%rip), %rax
	call	*%rax
.L392:
	movq	32(%rbp), %rax
	addq	$24, %rax
	movq	%rax, %rcx
	call	_ZNKSt19__shared_ptr_accessIN3cpr10CurlHolderELN9__gnu_cxx12_Lock_policyE2ELb0ELb0EEptEv
	addq	$32, %rax
	movl	$0, %edx
	movq	%rax, %rcx
	call	_ZNSt5arrayIcLy256EEixEy
	movb	$0, (%rax)
	movq	32(%rbp), %rax
	addq	$592, %rax
	movq	%rax, %rcx
	call	_ZNSt7__cxx1112basic_stringIcSt11char_traitsIcESaIcEE5clearEv
	movq	32(%rbp), %rax
	addq	$368, %rax
	movq	%rax, %rcx
	call	_ZNKSt8functionIFbNSt7__cxx1112basic_stringIcSt11char_traitsIcESaIcEEExEEcvbEv
	testb	%al, %al
	je	.L393
	movq	32(%rbp), %rax
	addq	$24, %rax
	movq	%rax, %rcx
	call	_ZNKSt19__shared_ptr_accessIN3cpr10CurlHolderELN9__gnu_cxx12_Lock_policyE2ELb0ELb0EEptEv
	movq	(%rax), %rax
	movq	.refptr._ZN3cpr4util18headerUserFunctionEPcyyPKNS_14HeaderCallbackE(%rip), %r8
	movl	$20079, %edx
	movq	%rax, %rcx
	movq	__imp_curl_easy_setopt(%rip), %rax
	call	*%rax
	movq	32(%rbp), %rax
	leaq	360(%rax), %rbx
	movq	32(%rbp), %rax
	addq	$24, %rax
	movq	%rax, %rcx
	call	_ZNKSt19__shared_ptr_accessIN3cpr10CurlHolderELN9__gnu_cxx12_Lock_policyE2ELb0ELb0EEptEv
	movq	(%rax), %rax
	movq	%rbx, %r8
	movl	$10029, %edx
	movq	%rax, %rcx
	movq	__imp_curl_easy_setopt(%rip), %rax
	call	*%rax
	jmp	.L394
.L393:
	movq	32(%rbp), %rax
	addq	$24, %rax
	movq	%rax, %rcx
	call	_ZNKSt19__shared_ptr_accessIN3cpr10CurlHolderELN9__gnu_cxx12_Lock_policyE2ELb0ELb0EEptEv
	movq	(%rax), %rax
	movq	.refptr._ZN3cpr4util13writeFunctionEPcyyPNSt7__cxx1112basic_stringIcSt11char_traitsIcESaIcEEE(%rip), %r8
	movl	$20079, %edx
	movq	%rax, %rcx
	movq	__imp_curl_easy_setopt(%rip), %rax
	call	*%rax
	movq	32(%rbp), %rax
	leaq	592(%rax), %rbx
	movq	32(%rbp), %rax
	addq	$24, %rax
	movq	%rax, %rcx
	call	_ZNKSt19__shared_ptr_accessIN3cpr10CurlHolderELN9__gnu_cxx12_Lock_policyE2ELb0ELb0EEptEv
	movq	(%rax), %rax
	movq	%rbx, %r8
	movl	$10029, %edx
	movq	%rax, %rcx
	movq	__imp_curl_easy_setopt(%rip), %rax
	call	*%rax
.LEHE52:
.L394:
	leaq	-112(%rbp), %rax
	movq	%rax, %rcx
	call	_ZNSt7__cxx1112basic_stringIcSt11char_traitsIcESaIcEED1Ev
	leaq	-80(%rbp), %rax
	movq	%rax, %rcx
	call	_ZNSt7__cxx1112basic_stringIcSt11char_traitsIcESaIcEED1Ev
	jmp	.L403
.L399:
	movq	%rax, %rbx
	leaq	-48(%rbp), %rax
	movq	%rax, %rcx
	call	_ZN3cpr3UrlD1Ev
	jmp	.L396
.L400:
	movq	%rax, %rbx
	leaq	-160(%rbp), %rax
	movq	%rax, %rcx
	call	_ZN3cpr3UrlD1Ev
	jmp	.L396
.L402:
	movq	%rax, %rbx
	leaq	-112(%rbp), %rax
	movq	%rax, %rcx
	call	_ZNSt7__cxx1112basic_stringIcSt11char_traitsIcESaIcEED1Ev
	jmp	.L396
.L401:
	movq	%rax, %rbx
.L396:
	leaq	-80(%rbp), %rax
	movq	%rax, %rcx
	call	_ZNSt7__cxx1112basic_stringIcSt11char_traitsIcESaIcEED1Ev
	movq	%rbx, %rax
	movq	%rax, %rcx
.LEHB53:
	call	_Unwind_Resume
	nop
.LEHE53:
.L403:
	addq	$200, %rsp
	popq	%rbx
	popq	%rbp
	ret
	.seh_handler	__gxx_personality_seh0, @unwind, @except
	.seh_handlerdata
.LLSDA13583:
	.byte	0xff
	.byte	0xff
	.byte	0x1
	.uleb128 .LLSDACSE13583-.LLSDACSB13583
.LLSDACSB13583:
	.uleb128 .LEHB47-.LFB13583
	.uleb128 .LEHE47-.LEHB47
	.uleb128 0
	.uleb128 0
	.uleb128 .LEHB48-.LFB13583
	.uleb128 .LEHE48-.LEHB48
	.uleb128 .L401-.LFB13583
	.uleb128 0
	.uleb128 .LEHB49-.LFB13583
	.uleb128 .LEHE49-.LEHB49
	.uleb128 .L399-.LFB13583
	.uleb128 0
	.uleb128 .LEHB50-.LFB13583
	.uleb128 .LEHE50-.LEHB50
	.uleb128 .L400-.LFB13583
	.uleb128 0
	.uleb128 .LEHB51-.LFB13583
	.uleb128 .LEHE51-.LEHB51
	.uleb128 .L401-.LFB13583
	.uleb128 0
	.uleb128 .LEHB52-.LFB13583
	.uleb128 .LEHE52-.LEHB52
	.uleb128 .L402-.LFB13583
	.uleb128 0
	.uleb128 .LEHB53-.LFB13583
	.uleb128 .LEHE53-.LEHB53
	.uleb128 0
	.uleb128 0
.LLSDACSE13583:
	.text
	.seh_endproc
	.align 2
	.globl	_ZN3cpr7Session11makeRequestEv
	.def	_ZN3cpr7Session11makeRequestEv;	.scl	2;	.type	32;	.endef
	.seh_proc	_ZN3cpr7Session11makeRequestEv
_ZN3cpr7Session11makeRequestEv:
.LFB13584:
	pushq	%rbp
	.seh_pushreg	%rbp
	movq	%rsp, %rbp
	.seh_setframe	%rbp, 0
	subq	$48, %rsp
	.seh_stackalloc	48
	.seh_endprologue
	movq	%rcx, 16(%rbp)
	movq	%rdx, 24(%rbp)
	movq	24(%rbp), %rax
	addq	$624, %rax
	movq	%rax, %rcx
	call	_ZNKSt5queueISt10shared_ptrIN3cpr11InterceptorEESt5dequeIS3_SaIS3_EEE5emptyEv
	xorl	$1, %eax
	testb	%al, %al
	je	.L405
	movq	16(%rbp), %rax
	movq	24(%rbp), %rdx
	movq	%rax, %rcx
	call	_ZN3cpr7Session9interceptEv
	jmp	.L406
.L405:
	movq	24(%rbp), %rax
	movq	%rax, %rcx
	call	_ZN3cpr7Session13DoEasyPerformEv
	movl	%eax, -4(%rbp)
	movq	16(%rbp), %rax
	movl	-4(%rbp), %ecx
	movq	24(%rbp), %rdx
	movl	%ecx, %r8d
	movq	%rax, %rcx
	call	_ZN3cpr7Session8CompleteE8CURLcode
.L406:
	movq	16(%rbp), %rax
	addq	$48, %rsp
	popq	%rbp
	ret
	.seh_endproc
	.align 2
	.globl	_ZN3cpr7Session12SetLimitRateERKNS_9LimitRateE
	.def	_ZN3cpr7Session12SetLimitRateERKNS_9LimitRateE;	.scl	2;	.type	32;	.endef
	.seh_proc	_ZN3cpr7Session12SetLimitRateERKNS_9LimitRateE
_ZN3cpr7Session12SetLimitRateERKNS_9LimitRateE:
.LFB13585:
	pushq	%rbp
	.seh_pushreg	%rbp
	pushq	%rbx
	.seh_pushreg	%rbx
	subq	$40, %rsp
	.seh_stackalloc	40
	leaq	32(%rsp), %rbp
	.seh_setframe	%rbp, 32
	.seh_endprologue
	movq	%rcx, 32(%rbp)
	movq	%rdx, 40(%rbp)
	movq	40(%rbp), %rax
	movq	(%rax), %rbx
	movq	32(%rbp), %rax
	addq	$24, %rax
	movq	%rax, %rcx
	call	_ZNKSt19__shared_ptr_accessIN3cpr10CurlHolderELN9__gnu_cxx12_Lock_policyE2ELb0ELb0EEptEv
	movq	(%rax), %rax
	movq	%rbx, %r8
	movl	$30146, %edx
	movq	%rax, %rcx
	movq	__imp_curl_easy_setopt(%rip), %rax
	call	*%rax
	movq	40(%rbp), %rax
	movq	8(%rax), %rbx
	movq	32(%rbp), %rax
	addq	$24, %rax
	movq	%rax, %rcx
	call	_ZNKSt19__shared_ptr_accessIN3cpr10CurlHolderELN9__gnu_cxx12_Lock_policyE2ELb0ELb0EEptEv
	movq	(%rax), %rax
	movq	%rbx, %r8
	movl	$30145, %edx
	movq	%rax, %rcx
	movq	__imp_curl_easy_setopt(%rip), %rax
	call	*%rax
	nop
	addq	$40, %rsp
	popq	%rbx
	popq	%rbp
	ret
	.seh_endproc
	.section	.text$_ZN3cpr12ReadCallbackaSERKS0_,"x"
	.linkonce discard
	.align 2
	.globl	_ZN3cpr12ReadCallbackaSERKS0_
	.def	_ZN3cpr12ReadCallbackaSERKS0_;	.scl	2;	.type	32;	.endef
	.seh_proc	_ZN3cpr12ReadCallbackaSERKS0_
_ZN3cpr12ReadCallbackaSERKS0_:
.LFB13587:
	pushq	%rbp
	.seh_pushreg	%rbp
	movq	%rsp, %rbp
	.seh_setframe	%rbp, 0
	subq	$32, %rsp
	.seh_stackalloc	32
	.seh_endprologue
	movq	%rcx, 16(%rbp)
	movq	%rdx, 24(%rbp)
	movq	24(%rbp), %rax
	movq	(%rax), %rdx
	movq	16(%rbp), %rax
	movq	%rdx, (%rax)
	movq	24(%rbp), %rax
	movq	8(%rax), %rdx
	movq	16(%rbp), %rax
	movq	%rdx, 8(%rax)
	movq	24(%rbp), %rax
	leaq	16(%rax), %rdx
	movq	16(%rbp), %rax
	addq	$16, %rax
	movq	%rax, %rcx
	call	_ZNSt8functionIFbPcRyxEEaSERKS3_
	movq	16(%rbp), %rax
	addq	$32, %rsp
	popq	%rbp
	ret
	.seh_endproc
	.text
	.align 2
	.globl	_ZN3cpr7Session15SetReadCallbackERKNS_12ReadCallbackE
	.def	_ZN3cpr7Session15SetReadCallbackERKNS_12ReadCallbackE;	.scl	2;	.type	32;	.endef
	.seh_proc	_ZN3cpr7Session15SetReadCallbackERKNS_12ReadCallbackE
_ZN3cpr7Session15SetReadCallbackERKNS_12ReadCallbackE:
.LFB13586:
	pushq	%rbp
	.seh_pushreg	%rbp
	pushq	%rbx
	.seh_pushreg	%rbx
	subq	$40, %rsp
	.seh_stackalloc	40
	leaq	32(%rsp), %rbp
	.seh_setframe	%rbp, 32
	.seh_endprologue
	movq	%rcx, 32(%rbp)
	movq	%rdx, 40(%rbp)
	movq	32(%rbp), %rax
	leaq	312(%rax), %rcx
	movq	40(%rbp), %rax
	movq	%rax, %rdx
	call	_ZN3cpr12ReadCallbackaSERKS0_
	movq	40(%rbp), %rax
	movq	8(%rax), %rbx
	movq	32(%rbp), %rax
	addq	$24, %rax
	movq	%rax, %rcx
	call	_ZNKSt19__shared_ptr_accessIN3cpr10CurlHolderELN9__gnu_cxx12_Lock_policyE2ELb0ELb0EEptEv
	movq	(%rax), %rax
	movq	%rbx, %r8
	movl	$30115, %edx
	movq	%rax, %rcx
	movq	__imp_curl_easy_setopt(%rip), %rax
	call	*%rax
	movq	40(%rbp), %rax
	movq	8(%rax), %rbx
	movq	32(%rbp), %rax
	addq	$24, %rax
	movq	%rax, %rcx
	call	_ZNKSt19__shared_ptr_accessIN3cpr10CurlHolderELN9__gnu_cxx12_Lock_policyE2ELb0ELb0EEptEv
	movq	(%rax), %rax
	movq	%rbx, %r8
	movl	$30120, %edx
	movq	%rax, %rcx
	movq	__imp_curl_easy_setopt(%rip), %rax
	call	*%rax
	movq	32(%rbp), %rax
	addq	$24, %rax
	movq	%rax, %rcx
	call	_ZNKSt19__shared_ptr_accessIN3cpr10CurlHolderELN9__gnu_cxx12_Lock_policyE2ELb0ELb0EEptEv
	movq	(%rax), %rax
	movq	.refptr._ZN3cpr4util16readUserFunctionEPcyyPKNS_12ReadCallbackE(%rip), %r8
	movl	$20012, %edx
	movq	%rax, %rcx
	movq	__imp_curl_easy_setopt(%rip), %rax
	call	*%rax
	movq	32(%rbp), %rax
	leaq	312(%rax), %rbx
	movq	32(%rbp), %rax
	addq	$24, %rax
	movq	%rax, %rcx
	call	_ZNKSt19__shared_ptr_accessIN3cpr10CurlHolderELN9__gnu_cxx12_Lock_policyE2ELb0ELb0EEptEv
	movq	(%rax), %rax
	movq	%rbx, %r8
	movl	$10009, %edx
	movq	%rax, %rcx
	movq	__imp_curl_easy_setopt(%rip), %rax
	call	*%rax
	movq	40(%rbp), %rax
	movq	8(%rax), %rax
	cmpq	$-1, %rax
	sete	%dl
	movq	32(%rbp), %rax
	movb	%dl, 17(%rax)
	nop
	addq	$40, %rsp
	popq	%rbx
	popq	%rbp
	ret
	.seh_endproc
	.section	.text$_ZN3cpr14HeaderCallbackaSERKS0_,"x"
	.linkonce discard
	.align 2
	.globl	_ZN3cpr14HeaderCallbackaSERKS0_
	.def	_ZN3cpr14HeaderCallbackaSERKS0_;	.scl	2;	.type	32;	.endef
	.seh_proc	_ZN3cpr14HeaderCallbackaSERKS0_
_ZN3cpr14HeaderCallbackaSERKS0_:
.LFB13589:
	pushq	%rbp
	.seh_pushreg	%rbp
	movq	%rsp, %rbp
	.seh_setframe	%rbp, 0
	subq	$32, %rsp
	.seh_stackalloc	32
	.seh_endprologue
	movq	%rcx, 16(%rbp)
	movq	%rdx, 24(%rbp)
	movq	24(%rbp), %rax
	movq	(%rax), %rdx
	movq	16(%rbp), %rax
	movq	%rdx, (%rax)
	movq	24(%rbp), %rax
	leaq	8(%rax), %rdx
	movq	16(%rbp), %rax
	addq	$8, %rax
	movq	%rax, %rcx
	call	_ZNSt8functionIFbNSt7__cxx1112basic_stringIcSt11char_traitsIcESaIcEEExEEaSERKS7_
	movq	16(%rbp), %rax
	addq	$32, %rsp
	popq	%rbp
	ret
	.seh_endproc
	.text
	.align 2
	.globl	_ZN3cpr7Session17SetHeaderCallbackERKNS_14HeaderCallbackE
	.def	_ZN3cpr7Session17SetHeaderCallbackERKNS_14HeaderCallbackE;	.scl	2;	.type	32;	.endef
	.seh_proc	_ZN3cpr7Session17SetHeaderCallbackERKNS_14HeaderCallbackE
_ZN3cpr7Session17SetHeaderCallbackERKNS_14HeaderCallbackE:
.LFB13588:
	pushq	%rbp
	.seh_pushreg	%rbp
	pushq	%rbx
	.seh_pushreg	%rbx
	subq	$40, %rsp
	.seh_stackalloc	40
	leaq	32(%rsp), %rbp
	.seh_setframe	%rbp, 32
	.seh_endprologue
	movq	%rcx, 32(%rbp)
	movq	%rdx, 40(%rbp)
	movq	32(%rbp), %rax
	addq	$24, %rax
	movq	%rax, %rcx
	call	_ZNKSt19__shared_ptr_accessIN3cpr10CurlHolderELN9__gnu_cxx12_Lock_policyE2ELb0ELb0EEptEv
	movq	(%rax), %rax
	movq	.refptr._ZN3cpr4util18headerUserFunctionEPcyyPKNS_14HeaderCallbackE(%rip), %r8
	movl	$20079, %edx
	movq	%rax, %rcx
	movq	__imp_curl_easy_setopt(%rip), %rax
	call	*%rax
	movq	32(%rbp), %rax
	leaq	360(%rax), %rcx
	movq	40(%rbp), %rax
	movq	%rax, %rdx
	call	_ZN3cpr14HeaderCallbackaSERKS0_
	movq	32(%rbp), %rax
	leaq	360(%rax), %rbx
	movq	32(%rbp), %rax
	addq	$24, %rax
	movq	%rax, %rcx
	call	_ZNKSt19__shared_ptr_accessIN3cpr10CurlHolderELN9__gnu_cxx12_Lock_policyE2ELb0ELb0EEptEv
	movq	(%rax), %rax
	movq	%rbx, %r8
	movl	$10029, %edx
	movq	%rax, %rcx
	movq	__imp_curl_easy_setopt(%rip), %rax
	call	*%rax
	nop
	addq	$40, %rsp
	popq	%rbx
	popq	%rbp
	ret
	.seh_endproc
	.section	.text$_ZN3cpr13WriteCallbackaSERKS0_,"x"
	.linkonce discard
	.align 2
	.globl	_ZN3cpr13WriteCallbackaSERKS0_
	.def	_ZN3cpr13WriteCallbackaSERKS0_;	.scl	2;	.type	32;	.endef
	.seh_proc	_ZN3cpr13WriteCallbackaSERKS0_
_ZN3cpr13WriteCallbackaSERKS0_:
.LFB13591:
	pushq	%rbp
	.seh_pushreg	%rbp
	movq	%rsp, %rbp
	.seh_setframe	%rbp, 0
	subq	$32, %rsp
	.seh_stackalloc	32
	.seh_endprologue
	movq	%rcx, 16(%rbp)
	movq	%rdx, 24(%rbp)
	movq	24(%rbp), %rax
	movq	(%rax), %rdx
	movq	16(%rbp), %rax
	movq	%rdx, (%rax)
	movq	24(%rbp), %rax
	leaq	8(%rax), %rdx
	movq	16(%rbp), %rax
	addq	$8, %rax
	movq	%rax, %rcx
	call	_ZNSt8functionIFbNSt7__cxx1112basic_stringIcSt11char_traitsIcESaIcEEExEEaSERKS7_
	movq	16(%rbp), %rax
	addq	$32, %rsp
	popq	%rbp
	ret
	.seh_endproc
	.text
	.align 2
	.globl	_ZN3cpr7Session16SetWriteCallbackERKNS_13WriteCallbackE
	.def	_ZN3cpr7Session16SetWriteCallbackERKNS_13WriteCallbackE;	.scl	2;	.type	32;	.endef
	.seh_proc	_ZN3cpr7Session16SetWriteCallbackERKNS_13WriteCallbackE
_ZN3cpr7Session16SetWriteCallbackERKNS_13WriteCallbackE:
.LFB13590:
	pushq	%rbp
	.seh_pushreg	%rbp
	pushq	%rbx
	.seh_pushreg	%rbx
	subq	$40, %rsp
	.seh_stackalloc	40
	leaq	32(%rsp), %rbp
	.seh_setframe	%rbp, 32
	.seh_endprologue
	movq	%rcx, 32(%rbp)
	movq	%rdx, 40(%rbp)
	movq	32(%rbp), %rax
	addq	$24, %rax
	movq	%rax, %rcx
	call	_ZNKSt19__shared_ptr_accessIN3cpr10CurlHolderELN9__gnu_cxx12_Lock_policyE2ELb0ELb0EEptEv
	movq	(%rax), %rax
	movq	.refptr._ZN3cpr4util17writeUserFunctionEPcyyPKNS_13WriteCallbackE(%rip), %r8
	movl	$20011, %edx
	movq	%rax, %rcx
	movq	__imp_curl_easy_setopt(%rip), %rax
	call	*%rax
	movq	32(%rbp), %rax
	leaq	400(%rax), %rcx
	movq	40(%rbp), %rax
	movq	%rax, %rdx
	call	_ZN3cpr13WriteCallbackaSERKS0_
	movq	32(%rbp), %rax
	leaq	400(%rax), %rbx
	movq	32(%rbp), %rax
	addq	$24, %rax
	movq	%rax, %rcx
	call	_ZNKSt19__shared_ptr_accessIN3cpr10CurlHolderELN9__gnu_cxx12_Lock_policyE2ELb0ELb0EEptEv
	movq	(%rax), %rax
	movq	%rbx, %r8
	movl	$10001, %edx
	movq	%rax, %rcx
	movq	__imp_curl_easy_setopt(%rip), %rax
	call	*%rax
	nop
	addq	$40, %rsp
	popq	%rbx
	popq	%rbp
	ret
	.seh_endproc
	.section	.text$_ZN3cpr16ProgressCallbackaSERKS0_,"x"
	.linkonce discard
	.align 2
	.globl	_ZN3cpr16ProgressCallbackaSERKS0_
	.def	_ZN3cpr16ProgressCallbackaSERKS0_;	.scl	2;	.type	32;	.endef
	.seh_proc	_ZN3cpr16ProgressCallbackaSERKS0_
_ZN3cpr16ProgressCallbackaSERKS0_:
.LFB13593:
	pushq	%rbp
	.seh_pushreg	%rbp
	movq	%rsp, %rbp
	.seh_setframe	%rbp, 0
	subq	$32, %rsp
	.seh_stackalloc	32
	.seh_endprologue
	movq	%rcx, 16(%rbp)
	movq	%rdx, 24(%rbp)
	movq	24(%rbp), %rax
	movq	(%rax), %rdx
	movq	16(%rbp), %rax
	movq	%rdx, (%rax)
	movq	24(%rbp), %rax
	leaq	8(%rax), %rdx
	movq	16(%rbp), %rax
	addq	$8, %rax
	movq	%rax, %rcx
	call	_ZNSt8functionIFbxxxxxEEaSERKS1_
	movq	16(%rbp), %rax
	addq	$32, %rsp
	popq	%rbp
	ret
	.seh_endproc
	.text
	.align 2
	.globl	_ZN3cpr7Session19SetProgressCallbackERKNS_16ProgressCallbackE
	.def	_ZN3cpr7Session19SetProgressCallbackERKNS_16ProgressCallbackE;	.scl	2;	.type	32;	.endef
	.seh_proc	_ZN3cpr7Session19SetProgressCallbackERKNS_16ProgressCallbackE
_ZN3cpr7Session19SetProgressCallbackERKNS_16ProgressCallbackE:
.LFB13592:
	pushq	%rbp
	.seh_pushreg	%rbp
	pushq	%rbx
	.seh_pushreg	%rbx
	subq	$40, %rsp
	.seh_stackalloc	40
	leaq	32(%rsp), %rbp
	.seh_setframe	%rbp, 32
	.seh_endprologue
	movq	%rcx, 32(%rbp)
	movq	%rdx, 40(%rbp)
	movq	32(%rbp), %rax
	leaq	440(%rax), %rcx
	movq	40(%rbp), %rax
	movq	%rax, %rdx
	call	_ZN3cpr16ProgressCallbackaSERKS0_
	movq	32(%rbp), %rax
	movzbl	705(%rax), %eax
	testb	%al, %al
	je	.L420
	movq	32(%rbp), %rax
	addq	$520, %rax
	movq	32(%rbp), %rdx
	addq	$440, %rdx
	movq	%rax, %rcx
	call	_ZN3cpr20CancellationCallback19SetProgressCallbackERNS_16ProgressCallbackE
	jmp	.L419
.L420:
	movq	32(%rbp), %rax
	addq	$24, %rax
	movq	%rax, %rcx
	call	_ZNKSt19__shared_ptr_accessIN3cpr10CurlHolderELN9__gnu_cxx12_Lock_policyE2ELb0ELb0EEptEv
	movq	(%rax), %rax
	leaq	_ZN3cpr4util20progressUserFunctionINS_16ProgressCallbackEEEiPKT_xxxx(%rip), %r8
	movl	$20219, %edx
	movq	%rax, %rcx
	movq	__imp_curl_easy_setopt(%rip), %rax
	call	*%rax
	movq	32(%rbp), %rax
	leaq	440(%rax), %rbx
	movq	32(%rbp), %rax
	addq	$24, %rax
	movq	%rax, %rcx
	call	_ZNKSt19__shared_ptr_accessIN3cpr10CurlHolderELN9__gnu_cxx12_Lock_policyE2ELb0ELb0EEptEv
	movq	(%rax), %rax
	movq	%rbx, %r8
	movl	$10057, %edx
	movq	%rax, %rcx
	movq	__imp_curl_easy_setopt(%rip), %rax
	call	*%rax
	movq	32(%rbp), %rax
	addq	$24, %rax
	movq	%rax, %rcx
	call	_ZNKSt19__shared_ptr_accessIN3cpr10CurlHolderELN9__gnu_cxx12_Lock_policyE2ELb0ELb0EEptEv
	movq	(%rax), %rax
	movl	$0, %r8d
	movl	$43, %edx
	movq	%rax, %rcx
	movq	__imp_curl_easy_setopt(%rip), %rax
	call	*%rax
	nop
.L419:
	addq	$40, %rsp
	popq	%rbx
	popq	%rbp
	ret
	.seh_endproc
	.section	.text$_ZN3cpr13DebugCallbackaSERKS0_,"x"
	.linkonce discard
	.align 2
	.globl	_ZN3cpr13DebugCallbackaSERKS0_
	.def	_ZN3cpr13DebugCallbackaSERKS0_;	.scl	2;	.type	32;	.endef
	.seh_proc	_ZN3cpr13DebugCallbackaSERKS0_
_ZN3cpr13DebugCallbackaSERKS0_:
.LFB13595:
	pushq	%rbp
	.seh_pushreg	%rbp
	movq	%rsp, %rbp
	.seh_setframe	%rbp, 0
	subq	$32, %rsp
	.seh_stackalloc	32
	.seh_endprologue
	movq	%rcx, 16(%rbp)
	movq	%rdx, 24(%rbp)
	movq	24(%rbp), %rax
	movq	(%rax), %rdx
	movq	16(%rbp), %rax
	movq	%rdx, (%rax)
	movq	24(%rbp), %rax
	leaq	8(%rax), %rdx
	movq	16(%rbp), %rax
	addq	$8, %rax
	movq	%rax, %rcx
	call	_ZNSt8functionIFvN3cpr13DebugCallback8InfoTypeENSt7__cxx1112basic_stringIcSt11char_traitsIcESaIcEEExEEaSERKSA_
	movq	16(%rbp), %rax
	addq	$32, %rsp
	popq	%rbp
	ret
	.seh_endproc
	.text
	.align 2
	.globl	_ZN3cpr7Session16SetDebugCallbackERKNS_13DebugCallbackE
	.def	_ZN3cpr7Session16SetDebugCallbackERKNS_13DebugCallbackE;	.scl	2;	.type	32;	.endef
	.seh_proc	_ZN3cpr7Session16SetDebugCallbackERKNS_13DebugCallbackE
_ZN3cpr7Session16SetDebugCallbackERKNS_13DebugCallbackE:
.LFB13594:
	pushq	%rbp
	.seh_pushreg	%rbp
	pushq	%rbx
	.seh_pushreg	%rbx
	subq	$40, %rsp
	.seh_stackalloc	40
	leaq	32(%rsp), %rbp
	.seh_setframe	%rbp, 32
	.seh_endprologue
	movq	%rcx, 32(%rbp)
	movq	%rdx, 40(%rbp)
	movq	32(%rbp), %rax
	addq	$24, %rax
	movq	%rax, %rcx
	call	_ZNKSt19__shared_ptr_accessIN3cpr10CurlHolderELN9__gnu_cxx12_Lock_policyE2ELb0ELb0EEptEv
	movq	(%rax), %rax
	movq	.refptr._ZN3cpr4util17debugUserFunctionEPv13curl_infotypePcyPKNS_13DebugCallbackE(%rip), %r8
	movl	$20094, %edx
	movq	%rax, %rcx
	movq	__imp_curl_easy_setopt(%rip), %rax
	call	*%rax
	movq	32(%rbp), %rax
	leaq	480(%rax), %rcx
	movq	40(%rbp), %rax
	movq	%rax, %rdx
	call	_ZN3cpr13DebugCallbackaSERKS0_
	movq	32(%rbp), %rax
	leaq	480(%rax), %rbx
	movq	32(%rbp), %rax
	addq	$24, %rax
	movq	%rax, %rcx
	call	_ZNKSt19__shared_ptr_accessIN3cpr10CurlHolderELN9__gnu_cxx12_Lock_policyE2ELb0ELb0EEptEv
	movq	(%rax), %rax
	movq	%rbx, %r8
	movl	$10095, %edx
	movq	%rax, %rcx
	movq	__imp_curl_easy_setopt(%rip), %rax
	call	*%rax
	movq	32(%rbp), %rax
	addq	$24, %rax
	movq	%rax, %rcx
	call	_ZNKSt19__shared_ptr_accessIN3cpr10CurlHolderELN9__gnu_cxx12_Lock_policyE2ELb0ELb0EEptEv
	movq	(%rax), %rax
	movl	$1, %r8d
	movl	$41, %edx
	movq	%rax, %rcx
	movq	__imp_curl_easy_setopt(%rip), %rax
	call	*%rax
	nop
	addq	$40, %rsp
	popq	%rbx
	popq	%rbp
	ret
	.seh_endproc
	.section	.text$_ZN3cpr12StringHolderINS_3UrlEEaSERKS2_,"x"
	.linkonce discard
	.align 2
	.globl	_ZN3cpr12StringHolderINS_3UrlEEaSERKS2_
	.def	_ZN3cpr12StringHolderINS_3UrlEEaSERKS2_;	.scl	2;	.type	32;	.endef
	.seh_proc	_ZN3cpr12StringHolderINS_3UrlEEaSERKS2_
_ZN3cpr12StringHolderINS_3UrlEEaSERKS2_:
.LFB13598:
	pushq	%rbp
	.seh_pushreg	%rbp
	movq	%rsp, %rbp
	.seh_setframe	%rbp, 0
	subq	$32, %rsp
	.seh_stackalloc	32
	.seh_endprologue
	movq	%rcx, 16(%rbp)
	movq	%rdx, 24(%rbp)
	movq	24(%rbp), %rax
	leaq	8(%rax), %rdx
	movq	16(%rbp), %rax
	addq	$8, %rax
	movq	%rax, %rcx
	call	_ZNSt7__cxx1112basic_stringIcSt11char_traitsIcESaIcEEaSERKS4_
	movq	16(%rbp), %rax
	addq	$32, %rsp
	popq	%rbp
	ret
	.seh_endproc
	.section	.text$_ZN3cpr3UrlaSERKS0_,"x"
	.linkonce discard
	.align 2
	.globl	_ZN3cpr3UrlaSERKS0_
	.def	_ZN3cpr3UrlaSERKS0_;	.scl	2;	.type	32;	.endef
	.seh_proc	_ZN3cpr3UrlaSERKS0_
_ZN3cpr3UrlaSERKS0_:
.LFB13597:
	pushq	%rbp
	.seh_pushreg	%rbp
	movq	%rsp, %rbp
	.seh_setframe	%rbp, 0
	subq	$32, %rsp
	.seh_stackalloc	32
	.seh_endprologue
	movq	%rcx, 16(%rbp)
	movq	%rdx, 24(%rbp)
	movq	16(%rbp), %rax
	movq	24(%rbp), %rdx
	movq	%rax, %rcx
	call	_ZN3cpr12StringHolderINS_3UrlEEaSERKS2_
	movq	16(%rbp), %rax
	addq	$32, %rsp
	popq	%rbp
	ret
	.seh_endproc
	.text
	.align 2
	.globl	_ZN3cpr7Session6SetUrlERKNS_3UrlE
	.def	_ZN3cpr7Session6SetUrlERKNS_3UrlE;	.scl	2;	.type	32;	.endef
	.seh_proc	_ZN3cpr7Session6SetUrlERKNS_3UrlE
_ZN3cpr7Session6SetUrlERKNS_3UrlE:
.LFB13596:
	pushq	%rbp
	.seh_pushreg	%rbp
	movq	%rsp, %rbp
	.seh_setframe	%rbp, 0
	subq	$32, %rsp
	.seh_stackalloc	32
	.seh_endprologue
	movq	%rcx, 16(%rbp)
	movq	%rdx, 24(%rbp)
	movq	16(%rbp), %rax
	leaq	40(%rax), %rcx
	movq	24(%rbp), %rax
	movq	%rax, %rdx
	call	_ZN3cpr3UrlaSERKS0_
	nop
	addq	$32, %rsp
	popq	%rbp
	ret
	.seh_endproc
	.section	.text$_ZN3cpr7ResolveC1ERKS0_,"x"
	.linkonce discard
	.align 2
	.globl	_ZN3cpr7ResolveC1ERKS0_
	.def	_ZN3cpr7ResolveC1ERKS0_;	.scl	2;	.type	32;	.endef
	.seh_proc	_ZN3cpr7ResolveC1ERKS0_
_ZN3cpr7ResolveC1ERKS0_:
.LFB13602:
	pushq	%rbp
	.seh_pushreg	%rbp
	pushq	%rbx
	.seh_pushreg	%rbx
	subq	$40, %rsp
	.seh_stackalloc	40
	leaq	32(%rsp), %rbp
	.seh_setframe	%rbp, 32
	.seh_endprologue
	movq	%rcx, 32(%rbp)
	movq	%rdx, 40(%rbp)
	movq	32(%rbp), %rax
	movq	40(%rbp), %rdx
	movq	%rax, %rcx
.LEHB54:
	call	_ZNSt7__cxx1112basic_stringIcSt11char_traitsIcESaIcEEC1ERKS4_
.LEHE54:
	movq	32(%rbp), %rax
	addq	$32, %rax
	movq	40(%rbp), %rdx
	addq	$32, %rdx
	movq	%rax, %rcx
.LEHB55:
	call	_ZNSt7__cxx1112basic_stringIcSt11char_traitsIcESaIcEEC1ERKS4_
.LEHE55:
	movq	32(%rbp), %rax
	addq	$64, %rax
	movq	40(%rbp), %rdx
	addq	$64, %rdx
	movq	%rax, %rcx
.LEHB56:
	call	_ZNSt3setItSt4lessItESaItEEC1ERKS3_
.LEHE56:
	jmp	.L435
.L434:
	movq	%rax, %rbx
	movq	32(%rbp), %rax
	addq	$32, %rax
	movq	%rax, %rcx
	call	_ZNSt7__cxx1112basic_stringIcSt11char_traitsIcESaIcEED1Ev
	jmp	.L432
.L433:
	movq	%rax, %rbx
.L432:
	movq	32(%rbp), %rax
	movq	%rax, %rcx
	call	_ZNSt7__cxx1112basic_stringIcSt11char_traitsIcESaIcEED1Ev
	movq	%rbx, %rax
	movq	%rax, %rcx
.LEHB57:
	call	_Unwind_Resume
	nop
.LEHE57:
.L435:
	addq	$40, %rsp
	popq	%rbx
	popq	%rbp
	ret
	.seh_handler	__gxx_personality_seh0, @unwind, @except
	.seh_handlerdata
.LLSDA13602:
	.byte	0xff
	.byte	0xff
	.byte	0x1
	.uleb128 .LLSDACSE13602-.LLSDACSB13602
.LLSDACSB13602:
	.uleb128 .LEHB54-.LFB13602
	.uleb128 .LEHE54-.LEHB54
	.uleb128 0
	.uleb128 0
	.uleb128 .LEHB55-.LFB13602
	.uleb128 .LEHE55-.LEHB55
	.uleb128 .L433-.LFB13602
	.uleb128 0
	.uleb128 .LEHB56-.LFB13602
	.uleb128 .LEHE56-.LEHB56
	.uleb128 .L434-.LFB13602
	.uleb128 0
	.uleb128 .LEHB57-.LFB13602
	.uleb128 .LEHE57-.LEHB57
	.uleb128 0
	.uleb128 0
.LLSDACSE13602:
	.section	.text$_ZN3cpr7ResolveC1ERKS0_,"x"
	.linkonce discard
	.seh_endproc
	.section	.text$_ZN3cpr7ResolveD1Ev,"x"
	.linkonce discard
	.align 2
	.globl	_ZN3cpr7ResolveD1Ev
	.def	_ZN3cpr7ResolveD1Ev;	.scl	2;	.type	32;	.endef
	.seh_proc	_ZN3cpr7ResolveD1Ev
_ZN3cpr7ResolveD1Ev:
.LFB13605:
	pushq	%rbp
	.seh_pushreg	%rbp
	movq	%rsp, %rbp
	.seh_setframe	%rbp, 0
	subq	$32, %rsp
	.seh_stackalloc	32
	.seh_endprologue
	movq	%rcx, 16(%rbp)
	movq	16(%rbp), %rax
	addq	$64, %rax
	movq	%rax, %rcx
	call	_ZNSt3setItSt4lessItESaItEED1Ev
	movq	16(%rbp), %rax
	addq	$32, %rax
	movq	%rax, %rcx
	call	_ZNSt7__cxx1112basic_stringIcSt11char_traitsIcESaIcEED1Ev
	movq	16(%rbp), %rax
	movq	%rax, %rcx
	call	_ZNSt7__cxx1112basic_stringIcSt11char_traitsIcESaIcEED1Ev
	nop
	addq	$32, %rsp
	popq	%rbp
	ret
	.seh_endproc
	.text
	.align 2
	.globl	_ZN3cpr7Session10SetResolveERKNS_7ResolveE
	.def	_ZN3cpr7Session10SetResolveERKNS_7ResolveE;	.scl	2;	.type	32;	.endef
	.seh_proc	_ZN3cpr7Session10SetResolveERKNS_7ResolveE
_ZN3cpr7Session10SetResolveERKNS_7ResolveE:
.LFB13599:
	pushq	%rbp
	.seh_pushreg	%rbp
	pushq	%r14
	.seh_pushreg	%r14
	pushq	%r13
	.seh_pushreg	%r13
	pushq	%r12
	.seh_pushreg	%r12
	pushq	%rdi
	.seh_pushreg	%rdi
	pushq	%rsi
	.seh_pushreg	%rsi
	pushq	%rbx
	.seh_pushreg	%rbx
	subq	$208, %rsp
	.seh_stackalloc	208
	leaq	208(%rsp), %rbp
	.seh_setframe	%rbp, 208
	.seh_endprologue
	movq	%rcx, 64(%rbp)
	movq	%rdx, 72(%rbp)
	leaq	-128(%rbp), %rsi
	movl	$0, %r14d
	movq	72(%rbp), %rax
	movq	%rax, %rdx
	movq	%rsi, %rcx
.LEHB58:
	call	_ZN3cpr7ResolveC1ERKS0_
.LEHE58:
	movl	$0, %r14d
	leaq	-128(%rbp), %rax
	movq	%rax, %r12
	movl	$1, %r13d
	leaq	-9(%rbp), %rax
	movq	%rax, -8(%rbp)
	nop
	nop
	movq	%r12, -176(%rbp)
	movq	%r13, -168(%rbp)
	leaq	-9(%rbp), %rcx
	leaq	-176(%rbp), %rdx
	leaq	-160(%rbp), %rax
	movq	%rcx, %r8
	movq	%rax, %rcx
.LEHB59:
	call	_ZNSt6vectorIN3cpr7ResolveESaIS1_EEC1ESt16initializer_listIS1_ERKS2_
.LEHE59:
	leaq	-160(%rbp), %rdx
	movq	64(%rbp), %rax
	movq	%rax, %rcx
.LEHB60:
	call	_ZN3cpr7Session11SetResolvesERKSt6vectorINS_7ResolveESaIS2_EE
.LEHE60:
	leaq	-160(%rbp), %rax
	movq	%rax, %rcx
	call	_ZNSt6vectorIN3cpr7ResolveESaIS1_EED1Ev
	leaq	-9(%rbp), %rax
	movq	%rax, %rcx
	call	_ZNSt15__new_allocatorIN3cpr7ResolveEED2Ev
	nop
	leaq	-128(%rbp), %rbx
	addq	$112, %rbx
.L439:
	leaq	-128(%rbp), %rax
	cmpq	%rax, %rbx
	je	.L450
	subq	$112, %rbx
	movq	%rbx, %rcx
	call	_ZN3cpr7ResolveD1Ev
	jmp	.L439
.L449:
	movq	%rax, %rbx
	leaq	-160(%rbp), %rax
	movq	%rax, %rcx
	call	_ZNSt6vectorIN3cpr7ResolveESaIS1_EED1Ev
	jmp	.L441
.L448:
	movq	%rax, %rbx
.L441:
	leaq	-9(%rbp), %rax
	movq	%rax, %rcx
	call	_ZNSt15__new_allocatorIN3cpr7ResolveEED2Ev
	nop
	movq	%rbx, %rdi
	leaq	-128(%rbp), %rbx
	addq	$112, %rbx
.L443:
	leaq	-128(%rbp), %rax
	cmpq	%rax, %rbx
	je	.L444
	subq	$112, %rbx
	movq	%rbx, %rcx
	call	_ZN3cpr7ResolveD1Ev
	jmp	.L443
.L447:
	movq	%rax, %rdi
.L444:
	testq	%rsi, %rsi
	je	.L445
	movq	%r14, %rdx
	movq	%rdx, %rax
	salq	$3, %rdx
	subq	%rdx, %rax
	salq	$4, %rax
	leaq	(%rsi,%rax), %rbx
.L446:
	cmpq	%rsi, %rbx
	je	.L445
	subq	$112, %rbx
	movq	%rbx, %rcx
	call	_ZN3cpr7ResolveD1Ev
	jmp	.L446
.L445:
	movq	%rdi, %rax
	movq	%rax, %rcx
.LEHB61:
	call	_Unwind_Resume
.LEHE61:
.L450:
	nop
	addq	$208, %rsp
	popq	%rbx
	popq	%rsi
	popq	%rdi
	popq	%r12
	popq	%r13
	popq	%r14
	popq	%rbp
	ret
	.seh_handler	__gxx_personality_seh0, @unwind, @except
	.seh_handlerdata
.LLSDA13599:
	.byte	0xff
	.byte	0xff
	.byte	0x1
	.uleb128 .LLSDACSE13599-.LLSDACSB13599
.LLSDACSB13599:
	.uleb128 .LEHB58-.LFB13599
	.uleb128 .LEHE58-.LEHB58
	.uleb128 .L447-.LFB13599
	.uleb128 0
	.uleb128 .LEHB59-.LFB13599
	.uleb128 .LEHE59-.LEHB59
	.uleb128 .L448-.LFB13599
	.uleb128 0
	.uleb128 .LEHB60-.LFB13599
	.uleb128 .LEHE60-.LEHB60
	.uleb128 .L449-.LFB13599
	.uleb128 0
	.uleb128 .LEHB61-.LFB13599
	.uleb128 .LEHE61-.LEHB61
	.uleb128 0
	.uleb128 0
.LLSDACSE13599:
	.text
	.seh_endproc
	.section .rdata,"dr"
.LC15:
	.ascii ":\0"
	.text
	.align 2
	.globl	_ZN3cpr7Session11SetResolvesERKSt6vectorINS_7ResolveESaIS2_EE
	.def	_ZN3cpr7Session11SetResolvesERKSt6vectorINS_7ResolveESaIS2_EE;	.scl	2;	.type	32;	.endef
	.seh_proc	_ZN3cpr7Session11SetResolvesERKSt6vectorINS_7ResolveESaIS2_EE
_ZN3cpr7Session11SetResolvesERKSt6vectorINS_7ResolveESaIS2_EE:
.LFB13606:
	pushq	%rbp
	.seh_pushreg	%rbp
	pushq	%rbx
	.seh_pushreg	%rbx
	subq	$264, %rsp
	.seh_stackalloc	264
	leaq	128(%rsp), %rbp
	.seh_setframe	%rbp, 128
	.seh_endprologue
	movq	%rcx, 160(%rbp)
	movq	%rdx, 168(%rbp)
	movq	160(%rbp), %rax
	addq	$24, %rax
	movq	%rax, %rcx
	call	_ZNKSt19__shared_ptr_accessIN3cpr10CurlHolderELN9__gnu_cxx12_Lock_policyE2ELb0ELb0EEptEv
	movq	16(%rax), %rax
	movq	%rax, %rcx
	movq	__imp_curl_slist_free_all(%rip), %rax
.LEHB62:
	call	*%rax
.LEHE62:
	movq	160(%rbp), %rax
	addq	$24, %rax
	movq	%rax, %rcx
	call	_ZNKSt19__shared_ptr_accessIN3cpr10CurlHolderELN9__gnu_cxx12_Lock_policyE2ELb0ELb0EEptEv
	movq	$0, 16(%rax)
	movq	168(%rbp), %rax
	movq	%rax, 120(%rbp)
	movq	120(%rbp), %rax
	movq	%rax, %rcx
	call	_ZNKSt6vectorIN3cpr7ResolveESaIS1_EE5beginEv
	movq	%rax, -72(%rbp)
	movq	120(%rbp), %rax
	movq	%rax, %rcx
	call	_ZNKSt6vectorIN3cpr7ResolveESaIS1_EE3endEv
	movq	%rax, -80(%rbp)
	jmp	.L452
.L455:
	leaq	-72(%rbp), %rax
	movq	%rax, %rcx
	call	_ZNK9__gnu_cxx17__normal_iteratorIPKN3cpr7ResolveESt6vectorIS2_SaIS2_EEEdeEv
	movq	%rax, 112(%rbp)
	movq	112(%rbp), %rax
	addq	$64, %rax
	movq	%rax, 104(%rbp)
	movq	104(%rbp), %rax
	movq	%rax, %rcx
	call	_ZNKSt3setItSt4lessItESaItEE5beginEv
	movq	%rax, -88(%rbp)
	movq	104(%rbp), %rax
	movq	%rax, %rcx
	call	_ZNKSt3setItSt4lessItESaItEE3endEv
	movq	%rax, -96(%rbp)
	jmp	.L453
.L454:
	leaq	-88(%rbp), %rax
	movq	%rax, %rcx
	call	_ZNKSt23_Rb_tree_const_iteratorItEdeEv
	movzwl	(%rax), %eax
	movw	%ax, 102(%rbp)
	movq	112(%rbp), %rax
	leaq	32(%rax), %rbx
	movzwl	102(%rbp), %edx
	leaq	32(%rbp), %rax
	movq	%rax, %rcx
	call	_ZNSt7__cxx119to_stringEi
	movq	112(%rbp), %rdx
	leaq	64(%rbp), %rax
	leaq	.LC15(%rip), %r8
	movq	%rax, %rcx
.LEHB63:
	call	_ZStplIcSt11char_traitsIcESaIcEENSt7__cxx1112basic_stringIT_T0_T1_EERKS8_PKS5_
.LEHE63:
	movq	%rbp, %rax
	leaq	32(%rbp), %rcx
	leaq	64(%rbp), %rdx
	movq	%rcx, %r8
	movq	%rax, %rcx
.LEHB64:
	call	_ZStplIcSt11char_traitsIcESaIcEENSt7__cxx1112basic_stringIT_T0_T1_EEOS8_S9_
.LEHE64:
	leaq	-32(%rbp), %rax
	movq	%rbp, %rdx
	leaq	.LC15(%rip), %r8
	movq	%rax, %rcx
.LEHB65:
	call	_ZStplIcSt11char_traitsIcESaIcEENSt7__cxx1112basic_stringIT_T0_T1_EEOS8_PKS5_
.LEHE65:
	leaq	-64(%rbp), %rax
	leaq	-32(%rbp), %rdx
	movq	%rbx, %r8
	movq	%rax, %rcx
.LEHB66:
	call	_ZStplIcSt11char_traitsIcESaIcEENSt7__cxx1112basic_stringIT_T0_T1_EEOS8_RKS8_
.LEHE66:
	leaq	-64(%rbp), %rax
	movq	%rax, %rcx
	call	_ZNKSt7__cxx1112basic_stringIcSt11char_traitsIcESaIcEE5c_strEv
	movq	%rax, %rbx
	movq	160(%rbp), %rax
	addq	$24, %rax
	movq	%rax, %rcx
	call	_ZNKSt19__shared_ptr_accessIN3cpr10CurlHolderELN9__gnu_cxx12_Lock_policyE2ELb0ELb0EEptEv
	movq	16(%rax), %rax
	movq	%rbx, %rdx
	movq	%rax, %rcx
	movq	__imp_curl_slist_append(%rip), %rax
.LEHB67:
	call	*%rax
.LEHE67:
	movq	%rax, %rbx
	movq	160(%rbp), %rax
	addq	$24, %rax
	movq	%rax, %rcx
	call	_ZNKSt19__shared_ptr_accessIN3cpr10CurlHolderELN9__gnu_cxx12_Lock_policyE2ELb0ELb0EEptEv
	movq	%rbx, 16(%rax)
	leaq	-64(%rbp), %rax
	movq	%rax, %rcx
	call	_ZNSt7__cxx1112basic_stringIcSt11char_traitsIcESaIcEED1Ev
	leaq	-32(%rbp), %rax
	movq	%rax, %rcx
	call	_ZNSt7__cxx1112basic_stringIcSt11char_traitsIcESaIcEED1Ev
	movq	%rbp, %rax
	movq	%rax, %rcx
	call	_ZNSt7__cxx1112basic_stringIcSt11char_traitsIcESaIcEED1Ev
	leaq	64(%rbp), %rax
	movq	%rax, %rcx
	call	_ZNSt7__cxx1112basic_stringIcSt11char_traitsIcESaIcEED1Ev
	leaq	32(%rbp), %rax
	movq	%rax, %rcx
	call	_ZNSt7__cxx1112basic_stringIcSt11char_traitsIcESaIcEED1Ev
	leaq	-88(%rbp), %rax
	movq	%rax, %rcx
	call	_ZNSt23_Rb_tree_const_iteratorItEppEv
.L453:
	leaq	-96(%rbp), %rdx
	leaq	-88(%rbp), %rax
	movq	%rax, %rcx
	call	_ZStneRKSt23_Rb_tree_const_iteratorItES2_
	testb	%al, %al
	jne	.L454
	leaq	-72(%rbp), %rax
	movq	%rax, %rcx
	call	_ZN9__gnu_cxx17__normal_iteratorIPKN3cpr7ResolveESt6vectorIS2_SaIS2_EEEppEv
.L452:
	leaq	-80(%rbp), %rdx
	leaq	-72(%rbp), %rax
	movq	%rax, %rcx
	call	_ZN9__gnu_cxxneIPKN3cpr7ResolveESt6vectorIS2_SaIS2_EEEEbRKNS_17__normal_iteratorIT_T0_EESD_
	testb	%al, %al
	jne	.L455
	movq	160(%rbp), %rax
	addq	$24, %rax
	movq	%rax, %rcx
	call	_ZNKSt19__shared_ptr_accessIN3cpr10CurlHolderELN9__gnu_cxx12_Lock_policyE2ELb0ELb0EEptEv
	movq	16(%rax), %rbx
	movq	160(%rbp), %rax
	addq	$24, %rax
	movq	%rax, %rcx
	call	_ZNKSt19__shared_ptr_accessIN3cpr10CurlHolderELN9__gnu_cxx12_Lock_policyE2ELb0ELb0EEptEv
	movq	(%rax), %rax
	movq	%rbx, %r8
	movl	$10203, %edx
	movq	%rax, %rcx
	movq	__imp_curl_easy_setopt(%rip), %rax
.LEHB68:
	call	*%rax
	jmp	.L466
.L465:
	movq	%rax, %rbx
	leaq	-64(%rbp), %rax
	movq	%rax, %rcx
	call	_ZNSt7__cxx1112basic_stringIcSt11char_traitsIcESaIcEED1Ev
	jmp	.L457
.L464:
	movq	%rax, %rbx
.L457:
	leaq	-32(%rbp), %rax
	movq	%rax, %rcx
	call	_ZNSt7__cxx1112basic_stringIcSt11char_traitsIcESaIcEED1Ev
	jmp	.L458
.L463:
	movq	%rax, %rbx
.L458:
	movq	%rbp, %rax
	movq	%rax, %rcx
	call	_ZNSt7__cxx1112basic_stringIcSt11char_traitsIcESaIcEED1Ev
	jmp	.L459
.L462:
	movq	%rax, %rbx
.L459:
	leaq	64(%rbp), %rax
	movq	%rax, %rcx
	call	_ZNSt7__cxx1112basic_stringIcSt11char_traitsIcESaIcEED1Ev
	jmp	.L460
.L461:
	movq	%rax, %rbx
.L460:
	leaq	32(%rbp), %rax
	movq	%rax, %rcx
	call	_ZNSt7__cxx1112basic_stringIcSt11char_traitsIcESaIcEED1Ev
	movq	%rbx, %rax
	movq	%rax, %rcx
	call	_Unwind_Resume
	nop
.LEHE68:
.L466:
	addq	$264, %rsp
	popq	%rbx
	popq	%rbp
	ret
	.seh_handler	__gxx_personality_seh0, @unwind, @except
	.seh_handlerdata
.LLSDA13606:
	.byte	0xff
	.byte	0xff
	.byte	0x1
	.uleb128 .LLSDACSE13606-.LLSDACSB13606
.LLSDACSB13606:
	.uleb128 .LEHB62-.LFB13606
	.uleb128 .LEHE62-.LEHB62
	.uleb128 0
	.uleb128 0
	.uleb128 .LEHB63-.LFB13606
	.uleb128 .LEHE63-.LEHB63
	.uleb128 .L461-.LFB13606
	.uleb128 0
	.uleb128 .LEHB64-.LFB13606
	.uleb128 .LEHE64-.LEHB64
	.uleb128 .L462-.LFB13606
	.uleb128 0
	.uleb128 .LEHB65-.LFB13606
	.uleb128 .LEHE65-.LEHB65
	.uleb128 .L463-.LFB13606
	.uleb128 0
	.uleb128 .LEHB66-.LFB13606
	.uleb128 .LEHE66-.LEHB66
	.uleb128 .L464-.LFB13606
	.uleb128 0
	.uleb128 .LEHB67-.LFB13606
	.uleb128 .LEHE67-.LEHB67
	.uleb128 .L465-.LFB13606
	.uleb128 0
	.uleb128 .LEHB68-.LFB13606
	.uleb128 .LEHE68-.LEHB68
	.uleb128 0
	.uleb128 0
.LLSDACSE13606:
	.text
	.seh_endproc
	.section	.text$_ZN3cpr13CurlContainerINS_9ParameterEEaSERKS2_,"x"
	.linkonce discard
	.align 2
	.globl	_ZN3cpr13CurlContainerINS_9ParameterEEaSERKS2_
	.def	_ZN3cpr13CurlContainerINS_9ParameterEEaSERKS2_;	.scl	2;	.type	32;	.endef
	.seh_proc	_ZN3cpr13CurlContainerINS_9ParameterEEaSERKS2_
_ZN3cpr13CurlContainerINS_9ParameterEEaSERKS2_:
.LFB13609:
	pushq	%rbp
	.seh_pushreg	%rbp
	movq	%rsp, %rbp
	.seh_setframe	%rbp, 0
	subq	$32, %rsp
	.seh_stackalloc	32
	.seh_endprologue
	movq	%rcx, 16(%rbp)
	movq	%rdx, 24(%rbp)
	movq	24(%rbp), %rax
	movzbl	(%rax), %edx
	movq	16(%rbp), %rax
	movb	%dl, (%rax)
	movq	24(%rbp), %rax
	leaq	8(%rax), %rdx
	movq	16(%rbp), %rax
	addq	$8, %rax
	movq	%rax, %rcx
	call	_ZNSt6vectorIN3cpr9ParameterESaIS1_EEaSERKS3_
	movq	16(%rbp), %rax
	addq	$32, %rsp
	popq	%rbp
	ret
	.seh_endproc
	.section	.text$_ZN3cpr10ParametersaSERKS0_,"x"
	.linkonce discard
	.align 2
	.globl	_ZN3cpr10ParametersaSERKS0_
	.def	_ZN3cpr10ParametersaSERKS0_;	.scl	2;	.type	32;	.endef
	.seh_proc	_ZN3cpr10ParametersaSERKS0_
_ZN3cpr10ParametersaSERKS0_:
.LFB13608:
	pushq	%rbp
	.seh_pushreg	%rbp
	movq	%rsp, %rbp
	.seh_setframe	%rbp, 0
	subq	$32, %rsp
	.seh_stackalloc	32
	.seh_endprologue
	movq	%rcx, 16(%rbp)
	movq	%rdx, 24(%rbp)
	movq	16(%rbp), %rax
	movq	24(%rbp), %rdx
	movq	%rax, %rcx
	call	_ZN3cpr13CurlContainerINS_9ParameterEEaSERKS2_
	movq	16(%rbp), %rax
	addq	$32, %rsp
	popq	%rbp
	ret
	.seh_endproc
	.text
	.align 2
	.globl	_ZN3cpr7Session13SetParametersERKNS_10ParametersE
	.def	_ZN3cpr7Session13SetParametersERKNS_10ParametersE;	.scl	2;	.type	32;	.endef
	.seh_proc	_ZN3cpr7Session13SetParametersERKNS_10ParametersE
_ZN3cpr7Session13SetParametersERKNS_10ParametersE:
.LFB13607:
	pushq	%rbp
	.seh_pushreg	%rbp
	movq	%rsp, %rbp
	.seh_setframe	%rbp, 0
	subq	$32, %rsp
	.seh_stackalloc	32
	.seh_endprologue
	movq	%rcx, 16(%rbp)
	movq	%rdx, 24(%rbp)
	movq	16(%rbp), %rax
	leaq	80(%rax), %rcx
	movq	24(%rbp), %rax
	movq	%rax, %rdx
	call	_ZN3cpr10ParametersaSERKS0_
	nop
	addq	$32, %rsp
	popq	%rbp
	ret
	.seh_endproc
	.section	.text$_ZN3cpr13CurlContainerINS_9ParameterEEaSEOS2_,"x"
	.linkonce discard
	.align 2
	.globl	_ZN3cpr13CurlContainerINS_9ParameterEEaSEOS2_
	.def	_ZN3cpr13CurlContainerINS_9ParameterEEaSEOS2_;	.scl	2;	.type	32;	.endef
	.seh_proc	_ZN3cpr13CurlContainerINS_9ParameterEEaSEOS2_
_ZN3cpr13CurlContainerINS_9ParameterEEaSEOS2_:
.LFB13615:
	pushq	%rbp
	.seh_pushreg	%rbp
	movq	%rsp, %rbp
	.seh_setframe	%rbp, 0
	subq	$32, %rsp
	.seh_stackalloc	32
	.seh_endprologue
	movq	%rcx, 16(%rbp)
	movq	%rdx, 24(%rbp)
	movq	24(%rbp), %rax
	movzbl	(%rax), %edx
	movq	16(%rbp), %rax
	movb	%dl, (%rax)
	movq	24(%rbp), %rax
	leaq	8(%rax), %rdx
	movq	16(%rbp), %rax
	addq	$8, %rax
	movq	%rax, %rcx
	call	_ZNSt6vectorIN3cpr9ParameterESaIS1_EEaSEOS3_
	movq	16(%rbp), %rax
	addq	$32, %rsp
	popq	%rbp
	ret
	.seh_endproc
	.section	.text$_ZN3cpr10ParametersaSEOS0_,"x"
	.linkonce discard
	.align 2
	.globl	_ZN3cpr10ParametersaSEOS0_
	.def	_ZN3cpr10ParametersaSEOS0_;	.scl	2;	.type	32;	.endef
	.seh_proc	_ZN3cpr10ParametersaSEOS0_
_ZN3cpr10ParametersaSEOS0_:
.LFB13614:
	pushq	%rbp
	.seh_pushreg	%rbp
	movq	%rsp, %rbp
	.seh_setframe	%rbp, 0
	subq	$32, %rsp
	.seh_stackalloc	32
	.seh_endprologue
	movq	%rcx, 16(%rbp)
	movq	%rdx, 24(%rbp)
	movq	16(%rbp), %rax
	movq	24(%rbp), %rdx
	movq	%rax, %rcx
	call	_ZN3cpr13CurlContainerINS_9ParameterEEaSEOS2_
	movq	16(%rbp), %rax
	addq	$32, %rsp
	popq	%rbp
	ret
	.seh_endproc
	.text
	.align 2
	.globl	_ZN3cpr7Session13SetParametersEONS_10ParametersE
	.def	_ZN3cpr7Session13SetParametersEONS_10ParametersE;	.scl	2;	.type	32;	.endef
	.seh_proc	_ZN3cpr7Session13SetParametersEONS_10ParametersE
_ZN3cpr7Session13SetParametersEONS_10ParametersE:
.LFB13610:
	pushq	%rbp
	.seh_pushreg	%rbp
	movq	%rsp, %rbp
	.seh_setframe	%rbp, 0
	subq	$32, %rsp
	.seh_stackalloc	32
	.seh_endprologue
	movq	%rcx, 16(%rbp)
	movq	%rdx, 24(%rbp)
	movq	24(%rbp), %rax
	movq	%rax, %rcx
	call	_ZSt4moveIRN3cpr10ParametersEEONSt16remove_referenceIT_E4typeEOS4_
	movq	%rax, %rdx
	movq	16(%rbp), %rax
	addq	$80, %rax
	movq	%rax, %rcx
	call	_ZN3cpr10ParametersaSEOS0_
	nop
	addq	$32, %rsp
	popq	%rbp
	ret
	.seh_endproc
	.section	.text$_ZNSt3mapINSt7__cxx1112basic_stringIcSt11char_traitsIcESaIcEEES5_N3cpr22CaseInsensitiveCompareESaISt4pairIKS5_S5_EEEaSERKSC_,"x"
	.linkonce discard
	.align 2
	.globl	_ZNSt3mapINSt7__cxx1112basic_stringIcSt11char_traitsIcESaIcEEES5_N3cpr22CaseInsensitiveCompareESaISt4pairIKS5_S5_EEEaSERKSC_
	.def	_ZNSt3mapINSt7__cxx1112basic_stringIcSt11char_traitsIcESaIcEEES5_N3cpr22CaseInsensitiveCompareESaISt4pairIKS5_S5_EEEaSERKSC_;	.scl	2;	.type	32;	.endef
	.seh_proc	_ZNSt3mapINSt7__cxx1112basic_stringIcSt11char_traitsIcESaIcEEES5_N3cpr22CaseInsensitiveCompareESaISt4pairIKS5_S5_EEEaSERKSC_
_ZNSt3mapINSt7__cxx1112basic_stringIcSt11char_traitsIcESaIcEEES5_N3cpr22CaseInsensitiveCompareESaISt4pairIKS5_S5_EEEaSERKSC_:
.LFB13617:
	pushq	%rbp
	.seh_pushreg	%rbp
	movq	%rsp, %rbp
	.seh_setframe	%rbp, 0
	subq	$32, %rsp
	.seh_stackalloc	32
	.seh_endprologue
	movq	%rcx, 16(%rbp)
	movq	%rdx, 24(%rbp)
	movq	24(%rbp), %rdx
	movq	16(%rbp), %rax
	movq	%rax, %rcx
	call	_ZNSt8_Rb_treeINSt7__cxx1112basic_stringIcSt11char_traitsIcESaIcEEESt4pairIKS5_S5_ESt10_Select1stIS8_EN3cpr22CaseInsensitiveCompareESaIS8_EEaSERKSE_
	movq	16(%rbp), %rax
	addq	$32, %rsp
	popq	%rbp
	ret
	.seh_endproc
	.text
	.align 2
	.globl	_ZN3cpr7Session9SetHeaderERKSt3mapINSt7__cxx1112basic_stringIcSt11char_traitsIcESaIcEEES7_NS_22CaseInsensitiveCompareESaISt4pairIKS7_S7_EEE
	.def	_ZN3cpr7Session9SetHeaderERKSt3mapINSt7__cxx1112basic_stringIcSt11char_traitsIcESaIcEEES7_NS_22CaseInsensitiveCompareESaISt4pairIKS7_S7_EEE;	.scl	2;	.type	32;	.endef
	.seh_proc	_ZN3cpr7Session9SetHeaderERKSt3mapINSt7__cxx1112basic_stringIcSt11char_traitsIcESaIcEEES7_NS_22CaseInsensitiveCompareESaISt4pairIKS7_S7_EEE
_ZN3cpr7Session9SetHeaderERKSt3mapINSt7__cxx1112basic_stringIcSt11char_traitsIcESaIcEEES7_NS_22CaseInsensitiveCompareESaISt4pairIKS7_S7_EEE:
.LFB13616:
	pushq	%rbp
	.seh_pushreg	%rbp
	movq	%rsp, %rbp
	.seh_setframe	%rbp, 0
	subq	$32, %rsp
	.seh_stackalloc	32
	.seh_endprologue
	movq	%rcx, 16(%rbp)
	movq	%rdx, 24(%rbp)
	movq	16(%rbp), %rax
	leaq	208(%rax), %rcx
	movq	24(%rbp), %rax
	movq	%rax, %rdx
	call	_ZNSt3mapINSt7__cxx1112basic_stringIcSt11char_traitsIcESaIcEEES5_N3cpr22CaseInsensitiveCompareESaISt4pairIKS5_S5_EEEaSERKSC_
	nop
	addq	$32, %rsp
	popq	%rbp
	ret
	.seh_endproc
	.align 2
	.globl	_ZN3cpr7Session12UpdateHeaderERKSt3mapINSt7__cxx1112basic_stringIcSt11char_traitsIcESaIcEEES7_NS_22CaseInsensitiveCompareESaISt4pairIKS7_S7_EEE
	.def	_ZN3cpr7Session12UpdateHeaderERKSt3mapINSt7__cxx1112basic_stringIcSt11char_traitsIcESaIcEEES7_NS_22CaseInsensitiveCompareESaISt4pairIKS7_S7_EEE;	.scl	2;	.type	32;	.endef
	.seh_proc	_ZN3cpr7Session12UpdateHeaderERKSt3mapINSt7__cxx1112basic_stringIcSt11char_traitsIcESaIcEEES7_NS_22CaseInsensitiveCompareESaISt4pairIKS7_S7_EEE
_ZN3cpr7Session12UpdateHeaderERKSt3mapINSt7__cxx1112basic_stringIcSt11char_traitsIcESaIcEEES7_NS_22CaseInsensitiveCompareESaISt4pairIKS7_S7_EEE:
.LFB13618:
	pushq	%rbp
	.seh_pushreg	%rbp
	pushq	%rbx
	.seh_pushreg	%rbx
	subq	$72, %rsp
	.seh_stackalloc	72
	leaq	64(%rsp), %rbp
	.seh_setframe	%rbp, 64
	.seh_endprologue
	movq	%rcx, 32(%rbp)
	movq	%rdx, 40(%rbp)
	movq	40(%rbp), %rax
	movq	%rax, -8(%rbp)
	movq	-8(%rbp), %rax
	movq	%rax, %rcx
	call	_ZNKSt3mapINSt7__cxx1112basic_stringIcSt11char_traitsIcESaIcEEES5_N3cpr22CaseInsensitiveCompareESaISt4pairIKS5_S5_EEE5beginEv
	movq	%rax, -24(%rbp)
	movq	-8(%rbp), %rax
	movq	%rax, %rcx
	call	_ZNKSt3mapINSt7__cxx1112basic_stringIcSt11char_traitsIcESaIcEEES5_N3cpr22CaseInsensitiveCompareESaISt4pairIKS5_S5_EEE3endEv
	movq	%rax, -32(%rbp)
	jmp	.L481
.L482:
	leaq	-24(%rbp), %rax
	movq	%rax, %rcx
	call	_ZNKSt23_Rb_tree_const_iteratorISt4pairIKNSt7__cxx1112basic_stringIcSt11char_traitsIcESaIcEEES6_EEdeEv
	movq	%rax, -16(%rbp)
	movq	-16(%rbp), %rax
	leaq	32(%rax), %rbx
	movq	32(%rbp), %rax
	leaq	208(%rax), %rcx
	movq	-16(%rbp), %rax
	movq	%rax, %rdx
	call	_ZNSt3mapINSt7__cxx1112basic_stringIcSt11char_traitsIcESaIcEEES5_N3cpr22CaseInsensitiveCompareESaISt4pairIKS5_S5_EEEixERS9_
	movq	%rbx, %rdx
	movq	%rax, %rcx
	call	_ZNSt7__cxx1112basic_stringIcSt11char_traitsIcESaIcEEaSERKS4_
	leaq	-24(%rbp), %rax
	movq	%rax, %rcx
	call	_ZNSt23_Rb_tree_const_iteratorISt4pairIKNSt7__cxx1112basic_stringIcSt11char_traitsIcESaIcEEES6_EEppEv
.L481:
	leaq	-32(%rbp), %rdx
	leaq	-24(%rbp), %rax
	movq	%rax, %rcx
	call	_ZStneRKSt23_Rb_tree_const_iteratorISt4pairIKNSt7__cxx1112basic_stringIcSt11char_traitsIcESaIcEEES6_EESB_
	testb	%al, %al
	jne	.L482
	nop
	nop
	addq	$72, %rsp
	popq	%rbx
	popq	%rbp
	ret
	.seh_endproc
	.align 2
	.globl	_ZN3cpr7Session10SetTimeoutERKNS_7TimeoutE
	.def	_ZN3cpr7Session10SetTimeoutERKNS_7TimeoutE;	.scl	2;	.type	32;	.endef
	.seh_proc	_ZN3cpr7Session10SetTimeoutERKNS_7TimeoutE
_ZN3cpr7Session10SetTimeoutERKNS_7TimeoutE:
.LFB13619:
	pushq	%rbp
	.seh_pushreg	%rbp
	pushq	%rbx
	.seh_pushreg	%rbx
	subq	$40, %rsp
	.seh_stackalloc	40
	leaq	32(%rsp), %rbp
	.seh_setframe	%rbp, 32
	.seh_endprologue
	movq	%rcx, 32(%rbp)
	movq	%rdx, 40(%rbp)
	movq	40(%rbp), %rax
	movq	%rax, %rcx
	call	_ZNK3cpr7Timeout12MillisecondsEv
	movl	%eax, %ebx
	movq	32(%rbp), %rax
	addq	$24, %rax
	movq	%rax, %rcx
	call	_ZNKSt19__shared_ptr_accessIN3cpr10CurlHolderELN9__gnu_cxx12_Lock_policyE2ELb0ELb0EEptEv
	movq	(%rax), %rax
	movl	%ebx, %r8d
	movl	$155, %edx
	movq	%rax, %rcx
	movq	__imp_curl_easy_setopt(%rip), %rax
	call	*%rax
	nop
	addq	$40, %rsp
	popq	%rbx
	popq	%rbp
	ret
	.seh_endproc
	.align 2
	.globl	_ZN3cpr7Session17SetConnectTimeoutERKNS_14ConnectTimeoutE
	.def	_ZN3cpr7Session17SetConnectTimeoutERKNS_14ConnectTimeoutE;	.scl	2;	.type	32;	.endef
	.seh_proc	_ZN3cpr7Session17SetConnectTimeoutERKNS_14ConnectTimeoutE
_ZN3cpr7Session17SetConnectTimeoutERKNS_14ConnectTimeoutE:
.LFB13620:
	pushq	%rbp
	.seh_pushreg	%rbp
	pushq	%rbx
	.seh_pushreg	%rbx
	subq	$40, %rsp
	.seh_stackalloc	40
	leaq	32(%rsp), %rbp
	.seh_setframe	%rbp, 32
	.seh_endprologue
	movq	%rcx, 32(%rbp)
	movq	%rdx, 40(%rbp)
	movq	40(%rbp), %rax
	movq	%rax, %rcx
	call	_ZNK3cpr7Timeout12MillisecondsEv
	movl	%eax, %ebx
	movq	32(%rbp), %rax
	addq	$24, %rax
	movq	%rax, %rcx
	call	_ZNKSt19__shared_ptr_accessIN3cpr10CurlHolderELN9__gnu_cxx12_Lock_policyE2ELb0ELb0EEptEv
	movq	(%rax), %rax
	movl	%ebx, %r8d
	movl	$156, %edx
	movq	%rax, %rcx
	movq	__imp_curl_easy_setopt(%rip), %rax
	call	*%rax
	nop
	addq	$40, %rsp
	popq	%rbx
	popq	%rbp
	ret
	.seh_endproc
	.align 2
	.globl	_ZN3cpr7Session7SetAuthERKNS_14AuthenticationE
	.def	_ZN3cpr7Session7SetAuthERKNS_14AuthenticationE;	.scl	2;	.type	32;	.endef
	.seh_proc	_ZN3cpr7Session7SetAuthERKNS_14AuthenticationE
_ZN3cpr7Session7SetAuthERKNS_14AuthenticationE:
.LFB13621:
	pushq	%rbp
	.seh_pushreg	%rbp
	pushq	%rbx
	.seh_pushreg	%rbx
	subq	$40, %rsp
	.seh_stackalloc	40
	leaq	32(%rsp), %rbp
	.seh_setframe	%rbp, 32
	.seh_endprologue
	movq	%rcx, 32(%rbp)
	movq	%rdx, 40(%rbp)
	movq	40(%rbp), %rax
	movq	%rax, %rcx
	call	_ZNK3cpr14Authentication11GetAuthModeEv
	cmpl	$2, %eax
	je	.L486
	cmpl	$2, %eax
	jg	.L490
	testl	%eax, %eax
	je	.L488
	cmpl	$1, %eax
	je	.L489
	jmp	.L490
.L488:
	movq	32(%rbp), %rax
	addq	$24, %rax
	movq	%rax, %rcx
	call	_ZNKSt19__shared_ptr_accessIN3cpr10CurlHolderELN9__gnu_cxx12_Lock_policyE2ELb0ELb0EEptEv
	movq	(%rax), %rax
	movl	$1, %r8d
	movl	$107, %edx
	movq	%rax, %rcx
	movq	__imp_curl_easy_setopt(%rip), %rax
	call	*%rax
	movq	40(%rbp), %rax
	movq	%rax, %rcx
	call	_ZNK3cpr14Authentication13GetAuthStringEv
	movq	%rax, %rbx
	movq	32(%rbp), %rax
	addq	$24, %rax
	movq	%rax, %rcx
	call	_ZNKSt19__shared_ptr_accessIN3cpr10CurlHolderELN9__gnu_cxx12_Lock_policyE2ELb0ELb0EEptEv
	movq	(%rax), %rax
	movq	%rbx, %r8
	movl	$10005, %edx
	movq	%rax, %rcx
	movq	__imp_curl_easy_setopt(%rip), %rax
	call	*%rax
	jmp	.L487
.L489:
	movq	32(%rbp), %rax
	addq	$24, %rax
	movq	%rax, %rcx
	call	_ZNKSt19__shared_ptr_accessIN3cpr10CurlHolderELN9__gnu_cxx12_Lock_policyE2ELb0ELb0EEptEv
	movq	(%rax), %rax
	movl	$2, %r8d
	movl	$107, %edx
	movq	%rax, %rcx
	movq	__imp_curl_easy_setopt(%rip), %rax
	call	*%rax
	movq	40(%rbp), %rax
	movq	%rax, %rcx
	call	_ZNK3cpr14Authentication13GetAuthStringEv
	movq	%rax, %rbx
	movq	32(%rbp), %rax
	addq	$24, %rax
	movq	%rax, %rcx
	call	_ZNKSt19__shared_ptr_accessIN3cpr10CurlHolderELN9__gnu_cxx12_Lock_policyE2ELb0ELb0EEptEv
	movq	(%rax), %rax
	movq	%rbx, %r8
	movl	$10005, %edx
	movq	%rax, %rcx
	movq	__imp_curl_easy_setopt(%rip), %rax
	call	*%rax
	jmp	.L487
.L486:
	movq	32(%rbp), %rax
	addq	$24, %rax
	movq	%rax, %rcx
	call	_ZNKSt19__shared_ptr_accessIN3cpr10CurlHolderELN9__gnu_cxx12_Lock_policyE2ELb0ELb0EEptEv
	movq	(%rax), %rax
	movl	$8, %r8d
	movl	$107, %edx
	movq	%rax, %rcx
	movq	__imp_curl_easy_setopt(%rip), %rax
	call	*%rax
	movq	40(%rbp), %rax
	movq	%rax, %rcx
	call	_ZNK3cpr14Authentication13GetAuthStringEv
	movq	%rax, %rbx
	movq	32(%rbp), %rax
	addq	$24, %rax
	movq	%rax, %rcx
	call	_ZNKSt19__shared_ptr_accessIN3cpr10CurlHolderELN9__gnu_cxx12_Lock_policyE2ELb0ELb0EEptEv
	movq	(%rax), %rax
	movq	%rbx, %r8
	movl	$10005, %edx
	movq	%rax, %rcx
	movq	__imp_curl_easy_setopt(%rip), %rax
	call	*%rax
	nop
.L487:
.L490:
	nop
	addq	$40, %rsp
	popq	%rbx
	popq	%rbp
	ret
	.seh_endproc
	.align 2
	.globl	_ZN3cpr7Session12SetUserAgentERKNS_9UserAgentE
	.def	_ZN3cpr7Session12SetUserAgentERKNS_9UserAgentE;	.scl	2;	.type	32;	.endef
	.seh_proc	_ZN3cpr7Session12SetUserAgentERKNS_9UserAgentE
_ZN3cpr7Session12SetUserAgentERKNS_9UserAgentE:
.LFB13622:
	pushq	%rbp
	.seh_pushreg	%rbp
	pushq	%rbx
	.seh_pushreg	%rbx
	subq	$40, %rsp
	.seh_stackalloc	40
	leaq	32(%rsp), %rbp
	.seh_setframe	%rbp, 32
	.seh_endprologue
	movq	%rcx, 32(%rbp)
	movq	%rdx, 40(%rbp)
	movq	40(%rbp), %rax
	movq	%rax, %rcx
	call	_ZNK3cpr12StringHolderINS_9UserAgentEE5c_strEv
	movq	%rax, %rbx
	movq	32(%rbp), %rax
	addq	$24, %rax
	movq	%rax, %rcx
	call	_ZNKSt19__shared_ptr_accessIN3cpr10CurlHolderELN9__gnu_cxx12_Lock_policyE2ELb0ELb0EEptEv
	movq	(%rax), %rax
	movq	%rbx, %r8
	movl	$10018, %edx
	movq	%rax, %rcx
	movq	__imp_curl_easy_setopt(%rip), %rax
	call	*%rax
	nop
	addq	$40, %rsp
	popq	%rbx
	popq	%rbp
	ret
	.seh_endproc
	.align 2
	.globl	_ZN3cpr7Session10SetPayloadERKNS_7PayloadE
	.def	_ZN3cpr7Session10SetPayloadERKNS_7PayloadE;	.scl	2;	.type	32;	.endef
	.seh_proc	_ZN3cpr7Session10SetPayloadERKNS_7PayloadE
_ZN3cpr7Session10SetPayloadERKNS_7PayloadE:
.LFB13623:
	pushq	%rbp
	.seh_pushreg	%rbp
	pushq	%rbx
	.seh_pushreg	%rbx
	subq	$72, %rsp
	.seh_stackalloc	72
	leaq	64(%rsp), %rbp
	.seh_setframe	%rbp, 64
	.seh_endprologue
	movq	%rcx, 32(%rbp)
	movq	%rdx, 40(%rbp)
	movq	32(%rbp), %rax
	movb	$1, 16(%rax)
	movq	40(%rbp), %rbx
	movq	32(%rbp), %rax
	addq	$24, %rax
	movq	%rax, %rcx
	call	_ZNKSt19__shared_ptr_accessIN3cpr10CurlHolderELN9__gnu_cxx12_Lock_policyE2ELb0ELb0EEdeEv
	movq	%rax, %rdx
	leaq	-32(%rbp), %rax
	movq	%rdx, %r8
	movq	%rbx, %rdx
	movq	%rax, %rcx
.LEHB69:
	call	_ZNK3cpr13CurlContainerINS_4PairEE10GetContentB5cxx11ERKNS_10CurlHolderE
.LEHE69:
	leaq	-32(%rbp), %rax
	movq	%rax, %rcx
	call	_ZNKSt7__cxx1112basic_stringIcSt11char_traitsIcESaIcEE6lengthEv
	movq	%rax, %rbx
	movq	32(%rbp), %rax
	addq	$24, %rax
	movq	%rax, %rcx
	call	_ZNKSt19__shared_ptr_accessIN3cpr10CurlHolderELN9__gnu_cxx12_Lock_policyE2ELb0ELb0EEptEv
	movq	(%rax), %rax
	movq	%rbx, %r8
	movl	$30120, %edx
	movq	%rax, %rcx
	movq	__imp_curl_easy_setopt(%rip), %rax
.LEHB70:
	call	*%rax
	leaq	-32(%rbp), %rax
	movq	%rax, %rcx
	call	_ZNKSt7__cxx1112basic_stringIcSt11char_traitsIcESaIcEE5c_strEv
	movq	%rax, %rbx
	movq	32(%rbp), %rax
	addq	$24, %rax
	movq	%rax, %rcx
	call	_ZNKSt19__shared_ptr_accessIN3cpr10CurlHolderELN9__gnu_cxx12_Lock_policyE2ELb0ELb0EEptEv
	movq	(%rax), %rax
	movq	%rbx, %r8
	movl	$10165, %edx
	movq	%rax, %rcx
	movq	__imp_curl_easy_setopt(%rip), %rax
	call	*%rax
.LEHE70:
	leaq	-32(%rbp), %rax
	movq	%rax, %rcx
	call	_ZNSt7__cxx1112basic_stringIcSt11char_traitsIcESaIcEED1Ev
	jmp	.L495
.L494:
	movq	%rax, %rbx
	leaq	-32(%rbp), %rax
	movq	%rax, %rcx
	call	_ZNSt7__cxx1112basic_stringIcSt11char_traitsIcESaIcEED1Ev
	movq	%rbx, %rax
	movq	%rax, %rcx
.LEHB71:
	call	_Unwind_Resume
	nop
.LEHE71:
.L495:
	addq	$72, %rsp
	popq	%rbx
	popq	%rbp
	ret
	.seh_handler	__gxx_personality_seh0, @unwind, @except
	.seh_handlerdata
.LLSDA13623:
	.byte	0xff
	.byte	0xff
	.byte	0x1
	.uleb128 .LLSDACSE13623-.LLSDACSB13623
.LLSDACSB13623:
	.uleb128 .LEHB69-.LFB13623
	.uleb128 .LEHE69-.LEHB69
	.uleb128 0
	.uleb128 0
	.uleb128 .LEHB70-.LFB13623
	.uleb128 .LEHE70-.LEHB70
	.uleb128 .L494-.LFB13623
	.uleb128 0
	.uleb128 .LEHB71-.LFB13623
	.uleb128 .LEHE71-.LEHB71
	.uleb128 0
	.uleb128 0
.LLSDACSE13623:
	.text
	.seh_endproc
	.align 2
	.globl	_ZN3cpr7Session10SetPayloadEONS_7PayloadE
	.def	_ZN3cpr7Session10SetPayloadEONS_7PayloadE;	.scl	2;	.type	32;	.endef
	.seh_proc	_ZN3cpr7Session10SetPayloadEONS_7PayloadE
_ZN3cpr7Session10SetPayloadEONS_7PayloadE:
.LFB13624:
	pushq	%rbp
	.seh_pushreg	%rbp
	pushq	%rbx
	.seh_pushreg	%rbx
	subq	$72, %rsp
	.seh_stackalloc	72
	leaq	64(%rsp), %rbp
	.seh_setframe	%rbp, 64
	.seh_endprologue
	movq	%rcx, 32(%rbp)
	movq	%rdx, 40(%rbp)
	movq	32(%rbp), %rax
	movb	$1, 16(%rax)
	movq	40(%rbp), %rbx
	movq	32(%rbp), %rax
	addq	$24, %rax
	movq	%rax, %rcx
	call	_ZNKSt19__shared_ptr_accessIN3cpr10CurlHolderELN9__gnu_cxx12_Lock_policyE2ELb0ELb0EEdeEv
	movq	%rax, %rdx
	leaq	-32(%rbp), %rax
	movq	%rdx, %r8
	movq	%rbx, %rdx
	movq	%rax, %rcx
.LEHB72:
	call	_ZNK3cpr13CurlContainerINS_4PairEE10GetContentB5cxx11ERKNS_10CurlHolderE
.LEHE72:
	leaq	-32(%rbp), %rax
	movq	%rax, %rcx
	call	_ZNKSt7__cxx1112basic_stringIcSt11char_traitsIcESaIcEE6lengthEv
	movq	%rax, %rbx
	movq	32(%rbp), %rax
	addq	$24, %rax
	movq	%rax, %rcx
	call	_ZNKSt19__shared_ptr_accessIN3cpr10CurlHolderELN9__gnu_cxx12_Lock_policyE2ELb0ELb0EEptEv
	movq	(%rax), %rax
	movq	%rbx, %r8
	movl	$30120, %edx
	movq	%rax, %rcx
	movq	__imp_curl_easy_setopt(%rip), %rax
.LEHB73:
	call	*%rax
	leaq	-32(%rbp), %rax
	movq	%rax, %rcx
	call	_ZNKSt7__cxx1112basic_stringIcSt11char_traitsIcESaIcEE5c_strEv
	movq	%rax, %rbx
	movq	32(%rbp), %rax
	addq	$24, %rax
	movq	%rax, %rcx
	call	_ZNKSt19__shared_ptr_accessIN3cpr10CurlHolderELN9__gnu_cxx12_Lock_policyE2ELb0ELb0EEptEv
	movq	(%rax), %rax
	movq	%rbx, %r8
	movl	$10165, %edx
	movq	%rax, %rcx
	movq	__imp_curl_easy_setopt(%rip), %rax
	call	*%rax
.LEHE73:
	leaq	-32(%rbp), %rax
	movq	%rax, %rcx
	call	_ZNSt7__cxx1112basic_stringIcSt11char_traitsIcESaIcEED1Ev
	jmp	.L499
.L498:
	movq	%rax, %rbx
	leaq	-32(%rbp), %rax
	movq	%rax, %rcx
	call	_ZNSt7__cxx1112basic_stringIcSt11char_traitsIcESaIcEED1Ev
	movq	%rbx, %rax
	movq	%rax, %rcx
.LEHB74:
	call	_Unwind_Resume
	nop
.LEHE74:
.L499:
	addq	$72, %rsp
	popq	%rbx
	popq	%rbp
	ret
	.seh_handler	__gxx_personality_seh0, @unwind, @except
	.seh_handlerdata
.LLSDA13624:
	.byte	0xff
	.byte	0xff
	.byte	0x1
	.uleb128 .LLSDACSE13624-.LLSDACSB13624
.LLSDACSB13624:
	.uleb128 .LEHB72-.LFB13624
	.uleb128 .LEHE72-.LEHB72
	.uleb128 0
	.uleb128 0
	.uleb128 .LEHB73-.LFB13624
	.uleb128 .LEHE73-.LEHB73
	.uleb128 .L498-.LFB13624
	.uleb128 0
	.uleb128 .LEHB74-.LFB13624
	.uleb128 .LEHE74-.LEHB74
	.uleb128 0
	.uleb128 0
.LLSDACSE13624:
	.text
	.seh_endproc
	.section	.text$_ZNSt3mapINSt7__cxx1112basic_stringIcSt11char_traitsIcESaIcEEES5_St4lessIS5_ESaISt4pairIKS5_S5_EEEaSERKSC_,"x"
	.linkonce discard
	.align 2
	.globl	_ZNSt3mapINSt7__cxx1112basic_stringIcSt11char_traitsIcESaIcEEES5_St4lessIS5_ESaISt4pairIKS5_S5_EEEaSERKSC_
	.def	_ZNSt3mapINSt7__cxx1112basic_stringIcSt11char_traitsIcESaIcEEES5_St4lessIS5_ESaISt4pairIKS5_S5_EEEaSERKSC_;	.scl	2;	.type	32;	.endef
	.seh_proc	_ZNSt3mapINSt7__cxx1112basic_stringIcSt11char_traitsIcESaIcEEES5_St4lessIS5_ESaISt4pairIKS5_S5_EEEaSERKSC_
_ZNSt3mapINSt7__cxx1112basic_stringIcSt11char_traitsIcESaIcEEES5_St4lessIS5_ESaISt4pairIKS5_S5_EEEaSERKSC_:
.LFB13627:
	pushq	%rbp
	.seh_pushreg	%rbp
	movq	%rsp, %rbp
	.seh_setframe	%rbp, 0
	subq	$32, %rsp
	.seh_stackalloc	32
	.seh_endprologue
	movq	%rcx, 16(%rbp)
	movq	%rdx, 24(%rbp)
	movq	24(%rbp), %rdx
	movq	16(%rbp), %rax
	movq	%rax, %rcx
	call	_ZNSt8_Rb_treeINSt7__cxx1112basic_stringIcSt11char_traitsIcESaIcEEESt4pairIKS5_S5_ESt10_Select1stIS8_ESt4lessIS5_ESaIS8_EEaSERKSE_
	movq	16(%rbp), %rax
	addq	$32, %rsp
	popq	%rbp
	ret
	.seh_endproc
	.section	.text$_ZN3cpr7ProxiesaSERKS0_,"x"
	.linkonce discard
	.align 2
	.globl	_ZN3cpr7ProxiesaSERKS0_
	.def	_ZN3cpr7ProxiesaSERKS0_;	.scl	2;	.type	32;	.endef
	.seh_proc	_ZN3cpr7ProxiesaSERKS0_
_ZN3cpr7ProxiesaSERKS0_:
.LFB13626:
	pushq	%rbp
	.seh_pushreg	%rbp
	movq	%rsp, %rbp
	.seh_setframe	%rbp, 0
	subq	$32, %rsp
	.seh_stackalloc	32
	.seh_endprologue
	movq	%rcx, 16(%rbp)
	movq	%rdx, 24(%rbp)
	movq	24(%rbp), %rdx
	movq	16(%rbp), %rax
	movq	%rax, %rcx
	call	_ZNSt3mapINSt7__cxx1112basic_stringIcSt11char_traitsIcESaIcEEES5_St4lessIS5_ESaISt4pairIKS5_S5_EEEaSERKSC_
	movq	16(%rbp), %rax
	addq	$32, %rsp
	popq	%rbp
	ret
	.seh_endproc
	.text
	.align 2
	.globl	_ZN3cpr7Session10SetProxiesERKNS_7ProxiesE
	.def	_ZN3cpr7Session10SetProxiesERKNS_7ProxiesE;	.scl	2;	.type	32;	.endef
	.seh_proc	_ZN3cpr7Session10SetProxiesERKNS_7ProxiesE
_ZN3cpr7Session10SetProxiesERKNS_7ProxiesE:
.LFB13625:
	pushq	%rbp
	.seh_pushreg	%rbp
	movq	%rsp, %rbp
	.seh_setframe	%rbp, 0
	subq	$32, %rsp
	.seh_stackalloc	32
	.seh_endprologue
	movq	%rcx, 16(%rbp)
	movq	%rdx, 24(%rbp)
	movq	16(%rbp), %rax
	leaq	112(%rax), %rcx
	movq	24(%rbp), %rax
	movq	%rax, %rdx
	call	_ZN3cpr7ProxiesaSERKS0_
	nop
	addq	$32, %rsp
	popq	%rbp
	ret
	.seh_endproc
	.section	.text$_ZNSt3mapINSt7__cxx1112basic_stringIcSt11char_traitsIcESaIcEEES5_St4lessIS5_ESaISt4pairIKS5_S5_EEEaSEOSC_,"x"
	.linkonce discard
	.align 2
	.globl	_ZNSt3mapINSt7__cxx1112basic_stringIcSt11char_traitsIcESaIcEEES5_St4lessIS5_ESaISt4pairIKS5_S5_EEEaSEOSC_
	.def	_ZNSt3mapINSt7__cxx1112basic_stringIcSt11char_traitsIcESaIcEEES5_St4lessIS5_ESaISt4pairIKS5_S5_EEEaSEOSC_;	.scl	2;	.type	32;	.endef
	.seh_proc	_ZNSt3mapINSt7__cxx1112basic_stringIcSt11char_traitsIcESaIcEEES5_St4lessIS5_ESaISt4pairIKS5_S5_EEEaSEOSC_
_ZNSt3mapINSt7__cxx1112basic_stringIcSt11char_traitsIcESaIcEEES5_St4lessIS5_ESaISt4pairIKS5_S5_EEEaSEOSC_:
.LFB13633:
	pushq	%rbp
	.seh_pushreg	%rbp
	movq	%rsp, %rbp
	.seh_setframe	%rbp, 0
	subq	$32, %rsp
	.seh_stackalloc	32
	.seh_endprologue
	movq	%rcx, 16(%rbp)
	movq	%rdx, 24(%rbp)
	movq	24(%rbp), %rdx
	movq	16(%rbp), %rax
	movq	%rax, %rcx
	call	_ZNSt8_Rb_treeINSt7__cxx1112basic_stringIcSt11char_traitsIcESaIcEEESt4pairIKS5_S5_ESt10_Select1stIS8_ESt4lessIS5_ESaIS8_EEaSEOSE_
	movq	16(%rbp), %rax
	addq	$32, %rsp
	popq	%rbp
	ret
	.seh_endproc
	.section	.text$_ZN3cpr7ProxiesaSEOS0_,"x"
	.linkonce discard
	.align 2
	.globl	_ZN3cpr7ProxiesaSEOS0_
	.def	_ZN3cpr7ProxiesaSEOS0_;	.scl	2;	.type	32;	.endef
	.seh_proc	_ZN3cpr7ProxiesaSEOS0_
_ZN3cpr7ProxiesaSEOS0_:
.LFB13632:
	pushq	%rbp
	.seh_pushreg	%rbp
	movq	%rsp, %rbp
	.seh_setframe	%rbp, 0
	subq	$32, %rsp
	.seh_stackalloc	32
	.seh_endprologue
	movq	%rcx, 16(%rbp)
	movq	%rdx, 24(%rbp)
	movq	24(%rbp), %rdx
	movq	16(%rbp), %rax
	movq	%rax, %rcx
	call	_ZNSt3mapINSt7__cxx1112basic_stringIcSt11char_traitsIcESaIcEEES5_St4lessIS5_ESaISt4pairIKS5_S5_EEEaSEOSC_
	movq	16(%rbp), %rax
	addq	$32, %rsp
	popq	%rbp
	ret
	.seh_endproc
	.text
	.align 2
	.globl	_ZN3cpr7Session10SetProxiesEONS_7ProxiesE
	.def	_ZN3cpr7Session10SetProxiesEONS_7ProxiesE;	.scl	2;	.type	32;	.endef
	.seh_proc	_ZN3cpr7Session10SetProxiesEONS_7ProxiesE
_ZN3cpr7Session10SetProxiesEONS_7ProxiesE:
.LFB13628:
	pushq	%rbp
	.seh_pushreg	%rbp
	movq	%rsp, %rbp
	.seh_setframe	%rbp, 0
	subq	$32, %rsp
	.seh_stackalloc	32
	.seh_endprologue
	movq	%rcx, 16(%rbp)
	movq	%rdx, 24(%rbp)
	movq	24(%rbp), %rax
	movq	%rax, %rcx
	call	_ZSt4moveIRN3cpr7ProxiesEEONSt16remove_referenceIT_E4typeEOS4_
	movq	%rax, %rdx
	movq	16(%rbp), %rax
	addq	$112, %rax
	movq	%rax, %rcx
	call	_ZN3cpr7ProxiesaSEOS0_
	nop
	addq	$32, %rsp
	popq	%rbp
	ret
	.seh_endproc
	.section	.text$_ZNSt3mapINSt7__cxx1112basic_stringIcSt11char_traitsIcESaIcEEEN3cpr21EncodedAuthenticationESt4lessIS5_ESaISt4pairIKS5_S7_EEEaSEOSE_,"x"
	.linkonce discard
	.align 2
	.globl	_ZNSt3mapINSt7__cxx1112basic_stringIcSt11char_traitsIcESaIcEEEN3cpr21EncodedAuthenticationESt4lessIS5_ESaISt4pairIKS5_S7_EEEaSEOSE_
	.def	_ZNSt3mapINSt7__cxx1112basic_stringIcSt11char_traitsIcESaIcEEEN3cpr21EncodedAuthenticationESt4lessIS5_ESaISt4pairIKS5_S7_EEEaSEOSE_;	.scl	2;	.type	32;	.endef
	.seh_proc	_ZNSt3mapINSt7__cxx1112basic_stringIcSt11char_traitsIcESaIcEEEN3cpr21EncodedAuthenticationESt4lessIS5_ESaISt4pairIKS5_S7_EEEaSEOSE_
_ZNSt3mapINSt7__cxx1112basic_stringIcSt11char_traitsIcESaIcEEEN3cpr21EncodedAuthenticationESt4lessIS5_ESaISt4pairIKS5_S7_EEEaSEOSE_:
.LFB13639:
	pushq	%rbp
	.seh_pushreg	%rbp
	movq	%rsp, %rbp
	.seh_setframe	%rbp, 0
	subq	$32, %rsp
	.seh_stackalloc	32
	.seh_endprologue
	movq	%rcx, 16(%rbp)
	movq	%rdx, 24(%rbp)
	movq	24(%rbp), %rdx
	movq	16(%rbp), %rax
	movq	%rax, %rcx
	call	_ZNSt8_Rb_treeINSt7__cxx1112basic_stringIcSt11char_traitsIcESaIcEEESt4pairIKS5_N3cpr21EncodedAuthenticationEESt10_Select1stISA_ESt4lessIS5_ESaISA_EEaSEOSG_
	movq	16(%rbp), %rax
	addq	$32, %rsp
	popq	%rbp
	ret
	.seh_endproc
	.section	.text$_ZN3cpr19ProxyAuthenticationaSEOS0_,"x"
	.linkonce discard
	.align 2
	.globl	_ZN3cpr19ProxyAuthenticationaSEOS0_
	.def	_ZN3cpr19ProxyAuthenticationaSEOS0_;	.scl	2;	.type	32;	.endef
	.seh_proc	_ZN3cpr19ProxyAuthenticationaSEOS0_
_ZN3cpr19ProxyAuthenticationaSEOS0_:
.LFB13638:
	pushq	%rbp
	.seh_pushreg	%rbp
	movq	%rsp, %rbp
	.seh_setframe	%rbp, 0
	subq	$32, %rsp
	.seh_stackalloc	32
	.seh_endprologue
	movq	%rcx, 16(%rbp)
	movq	%rdx, 24(%rbp)
	movq	24(%rbp), %rdx
	movq	16(%rbp), %rax
	movq	%rax, %rcx
	call	_ZNSt3mapINSt7__cxx1112basic_stringIcSt11char_traitsIcESaIcEEEN3cpr21EncodedAuthenticationESt4lessIS5_ESaISt4pairIKS5_S7_EEEaSEOSE_
	movq	16(%rbp), %rax
	addq	$32, %rsp
	popq	%rbp
	ret
	.seh_endproc
	.text
	.align 2
	.globl	_ZN3cpr7Session12SetProxyAuthEONS_19ProxyAuthenticationE
	.def	_ZN3cpr7Session12SetProxyAuthEONS_19ProxyAuthenticationE;	.scl	2;	.type	32;	.endef
	.seh_proc	_ZN3cpr7Session12SetProxyAuthEONS_19ProxyAuthenticationE
_ZN3cpr7Session12SetProxyAuthEONS_19ProxyAuthenticationE:
.LFB13634:
	pushq	%rbp
	.seh_pushreg	%rbp
	movq	%rsp, %rbp
	.seh_setframe	%rbp, 0
	subq	$32, %rsp
	.seh_stackalloc	32
	.seh_endprologue
	movq	%rcx, 16(%rbp)
	movq	%rdx, 24(%rbp)
	movq	24(%rbp), %rax
	movq	%rax, %rcx
	call	_ZSt4moveIRN3cpr19ProxyAuthenticationEEONSt16remove_referenceIT_E4typeEOS4_
	movq	%rax, %rdx
	movq	16(%rbp), %rax
	addq	$160, %rax
	movq	%rax, %rcx
	call	_ZN3cpr19ProxyAuthenticationaSEOS0_
	nop
	addq	$32, %rsp
	popq	%rbp
	ret
	.seh_endproc
	.section	.text$_ZNSt3mapINSt7__cxx1112basic_stringIcSt11char_traitsIcESaIcEEEN3cpr21EncodedAuthenticationESt4lessIS5_ESaISt4pairIKS5_S7_EEEaSERKSE_,"x"
	.linkonce discard
	.align 2
	.globl	_ZNSt3mapINSt7__cxx1112basic_stringIcSt11char_traitsIcESaIcEEEN3cpr21EncodedAuthenticationESt4lessIS5_ESaISt4pairIKS5_S7_EEEaSERKSE_
	.def	_ZNSt3mapINSt7__cxx1112basic_stringIcSt11char_traitsIcESaIcEEEN3cpr21EncodedAuthenticationESt4lessIS5_ESaISt4pairIKS5_S7_EEEaSERKSE_;	.scl	2;	.type	32;	.endef
	.seh_proc	_ZNSt3mapINSt7__cxx1112basic_stringIcSt11char_traitsIcESaIcEEEN3cpr21EncodedAuthenticationESt4lessIS5_ESaISt4pairIKS5_S7_EEEaSERKSE_
_ZNSt3mapINSt7__cxx1112basic_stringIcSt11char_traitsIcESaIcEEEN3cpr21EncodedAuthenticationESt4lessIS5_ESaISt4pairIKS5_S7_EEEaSERKSE_:
.LFB13642:
	pushq	%rbp
	.seh_pushreg	%rbp
	movq	%rsp, %rbp
	.seh_setframe	%rbp, 0
	subq	$32, %rsp
	.seh_stackalloc	32
	.seh_endprologue
	movq	%rcx, 16(%rbp)
	movq	%rdx, 24(%rbp)
	movq	24(%rbp), %rdx
	movq	16(%rbp), %rax
	movq	%rax, %rcx
	call	_ZNSt8_Rb_treeINSt7__cxx1112basic_stringIcSt11char_traitsIcESaIcEEESt4pairIKS5_N3cpr21EncodedAuthenticationEESt10_Select1stISA_ESt4lessIS5_ESaISA_EEaSERKSG_
	movq	16(%rbp), %rax
	addq	$32, %rsp
	popq	%rbp
	ret
	.seh_endproc
	.section	.text$_ZN3cpr19ProxyAuthenticationaSERKS0_,"x"
	.linkonce discard
	.align 2
	.globl	_ZN3cpr19ProxyAuthenticationaSERKS0_
	.def	_ZN3cpr19ProxyAuthenticationaSERKS0_;	.scl	2;	.type	32;	.endef
	.seh_proc	_ZN3cpr19ProxyAuthenticationaSERKS0_
_ZN3cpr19ProxyAuthenticationaSERKS0_:
.LFB13641:
	pushq	%rbp
	.seh_pushreg	%rbp
	movq	%rsp, %rbp
	.seh_setframe	%rbp, 0
	subq	$32, %rsp
	.seh_stackalloc	32
	.seh_endprologue
	movq	%rcx, 16(%rbp)
	movq	%rdx, 24(%rbp)
	movq	24(%rbp), %rdx
	movq	16(%rbp), %rax
	movq	%rax, %rcx
	call	_ZNSt3mapINSt7__cxx1112basic_stringIcSt11char_traitsIcESaIcEEEN3cpr21EncodedAuthenticationESt4lessIS5_ESaISt4pairIKS5_S7_EEEaSERKSE_
	movq	16(%rbp), %rax
	addq	$32, %rsp
	popq	%rbp
	ret
	.seh_endproc
	.text
	.align 2
	.globl	_ZN3cpr7Session12SetProxyAuthERKNS_19ProxyAuthenticationE
	.def	_ZN3cpr7Session12SetProxyAuthERKNS_19ProxyAuthenticationE;	.scl	2;	.type	32;	.endef
	.seh_proc	_ZN3cpr7Session12SetProxyAuthERKNS_19ProxyAuthenticationE
_ZN3cpr7Session12SetProxyAuthERKNS_19ProxyAuthenticationE:
.LFB13640:
	pushq	%rbp
	.seh_pushreg	%rbp
	movq	%rsp, %rbp
	.seh_setframe	%rbp, 0
	subq	$32, %rsp
	.seh_stackalloc	32
	.seh_endprologue
	movq	%rcx, 16(%rbp)
	movq	%rdx, 24(%rbp)
	movq	16(%rbp), %rax
	leaq	160(%rax), %rcx
	movq	24(%rbp), %rax
	movq	%rax, %rdx
